 sharp

 Timestamp is 5d2c52b0 (Mon Jul 15 18:17:20 2019)

 Preferred load address is 0000000180000000

 Start         Length     Name                   Class
 0001:00000000 00000130H .text                   CODE
 0001:00000130 000285e0H .text$mn                CODE
 0001:00028710 00000020H .text$mn$00             CODE
 0001:00028730 00001c30H .text$x                 CODE
 0002:00000000 00000880H .idata$5                DATA
 0002:00000880 00000010H .00cfg                  DATA
 0002:00000890 00000008H .CRT$XCA                DATA
 0002:00000898 00000008H .CRT$XCU                DATA
 0002:000008a0 00000008H .CRT$XCZ                DATA
 0002:000008a8 00000008H .CRT$XIA                DATA
 0002:000008b0 00000018H .CRT$XIC                DATA
 0002:000008c8 00000008H .CRT$XIZ                DATA
 0002:000008d0 00000008H .CRT$XPA                DATA
 0002:000008d8 00000010H .CRT$XPX                DATA
 0002:000008e8 00000008H .CRT$XPXA               DATA
 0002:000008f0 00000008H .CRT$XPZ                DATA
 0002:000008f8 00000008H .CRT$XTA                DATA
 0002:00000900 00000010H .CRT$XTZ                DATA
 0002:00000910 0000a488H .rdata                  DATA
 0002:0000ad98 00000484H .rdata$r                DATA
 0002:0000b21c 000003acH .rdata$zzzdbg           DATA
 0002:0000b5c8 00000008H .rtc$IAA                DATA
 0002:0000b5d0 00000008H .rtc$IZZ                DATA
 0002:0000b5d8 00000008H .rtc$TAA                DATA
 0002:0000b5e0 00000010H .rtc$TZZ                DATA
 0002:0000b5f0 00004c40H .xdata                  DATA
 0002:00010230 00000330H .xdata$x                DATA
 0002:00010560 00000050H .edata                  DATA
 0002:000105b0 00000064H .idata$2                DATA
 0002:00010614 00000014H .idata$3                DATA
 0002:00010628 00000880H .idata$4                DATA
 0002:00010ea8 00002b74H .idata$6                DATA
 0002:00013a1c 000000b8H .idata$7                DATA
 0003:00000000 00000970H .data                   DATA
 0003:00000970 00000220H .data$r                 DATA
 0003:00000b90 000011c8H .bss                    DATA
 0004:00000000 00001ee4H .pdata                  DATA
 0005:00000000 00000084H .gfids$x                DATA
 0005:00000084 00000060H .gfids$y                DATA
 0006:00000000 00000060H .rsrc$01                DATA
 0006:00000060 00000180H .rsrc$02                DATA

  Address         Publics by Value              Rva+Base               Lib:Object

 0000:00000000       __guard_iat_table          0000000000000000     <absolute>
 0000:00000000       __dynamic_value_reloc_table 0000000000000000     <absolute>
 0000:00000000       __guard_iat_count          0000000000000000     <absolute>
 0000:00000000       __guard_longjmp_table      0000000000000000     <absolute>
 0000:00000000       __guard_longjmp_count      0000000000000000     <absolute>
 0000:00000000       __guard_fids_count         0000000000000000     <absolute>
 0000:00000000       ___safe_se_handler_table   0000000000000000     <absolute>
 0000:00000000       ___safe_se_handler_count   0000000000000000     <absolute>
 0000:00000000       __guard_fids_table         0000000000000000     <absolute>
 0000:00000100       __guard_flags              0000000000000100     <absolute>
 0000:00000000       __ImageBase                0000000180000000     <linker-defined>
 0001:00000000       vips_image_remove          0000000180001000     libvips:dmrks01465.o
 0001:00000008       vips_foreign_find_load_buffer 0000000180001008     libvips:dmrks01230.o
 0001:00000010       vips_operation_boolean_get_type 0000000180001010     libvips:dmrks01662.o
 0001:00000018       vips_enum_from_nick        0000000180001018     libvips:dmrks01175.o
 0001:00000020       vips_interpretation_get_type 0000000180001020     libvips:dmrks01506.o
 0001:00000028       vips_foreign_find_load     0000000180001028     libvips:dmrks01229.o
 0001:00000030       vips_blob_get_type         0000000180001030     libvips:dmrks00939.o
 0001:00000038       vips_error_clear           0000000180001038     libvips:dmrks01186.o
 0001:00000040       vips_enum_nick             0000000180001040     libvips:dmrks01176.o
 0001:00000048       vips_thread_shutdown       0000000180001048     libvips:dmrks01887.o
 0001:00000050       vips_get_tile_size         0000000180001050     libvips:dmrks01338.o
 0001:00000058       vips_blob_new              0000000180001058     libvips:dmrks00940.o
 0001:00000060       vips_kernel_get_type       0000000180001060     libvips:dmrks01524.o
 0001:00000068       vips_area_unref            0000000180001068     libvips:dmrks00870.o
 0001:00000070       vips_init                  0000000180001070     libvips:dmrks01486.o
 0001:00000078       vips_cache_get_max_mem     0000000180001078     libvips:dmrks00987.o
 0001:00000080       vips_version               0000000180001080     libvips:dmrks01957.o
 0001:00000088       vips_cache_get_size        0000000180001088     libvips:dmrks00988.o
 0001:00000090       vips_vector_set_enabled    0000000180001090     libvips:dmrks01950.o
 0001:00000098       vips_cache_get_max         0000000180001098     libvips:dmrks00985.o
 0001:000000a0       vips_cache_set_max         00000001800010a0     libvips:dmrks00996.o
 0001:000000a8       vips_cache_get_max_files   00000001800010a8     libvips:dmrks00986.o
 0001:000000b0       vips_cache_set_max_mem     00000001800010b0     libvips:dmrks00998.o
 0001:000000b8       vips_concurrency_get       00000001800010b8     libvips:dmrks01102.o
 0001:000000c0       vips_cache_set_max_files   00000001800010c0     libvips:dmrks00997.o
 0001:000000c8       vips_type_find             00000001800010c8     libvips:dmrks01909.o
 0001:000000d0       vips_concurrency_set       00000001800010d0     libvips:dmrks01103.o
 0001:000000d8       vips_vector_isenabled      00000001800010d8     libvips:dmrks01946.o
 0001:000000e0       vips_tracked_get_mem_highwater 00000001800010e0     libvips:dmrks01905.o
 0001:000000e8       vips_tracked_get_mem       00000001800010e8     libvips:dmrks01904.o
 0001:000000f0       vips_tracked_get_files     00000001800010f0     libvips:dmrks01903.o
 0001:00000100       g_free                     0000000180001100     libglib-2.0:dgoks00380.o
 0001:00000108       g_atomic_int_inc           0000000180001108     libglib-2.0:dgoks00077.o
 0001:00000110       g_atomic_int_dec_and_test  0000000180001110     libglib-2.0:dgoks00074.o
 0001:00000118       g_malloc                   0000000180001118     libglib-2.0:dgoks00673.o
 0001:00000120       g_stat                     0000000180001120     libglib-2.0:dgoks01122.o
 0001:00000128       g_snprintf                 0000000180001128     libglib-2.0:dgoks01081.o
 0001:00000130       ??0exception@stdext@@QEAA@AEBV01@@Z 0000000180001130 f i common.obj
 0001:00000150       ?what@exception@stdext@@UEBAPEBDXZ 0000000180001150 f i common.obj
 0001:00000170       __except_validate_context_record 0000000180001170 f i libvcruntime:jbcxrval.obj
 0001:00000170       _guard_check_icall_nop     0000000180001170 f i LIBCMT:guard_support.obj
 0001:00000170       ?_Doraise@exception@stdext@@MEBAXXZ 0000000180001170 f i common.obj
 0001:00000170       ??3@YAXPEAX0@Z             0000000180001170 f i pipeline.obj
 0001:00000180       ??_Eexception@stdext@@UEAAPEAXI@Z 0000000180001180 f i * CIL library *:* CIL module *
 0001:00000180       ??_Gexception@stdext@@UEAAPEAXI@Z 0000000180001180 f i common.obj
 0001:000001b0       ?_Deallocate@std@@YAXPEAX_K1@Z 00000001800011b0 f i common.obj
 0001:00000220       ?to_string@std@@YA?AV?$basic_string@DU?$char_traits@D@std@@V?$allocator@D@2@@1@H@Z 0000000180001220 f i common.obj
 0001:00000240       ?Get@Nan@@YA?AV?$MaybeLocal@VValue@v8@@@v8@@V?$Local@VObject@v8@@@3@V?$Local@VValue@v8@@@3@@Z 0000000180001240 f i common.obj
 0001:000002d0       ?Has@Nan@@YA?AV?$Maybe@_N@1@V?$Local@VObject@v8@@@v8@@V?$Local@VString@v8@@@4@@Z 00000001800012d0 f i common.obj
 0001:00000370       ?convert@?$ToFactory@I@imp@Nan@@SA?AV?$Maybe@I@3@V?$Local@VValue@v8@@@v8@@@Z 0000000180001370 f i common.obj
 0001:000003f0       ?New@Nan@@YA?AV?$MaybeLocal@VString@v8@@@v8@@AEBV?$basic_string@DU?$char_traits@D@std@@V?$allocator@D@2@@std@@@Z 00000001800013f0 f i common.obj
 0001:00000440       ??1EscapableHandleScope@Nan@@QEAA@XZ 0000000180001440 f i metadata.obj
 0001:00000440       ??1HandleScope@Nan@@QEAA@XZ 0000000180001440 f i common.obj
 0001:00000450       ??0Utf8String@Nan@@QEAA@V?$Local@VValue@v8@@@v8@@@Z 0000000180001450 f i common.obj
 0001:00000560       ??1Utf8String@Nan@@QEAA@XZ 0000000180001560 f i common.obj
 0001:00000580       ?HasAttr@sharp@@YA_NV?$Local@VObject@v8@@@v8@@V?$basic_string@DU?$char_traits@D@std@@V?$allocator@D@2@@std@@@Z 0000000180001580 f   common.obj
 0001:00000610       ?AttrAsStr@sharp@@YA?AV?$basic_string@DU?$char_traits@D@std@@V?$allocator@D@2@@std@@V?$Local@VObject@v8@@@v8@@V23@@Z 0000000180001610 f   common.obj
 0001:00000720       ?CreateInputDescriptor@sharp@@YAPEAUInputDescriptor@1@V?$Local@VObject@v8@@@v8@@V?$vector@V?$Local@VObject@v8@@@v8@@V?$allocator@V?$Local@VObject@v8@@@v8@@@std@@@std@@@Z 0000000180001720 f   common.obj
 0001:00000b70       ?IsJpeg@sharp@@YA_NAEBV?$basic_string@DU?$char_traits@D@std@@V?$allocator@D@2@@std@@@Z 0000000180001b70 f   common.obj
 0001:00000fb0       ?IsPng@sharp@@YA_NAEBV?$basic_string@DU?$char_traits@D@std@@V?$allocator@D@2@@std@@@Z 0000000180001fb0 f   common.obj
 0001:00001250       ?IsWebp@sharp@@YA_NAEBV?$basic_string@DU?$char_traits@D@std@@V?$allocator@D@2@@std@@@Z 0000000180002250 f   common.obj
 0001:000014f0       ?IsTiff@sharp@@YA_NAEBV?$basic_string@DU?$char_traits@D@std@@V?$allocator@D@2@@std@@@Z 00000001800024f0 f   common.obj
 0001:00001930       ?IsDz@sharp@@YA_NAEBV?$basic_string@DU?$char_traits@D@std@@V?$allocator@D@2@@std@@@Z 0000000180002930 f   common.obj
 0001:00001bd0       ?IsDzZip@sharp@@YA_NAEBV?$basic_string@DU?$char_traits@D@std@@V?$allocator@D@2@@std@@@Z 0000000180002bd0 f   common.obj
 0001:00002010       ?IsV@sharp@@YA_NAEBV?$basic_string@DU?$char_traits@D@std@@V?$allocator@D@2@@std@@@Z 0000000180003010 f   common.obj
 0001:00002450       ?ImageTypeId@sharp@@YA?AV?$basic_string@DU?$char_traits@D@std@@V?$allocator@D@2@@std@@W4ImageType@1@@Z 0000000180003450 f   common.obj
 0001:000025d0       ?DetermineImageType@sharp@@YA?AW4ImageType@1@PEAX_K@Z 00000001800035d0 f   common.obj
 0001:00002c30       ?DetermineImageType@sharp@@YA?AW4ImageType@1@PEBD@Z 0000000180003c30 f   common.obj
 0001:00003430       ?OpenInput@sharp@@YA?AV?$tuple@VVImage@vips@@W4ImageType@sharp@@@std@@PEAUInputDescriptor@1@W4VipsAccess@@@Z 0000000180004430 f   common.obj
 0001:00003840       ??1?$tuple@VVImage@vips@@W4ImageType@sharp@@@std@@QEAA@XZ 0000000180004840 f i common.obj
 0001:00003850       ?HasProfile@sharp@@YA_NVVImage@vips@@@Z 0000000180004850 f   common.obj
 0001:000038a0       ?HasAlpha@sharp@@YA_NVVImage@vips@@@Z 00000001800048a0 f   common.obj
 0001:00003910       ?RemoveExifOrientation@sharp@@YAXVVImage@vips@@@Z 0000000180004910 f   common.obj
 0001:00003950       ?SetDensity@sharp@@YAXVVImage@vips@@H@Z 0000000180004950 f   common.obj
 0001:000039d0       ?FreeCallback@sharp@@YAXPEADPEAX@Z 00000001800049d0 f   common.obj
 0001:000039e0       ?CalculateCrop@sharp@@YA?AV?$tuple@HH@std@@HHHHH@Z 00000001800049e0 f   common.obj
 0001:00003ae0       ?CalculateCrop@sharp@@YA?AV?$tuple@HH@std@@HHHHHH@Z 0000000180004ae0 f   common.obj
 0001:00003b50       ?GetRgbaAsColourspace@sharp@@YA?AV?$vector@NV?$allocator@N@std@@@std@@V23@W4VipsInterpretation@@@Z 0000000180004b50 f   common.obj
 0001:00003d40       ??1?$vector@NV?$allocator@N@std@@@std@@QEAA@XZ 0000000180004d40 f i common.obj
 0001:00003d40       ??1?$vector@PEAUInputDescriptor@sharp@@V?$allocator@PEAUInputDescriptor@sharp@@@std@@@std@@QEAA@XZ 0000000180004d40 f i pipeline.obj
 0001:00003d40       ??1?$vector@V?$Local@VObject@v8@@@v8@@V?$allocator@V?$Local@VObject@v8@@@v8@@@std@@@std@@QEAA@XZ 0000000180004d40 f i common.obj
 0001:00003d80       ??0?$vector@NV?$allocator@N@std@@@std@@QEAA@AEBV01@@Z 0000000180004d80 f i common.obj
 0001:00003e30       ?data@?$basic_string@DU?$char_traits@D@std@@V?$allocator@D@2@@std@@QEBAPEBDXZ 0000000180004e30 f i common.obj
 0001:00003e40       ??4?$basic_string@DU?$char_traits@D@std@@V?$allocator@D@2@@std@@QEAAAEAV01@PEBD@Z 0000000180004e40 f i common.obj
 0001:00003e40       ?assign@?$basic_string@DU?$char_traits@D@std@@V?$allocator@D@2@@std@@QEAAAEAV12@PEBD@Z 0000000180004e40 f i common.obj
 0001:00003e60       ??1?$basic_string@DU?$char_traits@D@std@@V?$allocator@D@2@@std@@QEAA@XZ 0000000180004e60 f i common.obj
 0001:00003ef0       ??4?$basic_string@DU?$char_traits@D@std@@V?$allocator@D@2@@std@@QEAAAEAV01@$$QEAV01@@Z 0000000180004ef0 f i common.obj
 0001:00003fa0       ??0?$basic_string@DU?$char_traits@D@std@@V?$allocator@D@2@@std@@QEAA@PEBD@Z 0000000180004fa0 f i common.obj
 0001:00003fe0       ??0?$basic_string@DU?$char_traits@D@std@@V?$allocator@D@2@@std@@QEAA@AEBV01@@Z 0000000180004fe0 f i common.obj
 0001:00004020       ?_Reserve@?$vector@V?$Local@VObject@v8@@@v8@@V?$allocator@V?$Local@VObject@v8@@@v8@@@std@@@std@@IEAAX_K@Z 0000000180005020 f i common.obj
 0001:000040b0       ?_Tidy@?$basic_string@DU?$char_traits@D@std@@V?$allocator@D@2@@std@@QEAAX_N_K@Z 00000001800050b0 f i common.obj
 0001:00004160       ?assign@?$basic_string@DU?$char_traits@D@std@@V?$allocator@D@2@@std@@QEAAAEAV12@PEBD_K@Z 0000000180005160 f i common.obj
 0001:00004290       ?assign@?$basic_string@DU?$char_traits@D@std@@V?$allocator@D@2@@std@@QEAAAEAV12@AEBV12@_K1@Z 0000000180005290 f i common.obj
 0001:000043c0       ?_Assign_rv@?$basic_string@DU?$char_traits@D@std@@V?$allocator@D@2@@std@@QEAAX$$QEAV12@@Z 00000001800053c0 f i common.obj
 0001:00004440       ?deallocate@?$_Wrap_alloc@V?$allocator@N@std@@@std@@QEAAXPEAN_K@Z 0000000180005440 f i common.obj
 0001:00004440       ?deallocate@?$_Wrap_alloc@V?$allocator@PEAUInputDescriptor@sharp@@@std@@@std@@QEAAXPEAPEAUInputDescriptor@sharp@@_K@Z 0000000180005440 f i pipeline.obj
 0001:00004440       ?deallocate@?$_Wrap_alloc@V?$allocator@V?$Local@VObject@v8@@@v8@@@std@@@std@@QEAAXPEAV?$Local@VObject@v8@@@v8@@_K@Z 0000000180005440 f i common.obj
 0001:000044b0       ?_Reallocate@?$vector@V?$Local@VObject@v8@@@v8@@V?$allocator@V?$Local@VObject@v8@@@v8@@@std@@@std@@IEAAX_K@Z 00000001800054b0 f i common.obj
 0001:000045c0       ?allocate@?$_Wrap_alloc@V?$allocator@N@std@@@std@@QEAAPEAN_K@Z 00000001800055c0 f i common.obj
 0001:000045c0       ?allocate@?$_Wrap_alloc@V?$allocator@V?$Local@VObject@v8@@@v8@@@std@@@std@@QEAAPEAV?$Local@VObject@v8@@@v8@@_K@Z 00000001800055c0 f i common.obj
 0001:00004630       ?erase@?$basic_string@DU?$char_traits@D@std@@V?$allocator@D@2@@std@@QEAAAEAV12@_K0@Z 0000000180005630 f i common.obj
 0001:00004700       ?_Copy@?$basic_string@DU?$char_traits@D@std@@V?$allocator@D@2@@std@@QEAAX_K0@Z 0000000180005700 f i common.obj
 0001:00004880       ??$_Integral_to_string@DH@std@@YA?AV?$basic_string@DU?$char_traits@D@std@@V?$allocator@D@2@@0@H@Z 0000000180005880 f i common.obj
 0001:00004960       ??$New@VString@v8@@V?$basic_string@DU?$char_traits@D@std@@V?$allocator@D@2@@std@@@Nan@@YA?AV?$MaybeLocal@VString@v8@@@v8@@V?$basic_string@DU?$char_traits@D@std@@V?$allocator@D@2@@std@@@Z 0000000180005960 f i common.obj
 0001:00004a10       ??$AttrAs@VArray@v8@@@sharp@@YA?AV?$Local@VArray@v8@@@v8@@V?$Local@VObject@v8@@@2@V?$basic_string@DU?$char_traits@D@std@@V?$allocator@D@2@@std@@@Z 0000000180005a10 f i pipeline.obj
 0001:00004a10       ??$AttrAs@VObject@v8@@@sharp@@YA?AV?$Local@VObject@v8@@@v8@@V12@V?$basic_string@DU?$char_traits@D@std@@V?$allocator@D@2@@std@@@Z 0000000180005a10 f i common.obj
 0001:00004a10       ??$AttrAs@VFunction@v8@@@sharp@@YA?AV?$Local@VFunction@v8@@@v8@@V?$Local@VObject@v8@@@2@V?$basic_string@DU?$char_traits@D@std@@V?$allocator@D@2@@std@@@Z 0000000180005a10 f i pipeline.obj
 0001:00004ab0       ??$AttrTo@I@sharp@@YAIV?$Local@VObject@v8@@@v8@@V?$basic_string@DU?$char_traits@D@std@@V?$allocator@D@2@@std@@@Z 0000000180005ab0 f i common.obj
 0001:00004b50       ??$make_tuple@AEAVVImage@vips@@AEAW4ImageType@sharp@@@std@@YA?AV?$tuple@VVImage@vips@@W4ImageType@sharp@@@0@AEAVVImage@vips@@AEAW4ImageType@sharp@@@Z 0000000180005b50 f i common.obj
 0001:00004b80       ?Set@Nan@@YA?AV?$Maybe@_N@1@V?$Local@VObject@v8@@@v8@@V?$Local@VValue@v8@@@4@1@Z 0000000180005b80 f i metadata.obj
 0001:00004c30       ?Set@Nan@@YA?AV?$Maybe@_N@1@V?$Local@VObject@v8@@@v8@@IV?$Local@VValue@v8@@@4@@Z 0000000180005c30 f i metadata.obj
 0001:00004ce0       ?Get@Nan@@YA?AV?$MaybeLocal@VValue@v8@@@v8@@V?$Local@VObject@v8@@@3@I@Z 0000000180005ce0 f i metadata.obj
 0001:00004d80       ?convert@?$ToFactory@VUint32@v8@@@imp@Nan@@SA?AV?$MaybeLocal@VUint32@v8@@@v8@@V?$Local@VValue@v8@@@5@@Z 0000000180005d80 f i metadata.obj
 0001:00004e00       ?Error@Nan@@YA?AV?$Local@VValue@v8@@@v8@@PEBD@Z 0000000180005e00 f i metadata.obj
 0001:00004ea0       ??0Callback@Nan@@QEAA@AEBV?$Local@VFunction@v8@@@v8@@@Z 0000000180005ea0 f i metadata.obj
 0001:00004ef0       ?Call@Callback@Nan@@QEBA?AV?$Local@VValue@v8@@@v8@@HQEAV34@@Z 0000000180005ef0 f i metadata.obj
 0001:00004fa0       ?Call@Callback@Nan@@QEBA?AV?$MaybeLocal@VValue@v8@@@v8@@HQEAV?$Local@VValue@v8@@@4@PEAVAsyncResource@2@@Z 0000000180005fa0 f i metadata.obj
 0001:00005060       ?Call_@Callback@Nan@@AEBA?AV?$Local@VValue@v8@@@v8@@PEAVIsolate@4@V?$Local@VObject@v8@@@4@HQEAV34@@Z 0000000180006060 f i metadata.obj
 0001:00005120       ??0AsyncWorker@Nan@@QEAA@PEAVCallback@1@PEBD@Z 0000000180006120 f i metadata.obj
 0001:00005210       ??1AsyncWorker@Nan@@UEAA@XZ 0000000180006210 f i metadata.obj
 0001:000052e0       ?WorkComplete@AsyncWorker@Nan@@UEAAXXZ 00000001800062e0 f i metadata.obj
 0001:00005380       ?GetFromPersistent@AsyncWorker@Nan@@QEBA?AV?$Local@VValue@v8@@@v8@@I@Z 0000000180006380 f i metadata.obj
 0001:00005420       ?Destroy@AsyncWorker@Nan@@UEAAXXZ 0000000180006420 f i metadata.obj
 0001:00005440       ?HandleOKCallback@AsyncWorker@Nan@@MEAAXXZ 0000000180006440 f i metadata.obj
 0001:00005490       ?HandleErrorCallback@AsyncWorker@Nan@@MEAAXXZ 0000000180006490 f i metadata.obj
 0001:00005540       ??_GAsyncWorker@Nan@@UEAAPEAXI@Z 0000000180006540 f i metadata.obj
 0001:00005540       ??_EAsyncWorker@Nan@@UEAAPEAXI@Z 0000000180006540 f i * CIL library *:* CIL module *
 0001:00005580       ??1?$Persistent@VObject@v8@@V?$NonCopyablePersistentTraits@VObject@v8@@@2@@Nan@@QEAA@XZ 0000000180006580 f i metadata.obj
 0001:000055a0       ?AsyncExecute@Nan@@YAXPEAUuv_work_s@@@Z 00000001800065a0 f i metadata.obj
 0001:000055b0       ?AsyncExecuteComplete@Nan@@YAXPEAUuv_work_s@@@Z 00000001800065b0 f i metadata.obj
 0001:000055f0       ?AsyncQueueWorker@Nan@@YAXPEAVAsyncWorker@1@@Z 00000001800065f0 f i metadata.obj
 0001:00005620       ??0MetadataWorker@@QEAA@PEAVCallback@Nan@@PEAUMetadataBaton@@V?$vector@V?$Local@VObject@v8@@@v8@@V?$allocator@V?$Local@VObject@v8@@@v8@@@std@@@std@@@Z 0000000180006620 f i metadata.obj
 0001:000056c0       ?Execute@MetadataWorker@@UEAAXXZ 00000001800066c0 f i metadata.obj
 0001:00005ad0       ?HandleOKCallback@MetadataWorker@@UEAAXXZ 0000000180006ad0 f i metadata.obj
 0001:00006250       ??_EMetadataWorker@@UEAAPEAXI@Z 0000000180007250 f i * CIL library *:* CIL module *
 0001:00006250       ??_GMetadataWorker@@UEAAPEAXI@Z 0000000180007250 f i metadata.obj
 0001:000062d0       ?metadata@@YAXAEBV?$FunctionCallbackInfo@VValue@v8@@@Nan@@@Z 00000001800072d0 f   metadata.obj
 0001:000064d0       ??0?$vector@V?$Local@VObject@v8@@@v8@@V?$allocator@V?$Local@VObject@v8@@@v8@@@std@@@std@@QEAA@AEBV01@@Z 00000001800074d0 f i metadata.obj
 0001:000065a0       ??A?$FunctionCallbackInfo@VValue@v8@@@Nan@@QEBA?AV?$Local@VValue@v8@@@v8@@H@Z 00000001800075a0 f i metadata.obj
 0001:000065e0       ?append@?$basic_string@DU?$char_traits@D@std@@V?$allocator@D@2@@std@@QEAAAEAV12@PEBD@Z 00000001800075e0 f i metadata.obj
 0001:00006600       ?append@?$basic_string@DU?$char_traits@D@std@@V?$allocator@D@2@@std@@QEAAAEAV12@PEBD_K@Z 0000000180007600 f i metadata.obj
 0001:00006750       ?append@?$basic_string@DU?$char_traits@D@std@@V?$allocator@D@2@@std@@QEAAAEAV12@AEBV12@_K1@Z 0000000180007750 f i metadata.obj
 0001:00006880       ??$New@VUint32@v8@@H@Nan@@YA?AV?$Local@VUint32@v8@@@v8@@H@Z 0000000180007880 f i metadata.obj
 0001:000068e0       ??$_Accumulate_unchecked@PEBV?$Local@VObject@v8@@@v8@@HV<lambda_9252aa89fe9814f85e2a072fe573e6da>@@@std@@YAHPEBV?$Local@VObject@v8@@@v8@@0HAEAV<lambda_9252aa89fe9814f85e2a072fe573e6da>@@@Z 00000001800078e0 f i metadata.obj
 0001:000068e0       ??$_Accumulate_unchecked@PEBV?$Local@VObject@v8@@@v8@@HV<lambda_1cf14cbc5c28648f7ac9038b3f6db2a5>@@@std@@YAHPEBV?$Local@VObject@v8@@@v8@@0HAEAV<lambda_1cf14cbc5c28648f7ac9038b3f6db2a5>@@@Z 00000001800078e0 f i pipeline.obj
 0001:000069b0       ?Composite@sharp@@YA?AVVImage@vips@@V23@0H@Z 00000001800079b0 f   operations.obj
 0001:00006c30       ?Composite@sharp@@YA?AVVImage@vips@@V23@0HH@Z 0000000180007c30 f   operations.obj
 0001:00006ee0       ?IsInputValidForComposition@sharp@@YA_NVVImage@vips@@0@Z 0000000180007ee0 f   operations.obj
 0001:000070e0       ?CompositeImage@sharp@@YA?AVVImage@vips@@V23@0@Z 00000001800080e0 f   operations.obj
 0001:00007390       ?Cutout@sharp@@YA?AVVImage@vips@@V23@0H@Z 0000000180008390 f   operations.obj
 0001:000079a0       ?Normalise@sharp@@YA?AVVImage@vips@@V23@@Z 00000001800089a0 f   operations.obj
 0001:00007c50       ?Gamma@sharp@@YA?AVVImage@vips@@V23@N@Z 0000000180008c50 f   operations.obj
 0001:00007e10       ?Blur@sharp@@YA?AVVImage@vips@@V23@N@Z 0000000180008e10 f   operations.obj
 0001:00007f00       ?Convolve@sharp@@YA?AVVImage@vips@@V23@HHNNAEBV?$unique_ptr@$$BY0A@NU?$default_delete@$$BY0A@N@std@@@std@@@Z 0000000180008f00 f   operations.obj
 0001:00007ff0       ?Sharpen@sharp@@YA?AVVImage@vips@@V23@NNN@Z 0000000180008ff0 f   operations.obj
 0001:00008180       ??RAttentionStrategy@sharp@@QEAANVVImage@vips@@@Z 0000000180009180 f   operations.obj
 0001:00008690       ?Crop@sharp@@YA?AV?$tuple@HH@std@@VVImage@vips@@HHV?$function@$$A6ANVVImage@vips@@@Z@3@@Z 0000000180009690 f   operations.obj
 0001:000089f0       ?TileCache@sharp@@YA?AVVImage@vips@@V23@N@Z 00000001800099f0 f   operations.obj
 0001:00008b20       ?Threshold@sharp@@YA?AVVImage@vips@@V23@N_N@Z 0000000180009b20 f   operations.obj
 0001:00008bb0       ?Bandbool@sharp@@YA?AVVImage@vips@@V23@W4VipsOperationBoolean@@@Z 0000000180009bb0 f   operations.obj
 0001:00008c50       ?Boolean@sharp@@YA?AVVImage@vips@@V23@0W4VipsOperationBoolean@@@Z 0000000180009c50 f   operations.obj
 0001:00008ce0       ?Trim@sharp@@YA?AVVImage@vips@@V23@H@Z 0000000180009ce0 f   operations.obj
 0001:00009110       ??1?$function@$$A6ANVVImage@vips@@@Z@std@@QEAA@XZ 000000018000a110 f i operations.obj
 0001:00009140       ??$_Construct@PEBN@?$vector@NV?$allocator@N@std@@@std@@QEAAXPEBN0Uforward_iterator_tag@1@@Z 000000018000a140 f i operations.obj
 0001:000091f0       ?convert@?$ToFactory@N@imp@Nan@@SA?AV?$Maybe@N@3@V?$Local@VValue@v8@@@v8@@@Z 000000018000a1f0 f i pipeline.obj
 0001:00009290       ?convert@?$ToFactory@H@imp@Nan@@SA?AV?$Maybe@H@3@V?$Local@VValue@v8@@@v8@@@Z 000000018000a290 f i pipeline.obj
 0001:00009310       ?convert@?$ToFactory@_N@imp@Nan@@SA?AV?$Maybe@_N@3@V?$Local@VValue@v8@@@v8@@@Z 000000018000a310 f i pipeline.obj
 0001:00009390       ??0PipelineBaton@@QEAA@XZ  000000018000a390 f i pipeline.obj
 0001:00009630       ??0PipelineWorker@@QEAA@PEAVCallback@Nan@@PEAUPipelineBaton@@0V?$vector@V?$Local@VObject@v8@@@v8@@V?$allocator@V?$Local@VObject@v8@@@v8@@@std@@@std@@@Z 000000018000a630 f i pipeline.obj
 0001:000096e0       ?Execute@PipelineWorker@@UEAAXXZ 000000018000a6e0 f i pipeline.obj
 0001:0000dbf0       ?HandleOKCallback@PipelineWorker@@UEAAXXZ 000000018000ebf0 f i pipeline.obj
 0001:0000e3f0       ?CalculateRotationAndFlip@PipelineWorker@@AEAA?AV?$tuple@W4VipsAngle@@_N_N@std@@HVVImage@vips@@@Z 000000018000f3f0 f i pipeline.obj
 0001:0000e520       ?AssembleSuffixString@PipelineWorker@@AEAA?AV?$basic_string@DU?$char_traits@D@std@@V?$allocator@D@2@@std@@V23@V?$vector@U?$pair@V?$basic_string@DU?$char_traits@D@std@@V?$allocator@D@2@@std@@V12@@std@@V?$allocator@U?$pair@V?$basic_string@DU?$char_traits@D@std@@V?$allocator@D@2@@std@@V12@@std@@@2@@3@@Z 000000018000f520 f i pipeline.obj
 0001:0000e8b0       ??_GPipelineWorker@@UEAAPEAXI@Z 000000018000f8b0 f i pipeline.obj
 0001:0000e8b0       ??_EPipelineWorker@@UEAAPEAXI@Z 000000018000f8b0 f i * CIL library *:* CIL module *
 0001:0000e930       ??1?$map@W4VipsInterpretation@@V?$basic_string@DU?$char_traits@D@std@@V?$allocator@D@2@@std@@U?$less@W4VipsInterpretation@@@3@V?$allocator@U?$pair@$$CBW4VipsInterpretation@@V?$basic_string@DU?$char_traits@D@std@@V?$allocator@D@2@@std@@@std@@@3@@std@@QEAA@XZ 000000018000f930 f i pipeline.obj
 0001:0000e960       ??1?$pair@W4VipsInterpretation@@V?$basic_string@DU?$char_traits@D@std@@V?$allocator@D@2@@std@@@std@@QEAA@XZ 000000018000f960 f i pipeline.obj
 0001:0000e970       ??1?$pair@V?$basic_string@DU?$char_traits@D@std@@V?$allocator@D@2@@std@@V12@@std@@QEAA@XZ 000000018000f970 f i pipeline.obj
 0001:0000e990       ??1PipelineBaton@@QEAA@XZ  000000018000f990 f i pipeline.obj
 0001:0000ea40       ?pipeline@@YAXAEBV?$FunctionCallbackInfo@VValue@v8@@@Nan@@@Z 000000018000fa40 f   pipeline.obj
 0001:00010a20       ??1?$vector@U?$pair@V?$basic_string@DU?$char_traits@D@std@@V?$allocator@D@2@@std@@V12@@std@@V?$allocator@U?$pair@V?$basic_string@DU?$char_traits@D@std@@V?$allocator@D@2@@std@@V12@@std@@@2@@std@@QEAA@XZ 0000000180011a20 f i pipeline.obj
 0001:00010a30       ??0?$vector@U?$pair@V?$basic_string@DU?$char_traits@D@std@@V?$allocator@D@2@@std@@V12@@std@@V?$allocator@U?$pair@V?$basic_string@DU?$char_traits@D@std@@V?$allocator@D@2@@std@@V12@@std@@@2@@std@@QEAA@V?$initializer_list@U?$pair@V?$basic_string@DU?$char_traits@D@std@@V?$allocator@D@2@@std@@V12@@std@@@1@AEBV?$allocator@U?$pair@V?$basic_string@DU?$char_traits@D@std@@V?$allocator@D@2@@std@@V12@@std@@@1@@Z 0000000180011a30 f i pipeline.obj
 0001:00010a90       ??0?$vector@U?$pair@V?$basic_string@DU?$char_traits@D@std@@V?$allocator@D@2@@std@@V12@@std@@V?$allocator@U?$pair@V?$basic_string@DU?$char_traits@D@std@@V?$allocator@D@2@@std@@V12@@std@@@2@@std@@QEAA@AEBV01@@Z 0000000180011a90 f i pipeline.obj
 0001:00010af0       ?push_back@?$vector@PEAUInputDescriptor@sharp@@V?$allocator@PEAUInputDescriptor@sharp@@@std@@@std@@QEAAX$$QEAPEAUInputDescriptor@sharp@@@Z 0000000180011af0 f i pipeline.obj
 0001:00010b80       ??4?$vector@NV?$allocator@N@std@@@std@@QEAAAEAV01@$$QEAV01@@Z 0000000180011b80 f i pipeline.obj
 0001:00010c00       ?compare@?$basic_string@DU?$char_traits@D@std@@V?$allocator@D@2@@std@@QEBAHPEBD@Z 0000000180011c00 f i pipeline.obj
 0001:00010c90       ?append@?$basic_string@DU?$char_traits@D@std@@V?$allocator@D@2@@std@@QEAAAEAV12@AEBV12@@Z 0000000180011c90 f i pipeline.obj
 0001:00010ca0       ?_Tidy@?$vector@U?$pair@V?$basic_string@DU?$char_traits@D@std@@V?$allocator@D@2@@std@@V12@@std@@V?$allocator@U?$pair@V?$basic_string@DU?$char_traits@D@std@@V?$allocator@D@2@@std@@V12@@std@@@2@@std@@IEAAXXZ 0000000180011ca0 f i pipeline.obj
 0001:00010d40       ?_Buy@?$vector@U?$pair@V?$basic_string@DU?$char_traits@D@std@@V?$allocator@D@2@@std@@V12@@std@@V?$allocator@U?$pair@V?$basic_string@DU?$char_traits@D@std@@V?$allocator@D@2@@std@@V12@@std@@@2@@std@@IEAA_N_K@Z 0000000180011d40 f i pipeline.obj
 0001:00010de0       ?_Reserve@?$vector@PEAUInputDescriptor@sharp@@V?$allocator@PEAUInputDescriptor@sharp@@@std@@@std@@IEAAX_K@Z 0000000180011de0 f i pipeline.obj
 0001:00010de0       ?_Reserve@?$vector@NV?$allocator@N@std@@@std@@IEAAX_K@Z 0000000180011de0 f i pipeline.obj
 0001:00010e70       ?erase@?$_Tree@V?$_Tmap_traits@W4VipsInterpretation@@V?$basic_string@DU?$char_traits@D@std@@V?$allocator@D@2@@std@@U?$less@W4VipsInterpretation@@@3@V?$allocator@U?$pair@$$CBW4VipsInterpretation@@V?$basic_string@DU?$char_traits@D@std@@V?$allocator@D@2@@std@@@std@@@3@$0A@@std@@@std@@QEAA?AV?$_Tree_iterator@V?$_Tree_val@U?$_Tree_simple_types@U?$pair@$$CBW4VipsInterpretation@@V?$basic_string@DU?$char_traits@D@std@@V?$allocator@D@2@@std@@@std@@@std@@@std@@@2@V?$_Tree_const_iterator@V?$_Tree_val@U?$_Tree_simple_types@U?$pair@$$CBW4VipsInterpretation@@V?$basic_string@DU?$char_traits@D@std@@V?$allocator@D@2@@std@@@std@@@std@@@std@@@2@0@Z 0000000180011e70 f i pipeline.obj
 0001:00010f70       ?_Reallocate@?$vector@NV?$allocator@N@std@@@std@@IEAAX_K@Z 0000000180011f70 f i pipeline.obj
 0001:00010f70       ?_Reallocate@?$vector@PEAUInputDescriptor@sharp@@V?$allocator@PEAUInputDescriptor@sharp@@@std@@@std@@IEAAX_K@Z 0000000180011f70 f i pipeline.obj
 0001:00011050       ?erase@?$_Tree@V?$_Tmap_traits@W4VipsInterpretation@@V?$basic_string@DU?$char_traits@D@std@@V?$allocator@D@2@@std@@U?$less@W4VipsInterpretation@@@3@V?$allocator@U?$pair@$$CBW4VipsInterpretation@@V?$basic_string@DU?$char_traits@D@std@@V?$allocator@D@2@@std@@@std@@@3@$0A@@std@@@std@@QEAA?AV?$_Tree_iterator@V?$_Tree_val@U?$_Tree_simple_types@U?$pair@$$CBW4VipsInterpretation@@V?$basic_string@DU?$char_traits@D@std@@V?$allocator@D@2@@std@@@std@@@std@@@std@@@2@V?$_Tree_const_iterator@V?$_Tree_val@U?$_Tree_simple_types@U?$pair@$$CBW4VipsInterpretation@@V?$basic_string@DU?$char_traits@D@std@@V?$allocator@D@2@@std@@@std@@@std@@@std@@@2@@Z 0000000180012050 f i pipeline.obj
 0001:00011520       ?_Rrotate@?$_Tree@V?$_Tmap_traits@W4VipsInterpretation@@V?$basic_string@DU?$char_traits@D@std@@V?$allocator@D@2@@std@@U?$less@W4VipsInterpretation@@@3@V?$allocator@U?$pair@$$CBW4VipsInterpretation@@V?$basic_string@DU?$char_traits@D@std@@V?$allocator@D@2@@std@@@std@@@3@$0A@@std@@@std@@IEAAXPEAU?$_Tree_node@U?$pair@$$CBW4VipsInterpretation@@V?$basic_string@DU?$char_traits@D@std@@V?$allocator@D@2@@std@@@std@@PEAX@2@@Z 0000000180012520 f i pipeline.obj
 0001:00011580       ?_Lrotate@?$_Tree@V?$_Tmap_traits@W4VipsInterpretation@@V?$basic_string@DU?$char_traits@D@std@@V?$allocator@D@2@@std@@U?$less@W4VipsInterpretation@@@3@V?$allocator@U?$pair@$$CBW4VipsInterpretation@@V?$basic_string@DU?$char_traits@D@std@@V?$allocator@D@2@@std@@@std@@@3@$0A@@std@@@std@@IEAAXPEAU?$_Tree_node@U?$pair@$$CBW4VipsInterpretation@@V?$basic_string@DU?$char_traits@D@std@@V?$allocator@D@2@@std@@@std@@PEAX@2@@Z 0000000180012580 f i pipeline.obj
 0001:000115e0       ?_Erase@?$_Tree@V?$_Tmap_traits@W4VipsInterpretation@@V?$basic_string@DU?$char_traits@D@std@@V?$allocator@D@2@@std@@U?$less@W4VipsInterpretation@@@3@V?$allocator@U?$pair@$$CBW4VipsInterpretation@@V?$basic_string@DU?$char_traits@D@std@@V?$allocator@D@2@@std@@@std@@@3@$0A@@std@@@std@@IEAAXPEAU?$_Tree_node@U?$pair@$$CBW4VipsInterpretation@@V?$basic_string@DU?$char_traits@D@std@@V?$allocator@D@2@@std@@@std@@PEAX@2@@Z 00000001800125e0 f i pipeline.obj
 0001:000116c0       ??$?HDU?$char_traits@D@std@@V?$allocator@D@1@@std@@YA?AV?$basic_string@DU?$char_traits@D@std@@V?$allocator@D@2@@0@AEBV10@PEBD@Z 00000001800126c0 f i pipeline.obj
 0001:00011780       ??$?HDU?$char_traits@D@std@@V?$allocator@D@1@@std@@YA?AV?$basic_string@DU?$char_traits@D@std@@V?$allocator@D@2@@0@$$QEAV10@PEBD@Z 0000000180012780 f i pipeline.obj
 0001:000117d0       ??$?8DU?$char_traits@D@std@@V?$allocator@D@1@@std@@YA_NAEBV?$basic_string@DU?$char_traits@D@std@@V?$allocator@D@2@@0@PEBD@Z 00000001800127d0 f i pipeline.obj
 0001:000117f0       ??$?0AEAY09$$CBDPEBDX$0A@@?$pair@V?$basic_string@DU?$char_traits@D@std@@V?$allocator@D@2@@std@@V12@@std@@QEAA@AEAY09$$CBD$$QEAPEBD@Z 00000001800127f0 f i pipeline.obj
 0001:00011880       ??$?0AEAY0M@$$CBDV?$basic_string@DU?$char_traits@D@std@@V?$allocator@D@2@@std@@X$0A@@?$pair@V?$basic_string@DU?$char_traits@D@std@@V?$allocator@D@2@@std@@V12@@std@@QEAA@AEAY0M@$$CBD$$QEAV?$basic_string@DU?$char_traits@D@std@@V?$allocator@D@2@@1@@Z 0000000180012880 f i pipeline.obj
 0001:000118f0       ??$?0AEAY06$$CBDPEBDX$0A@@?$pair@V?$basic_string@DU?$char_traits@D@std@@V?$allocator@D@2@@std@@V12@@std@@QEAA@AEAY06$$CBD$$QEAPEBD@Z 00000001800128f0 f i pipeline.obj
 0001:00011980       ??$?0AEAY01$$CBDV?$basic_string@DU?$char_traits@D@std@@V?$allocator@D@2@@std@@X$0A@@?$pair@V?$basic_string@DU?$char_traits@D@std@@V?$allocator@D@2@@std@@V12@@std@@QEAA@AEAY01$$CBD$$QEAV?$basic_string@DU?$char_traits@D@std@@V?$allocator@D@2@@1@@Z 0000000180012980 f i pipeline.obj
 0001:000119f0       ??$?0AEAY0N@$$CBDPEBDX$0A@@?$pair@V?$basic_string@DU?$char_traits@D@std@@V?$allocator@D@2@@std@@V12@@std@@QEAA@AEAY0N@$$CBD$$QEAPEBD@Z 00000001800129f0 f i pipeline.obj
 0001:00011a80       ??$?0AEAY0O@$$CBDPEBDX$0A@@?$pair@V?$basic_string@DU?$char_traits@D@std@@V?$allocator@D@2@@std@@V12@@std@@QEAA@AEAY0O@$$CBD$$QEAPEBD@Z 0000000180012a80 f i pipeline.obj
 0001:00011b10       ??$?0AEAY0BE@$$CBDPEBDX$0A@@?$pair@V?$basic_string@DU?$char_traits@D@std@@V?$allocator@D@2@@std@@V12@@std@@QEAA@AEAY0BE@$$CBD$$QEAPEBD@Z 0000000180012b10 f i pipeline.obj
 0001:00011ba0       ??$?0AEAY0P@$$CBDPEBDX$0A@@?$pair@V?$basic_string@DU?$char_traits@D@std@@V?$allocator@D@2@@std@@V12@@std@@QEAA@AEAY0P@$$CBD$$QEAPEBD@Z 0000000180012ba0 f i pipeline.obj
 0001:00011c30       ??$?0AEAY0BA@$$CBDAEAY04$$CBDX$0A@@?$pair@V?$basic_string@DU?$char_traits@D@std@@V?$allocator@D@2@@std@@V12@@std@@QEAA@AEAY0BA@$$CBDAEAY04$$CBD@Z 0000000180012c30 f i pipeline.obj
 0001:00011ca0       ??$?HDU?$char_traits@D@std@@V?$allocator@D@1@@std@@YA?AV?$basic_string@DU?$char_traits@D@std@@V?$allocator@D@2@@0@PEBDAEBV10@@Z 0000000180012ca0 f i pipeline.obj
 0001:00011d20       ??$?HDU?$char_traits@D@std@@V?$allocator@D@1@@std@@YA?AV?$basic_string@DU?$char_traits@D@std@@V?$allocator@D@2@@0@$$QEAV10@AEBV10@@Z 0000000180012d20 f i pipeline.obj
 0001:00011d70       ??$AttrTo@_N@sharp@@YA_NV?$Local@VObject@v8@@@v8@@V?$basic_string@DU?$char_traits@D@std@@V?$allocator@D@2@@std@@@Z 0000000180012d70 f i pipeline.obj
 0001:00011e10       ??$AttrTo@H@sharp@@YAHV?$Local@VObject@v8@@@v8@@V?$basic_string@DU?$char_traits@D@std@@V?$allocator@D@2@@std@@@Z 0000000180012e10 f i pipeline.obj
 0001:00011eb0       ??$AttrTo@N@sharp@@YANV?$Local@VObject@v8@@@v8@@V?$basic_string@DU?$char_traits@D@std@@V?$allocator@D@2@@std@@@Z 0000000180012eb0 f i pipeline.obj
 0001:00011f50       ?reserve@?$basic_string@DU?$char_traits@D@std@@V?$allocator@D@2@@std@@QEAAX_K@Z 0000000180012f50 f i pipeline.obj
 0001:00012000       ??$?8DU?$char_traits@D@std@@V?$allocator@D@1@@std@@YA_NAEBV?$basic_string@DU?$char_traits@D@std@@V?$allocator@D@2@@0@0@Z 0000000180013000 f i pipeline.obj
 0001:00012080       ??$_For_each_unchecked@PEAPEAUInputDescriptor@sharp@@V<lambda_c3ae18baaead4f54367c36d71046f7c6>@@@std@@YAXPEAPEAUInputDescriptor@sharp@@0AEAV<lambda_c3ae18baaead4f54367c36d71046f7c6>@@@Z 0000000180013080 f i pipeline.obj
 0001:000121f0       ??$_Try_emplace@AEBW4VipsInterpretation@@$$V@?$map@W4VipsInterpretation@@V?$basic_string@DU?$char_traits@D@std@@V?$allocator@D@2@@std@@U?$less@W4VipsInterpretation@@@3@V?$allocator@U?$pair@$$CBW4VipsInterpretation@@V?$basic_string@DU?$char_traits@D@std@@V?$allocator@D@2@@std@@@std@@@3@@std@@QEAA?AU?$pair@V?$_Tree_iterator@V?$_Tree_val@U?$_Tree_simple_types@U?$pair@$$CBW4VipsInterpretation@@V?$basic_string@DU?$char_traits@D@std@@V?$allocator@D@2@@std@@@std@@@std@@@std@@@std@@_N@1@AEBW4VipsInterpretation@@@Z 00000001800131f0 f i pipeline.obj
 0001:000121f0       ??$_Try_emplace@W4VipsInterpretation@@$$V@?$map@W4VipsInterpretation@@V?$basic_string@DU?$char_traits@D@std@@V?$allocator@D@2@@std@@U?$less@W4VipsInterpretation@@@3@V?$allocator@U?$pair@$$CBW4VipsInterpretation@@V?$basic_string@DU?$char_traits@D@std@@V?$allocator@D@2@@std@@@std@@@3@@std@@QEAA?AU?$pair@V?$_Tree_iterator@V?$_Tree_val@U?$_Tree_simple_types@U?$pair@$$CBW4VipsInterpretation@@V?$basic_string@DU?$char_traits@D@std@@V?$allocator@D@2@@std@@@std@@@std@@@std@@@std@@_N@1@$$QEAW4VipsInterpretation@@@Z 00000001800131f0 f i pipeline.obj
 0001:000122f0       ??$_Assign@PEBN@?$vector@NV?$allocator@N@std@@@std@@QEAAXPEBN0Uforward_iterator_tag@1@@Z 00000001800132f0 f i pipeline.obj
 0001:000123e0       ??$_Destroy_range1@V?$allocator@U?$pair@V?$basic_string@DU?$char_traits@D@std@@V?$allocator@D@2@@std@@V12@@std@@@std@@PEAU?$pair@V?$basic_string@DU?$char_traits@D@std@@V?$allocator@D@2@@std@@V12@@2@@std@@YAXPEAU?$pair@V?$basic_string@DU?$char_traits@D@std@@V?$allocator@D@2@@std@@V12@@0@0AEAU?$_Wrap_alloc@V?$allocator@U?$pair@V?$basic_string@DU?$char_traits@D@std@@V?$allocator@D@2@@std@@V12@@std@@@std@@@0@U?$integral_constant@_N$0A@@0@@Z 00000001800133e0 f i pipeline.obj
 0001:00012520       ??$_Insert_nohint@AEAU?$pair@$$CBW4VipsInterpretation@@V?$basic_string@DU?$char_traits@D@std@@V?$allocator@D@2@@std@@@std@@PEAU?$_Tree_node@U?$pair@$$CBW4VipsInterpretation@@V?$basic_string@DU?$char_traits@D@std@@V?$allocator@D@2@@std@@@std@@PEAX@2@@?$_Tree@V?$_Tmap_traits@W4VipsInterpretation@@V?$basic_string@DU?$char_traits@D@std@@V?$allocator@D@2@@std@@U?$less@W4VipsInterpretation@@@3@V?$allocator@U?$pair@$$CBW4VipsInterpretation@@V?$basic_string@DU?$char_traits@D@std@@V?$allocator@D@2@@std@@@std@@@3@$0A@@std@@@std@@IEAA?AU?$pair@V?$_Tree_iterator@V?$_Tree_val@U?$_Tree_simple_types@U?$pair@$$CBW4VipsInterpretation@@V?$basic_string@DU?$char_traits@D@std@@V?$allocator@D@2@@std@@@std@@@std@@@std@@@std@@_N@1@_NAEAU?$pair@$$CBW4VipsInterpretation@@V?$basic_string@DU?$char_traits@D@std@@V?$allocator@D@2@@std@@@1@PEAU?$_Tree_node@U?$pair@$$CBW4VipsInterpretation@@V?$basic_string@DU?$char_traits@D@std@@V?$allocator@D@2@@std@@@std@@PEAX@1@@Z 0000000180013520 f i pipeline.obj
 0001:00012650       ?_Delete_this@?$_Func_impl@UEntropyStrategy@sharp@@V?$allocator@H@std@@NVVImage@vips@@@std@@EEAAX_N@Z 0000000180013650 f i pipeline.obj
 0001:00012650       ?_Delete_this@?$_Func_impl@UAttentionStrategy@sharp@@V?$allocator@H@std@@NVVImage@vips@@@std@@EEAAX_N@Z 0000000180013650 f i pipeline.obj
 0001:00012670       ?_Get@?$_Func_impl@UAttentionStrategy@sharp@@V?$allocator@H@std@@NVVImage@vips@@@std@@EEBAPEBXXZ 0000000180013670 f i pipeline.obj
 0001:00012670       ?_Get@?$_Func_impl@UEntropyStrategy@sharp@@V?$allocator@H@std@@NVVImage@vips@@@std@@EEBAPEBXXZ 0000000180013670 f i pipeline.obj
 0001:00012680       ?_Target_type@?$_Func_impl@UAttentionStrategy@sharp@@V?$allocator@H@std@@NVVImage@vips@@@std@@EEBAAEBVtype_info@@XZ 0000000180013680 f i pipeline.obj
 0001:00012690       ?_Do_call@?$_Func_impl@UAttentionStrategy@sharp@@V?$allocator@H@std@@NVVImage@vips@@@std@@EEAAN$$QEAVVImage@vips@@@Z 0000000180013690 f i pipeline.obj
 0001:000126b0       ?_Copy@?$_Func_impl@UAttentionStrategy@sharp@@V?$allocator@H@std@@NVVImage@vips@@@std@@EEBAPEAV?$_Func_base@NVVImage@vips@@@2@PEAX@Z 00000001800136b0 f i pipeline.obj
 0001:000126b0       ?_Move@?$_Func_impl@UAttentionStrategy@sharp@@V?$allocator@H@std@@NVVImage@vips@@@std@@EEAAPEAV?$_Func_base@NVVImage@vips@@@2@PEAX@Z 00000001800136b0 f i pipeline.obj
 0001:000126d0       ?_Target_type@?$_Func_impl@UEntropyStrategy@sharp@@V?$allocator@H@std@@NVVImage@vips@@@std@@EEBAAEBVtype_info@@XZ 00000001800136d0 f i pipeline.obj
 0001:000126e0       ?_Do_call@?$_Func_impl@UEntropyStrategy@sharp@@V?$allocator@H@std@@NVVImage@vips@@@std@@EEAAN$$QEAVVImage@vips@@@Z 00000001800136e0 f i pipeline.obj
 0001:00012750       ?_Move@?$_Func_impl@UEntropyStrategy@sharp@@V?$allocator@H@std@@NVVImage@vips@@@std@@EEAAPEAV?$_Func_base@NVVImage@vips@@@2@PEAX@Z 0000000180013750 f i pipeline.obj
 0001:00012750       ?_Copy@?$_Func_impl@UEntropyStrategy@sharp@@V?$allocator@H@std@@NVVImage@vips@@@std@@EEBAPEAV?$_Func_base@NVVImage@vips@@@2@PEAX@Z 0000000180013750 f i pipeline.obj
 0001:00012770       ??$_Insert_at@AEAU?$pair@$$CBW4VipsInterpretation@@V?$basic_string@DU?$char_traits@D@std@@V?$allocator@D@2@@std@@@std@@PEAU?$_Tree_node@U?$pair@$$CBW4VipsInterpretation@@V?$basic_string@DU?$char_traits@D@std@@V?$allocator@D@2@@std@@@std@@PEAX@2@@?$_Tree@V?$_Tmap_traits@W4VipsInterpretation@@V?$basic_string@DU?$char_traits@D@std@@V?$allocator@D@2@@std@@U?$less@W4VipsInterpretation@@@3@V?$allocator@U?$pair@$$CBW4VipsInterpretation@@V?$basic_string@DU?$char_traits@D@std@@V?$allocator@D@2@@std@@@std@@@3@$0A@@std@@@std@@IEAA?AV?$_Tree_iterator@V?$_Tree_val@U?$_Tree_simple_types@U?$pair@$$CBW4VipsInterpretation@@V?$basic_string@DU?$char_traits@D@std@@V?$allocator@D@2@@std@@@std@@@std@@@std@@@1@_NPEAU?$_Tree_node@U?$pair@$$CBW4VipsInterpretation@@V?$basic_string@DU?$char_traits@D@std@@V?$allocator@D@2@@std@@@std@@PEAX@1@AEAU?$pair@$$CBW4VipsInterpretation@@V?$basic_string@DU?$char_traits@D@std@@V?$allocator@D@2@@std@@@1@1@Z 0000000180013770 f i pipeline.obj
 0001:00012a20       ??$_Insert_hint@AEAU?$pair@$$CBW4VipsInterpretation@@V?$basic_string@DU?$char_traits@D@std@@V?$allocator@D@2@@std@@@std@@PEAU?$_Tree_node@U?$pair@$$CBW4VipsInterpretation@@V?$basic_string@DU?$char_traits@D@std@@V?$allocator@D@2@@std@@@std@@PEAX@2@@?$_Tree@V?$_Tmap_traits@W4VipsInterpretation@@V?$basic_string@DU?$char_traits@D@std@@V?$allocator@D@2@@std@@U?$less@W4VipsInterpretation@@@3@V?$allocator@U?$pair@$$CBW4VipsInterpretation@@V?$basic_string@DU?$char_traits@D@std@@V?$allocator@D@2@@std@@@std@@@3@$0A@@std@@@std@@IEAA?AV?$_Tree_iterator@V?$_Tree_val@U?$_Tree_simple_types@U?$pair@$$CBW4VipsInterpretation@@V?$basic_string@DU?$char_traits@D@std@@V?$allocator@D@2@@std@@@std@@@std@@@std@@@1@V?$_Tree_const_iterator@V?$_Tree_val@U?$_Tree_simple_types@U?$pair@$$CBW4VipsInterpretation@@V?$basic_string@DU?$char_traits@D@std@@V?$allocator@D@2@@std@@@std@@@std@@@std@@@1@AEAU?$pair@$$CBW4VipsInterpretation@@V?$basic_string@DU?$char_traits@D@std@@V?$allocator@D@2@@std@@@1@PEAU?$_Tree_node@U?$pair@$$CBW4VipsInterpretation@@V?$basic_string@DU?$char_traits@D@std@@V?$allocator@D@2@@std@@@std@@PEAX@1@@Z 0000000180013a20 f i pipeline.obj
 0001:00012c70       ??$_Uninitialized_copy_al_unchecked1@PEBU?$pair@V?$basic_string@DU?$char_traits@D@std@@V?$allocator@D@2@@std@@V12@@std@@PEAU12@V?$allocator@U?$pair@V?$basic_string@DU?$char_traits@D@std@@V?$allocator@D@2@@std@@V12@@std@@@2@@std@@YAPEAU?$pair@V?$basic_string@DU?$char_traits@D@std@@V?$allocator@D@2@@std@@V12@@0@PEBU10@0PEAU10@AEAU?$_Wrap_alloc@V?$allocator@U?$pair@V?$basic_string@DU?$char_traits@D@std@@V?$allocator@D@2@@std@@V12@@std@@@std@@@0@U_General_ptr_iterator_tag@0@U_Any_tag@0@@Z 0000000180013c70 f i pipeline.obj
 0001:00012df0       ?NewInstance@Nan@@YA?AV?$MaybeLocal@VObject@v8@@@v8@@V?$Local@VObjectTemplate@v8@@@3@@Z 0000000180013df0 f i sharp.obj
 0001:00012e70       ?GetFunction@Nan@@YA?AV?$MaybeLocal@VFunction@v8@@@v8@@V?$Local@VFunctionTemplate@v8@@@3@@Z 0000000180013e70 f i sharp.obj
 0001:00012ef0       ?New@?$Factory@VFunctionTemplate@v8@@@imp@Nan@@SA?AV?$Local@VFunctionTemplate@v8@@@v8@@P6AXAEBV?$FunctionCallbackInfo@VValue@v8@@@3@@ZV?$Local@VValue@v8@@@5@V?$Local@VSignature@v8@@@5@@Z 0000000180013ef0 f i sharp.obj
 0001:00013070       ?init@@YAXV?$Local@VObject@v8@@@v8@@@Z 0000000180014070 f   sharp.obj
 0001:00013510       ?convert@?$ToFactory@VInteger@v8@@@imp@Nan@@SA?AV?$MaybeLocal@VInteger@v8@@@v8@@V?$Local@VValue@v8@@@5@@Z 0000000180014510 f i utilities.obj
 0001:00013590       ?ThrowError@Nan@@YAXPEBD@Z 0000000180014590 f i utilities.obj
 0001:00013630       ?cache@@YAXAEBV?$FunctionCallbackInfo@VValue@v8@@@Nan@@@Z 0000000180014630 f   utilities.obj
 0001:00013ca0       ?concurrency@@YAXAEBV?$FunctionCallbackInfo@VValue@v8@@@Nan@@@Z 0000000180014ca0 f   utilities.obj
 0001:00013d90       ?counters@@YAXAEBV?$FunctionCallbackInfo@VValue@v8@@@Nan@@@Z 0000000180014d90 f   utilities.obj
 0001:00013f30       ?simd@@YAXAEBV?$FunctionCallbackInfo@VValue@v8@@@Nan@@@Z 0000000180014f30 f   utilities.obj
 0001:00014000       ?libvipsVersion@@YAXAEBV?$FunctionCallbackInfo@VValue@v8@@@Nan@@@Z 0000000180015000 f   utilities.obj
 0001:00014100       ?format@@YAXAEBV?$FunctionCallbackInfo@VValue@v8@@@Nan@@@Z 0000000180015100 f   utilities.obj
 0001:000149f0       ?_maxColourDistance@@YAXAEBV?$FunctionCallbackInfo@VValue@v8@@@Nan@@@Z 00000001800159f0 f   utilities.obj
 0001:00014eae       ??0VError@vips@@QEAA@AEBV01@@Z 0000000180015eae f   libvips-cpp:libvips-cpp.dll
 0001:00014eb4       ??1VError@vips@@UEAA@XZ    0000000180015eb4 f   libvips-cpp:libvips-cpp.dll
 0001:00014ebc       ??0bad_alloc@std@@QEAA@AEBV01@@Z 0000000180015ebc f i libcpmt:xthrow.obj
 0001:00014efc       ??0bad_alloc@std@@QEAA@XZ  0000000180015efc f i libcpmt:xthrow.obj
 0001:00014f1c       ??0bad_function_call@std@@QEAA@AEBV01@@Z 0000000180015f1c f i libcpmt:xthrow.obj
 0001:00014f5c       ??0bad_function_call@std@@QEAA@XZ 0000000180015f5c f i libcpmt:xthrow.obj
 0001:00014f74       ??0exception@std@@QEAA@AEBV01@@Z 0000000180015f74 f i libcpmt:xthrow.obj
 0001:00014fac       ??0length_error@std@@QEAA@AEBV01@@Z 0000000180015fac f i libcpmt:xthrow.obj
 0001:00014fec       ??0length_error@std@@QEAA@PEBD@Z 0000000180015fec f i libcpmt:xthrow.obj
 0001:00015038       ??0logic_error@std@@QEAA@AEBV01@@Z 0000000180016038 f i libcpmt:xthrow.obj
 0001:00015078       ??0out_of_range@std@@QEAA@AEBV01@@Z 0000000180016078 f i libcpmt:xthrow.obj
 0001:000150b8       ??0out_of_range@std@@QEAA@PEBD@Z 00000001800160b8 f i libcpmt:xthrow.obj
 0001:00015104       ??1out_of_range@std@@UEAA@XZ 0000000180016104 f i libcpmt:xthrow.obj
 0001:00015104       ??1length_error@std@@UEAA@XZ 0000000180016104 f i libcpmt:xthrow.obj
 0001:00015104       ??1bad_alloc@std@@UEAA@XZ  0000000180016104 f i libcpmt:xthrow.obj
 0001:00015104       ??1bad_exception@std@@UEAA@XZ 0000000180016104 f i libvcruntime:frame.obj
 0001:00015104       ??1bad_array_new_length@std@@UEAA@XZ 0000000180016104 f i LIBCMT:throw_bad_alloc.obj
 0001:00015104       ??1bad_function_call@std@@UEAA@XZ 0000000180016104 f i libcpmt:xthrow.obj
 0001:00015118       ??_Glength_error@std@@UEAAPEAXI@Z 0000000180016118 f i libcpmt:xthrow.obj
 0001:00015118       ??_Elogic_error@std@@UEAAPEAXI@Z 0000000180016118 f i libcpmt:xthrow.obj
 0001:00015118       ??_Elength_error@std@@UEAAPEAXI@Z 0000000180016118 f i libcpmt:xthrow.obj
 0001:00015118       ??_Gexception@std@@UEAAPEAXI@Z 0000000180016118 f i libcpmt:xthrow.obj
 0001:00015118       ??_Eout_of_range@std@@UEAAPEAXI@Z 0000000180016118 f i libcpmt:xthrow.obj
 0001:00015118       ??_Gout_of_range@std@@UEAAPEAXI@Z 0000000180016118 f i libcpmt:xthrow.obj
 0001:00015118       ??_Eexception@std@@UEAAPEAXI@Z 0000000180016118 f i libcpmt:xthrow.obj
 0001:00015118       ??_Gbad_exception@std@@UEAAPEAXI@Z 0000000180016118 f i libvcruntime:frame.obj
 0001:00015118       ??_Ebad_array_new_length@std@@UEAAPEAXI@Z 0000000180016118 f i LIBCMT:throw_bad_alloc.obj
 0001:00015118       ??_Ebad_exception@std@@UEAAPEAXI@Z 0000000180016118 f i libvcruntime:frame.obj
 0001:00015118       ??_Glogic_error@std@@UEAAPEAXI@Z 0000000180016118 f i libcpmt:xthrow.obj
 0001:00015118       ??_Gbad_alloc@std@@UEAAPEAXI@Z 0000000180016118 f i libcpmt:xthrow.obj
 0001:00015118       ??_Gbad_array_new_length@std@@UEAAPEAXI@Z 0000000180016118 f i LIBCMT:throw_bad_alloc.obj
 0001:00015118       ??_Gbad_function_call@std@@UEAAPEAXI@Z 0000000180016118 f i libcpmt:xthrow.obj
 0001:00015118       ??_Ebad_function_call@std@@UEAAPEAXI@Z 0000000180016118 f i libcpmt:xthrow.obj
 0001:00015118       ??_Ebad_alloc@std@@UEAAPEAXI@Z 0000000180016118 f i libcpmt:xthrow.obj
 0001:0001515c       ?_Xbad_function_call@std@@YAXXZ 000000018001615c f   libcpmt:xthrow.obj
 0001:0001517c       ?_Xlength_error@std@@YAXPEBD@Z 000000018001617c f   libcpmt:xthrow.obj
 0001:000151a0       ?_Xout_of_range@std@@YAXPEBD@Z 00000001800161a0 f   libcpmt:xthrow.obj
 0001:000151c4       ?what@bad_function_call@std@@UEBAPEBDXZ 00000001800161c4 f i libcpmt:xthrow.obj
 0001:000151cc       ?what@exception@std@@UEBAPEBDXZ 00000001800161cc f i libcpmt:xthrow.obj
 0001:000151f0       __security_check_cookie    00000001800161f0 f   LIBCMT:_amdsecgs_.obj
 0001:00015214       ??2@YAPEAX_K@Z             0000000180016214 f   LIBCMT:new_scalar.obj
 0001:00015250       ??3@YAXPEAX@Z              0000000180016250 f   LIBCMT:delete_scalar.obj
 0001:00015258       ??_V@YAXPEAX@Z             0000000180016258 f   LIBCMT:delete_array.obj
 0001:00015258       ??3@YAXPEAX_K@Z            0000000180016258 f   LIBCMT:delete_scalar_size.obj
 0001:00015260       ??_Etype_info@@UEAAPEAXI@Z 0000000180016260 f i LIBCMT:std_type_info_static.obj
 0001:00015260       ??_Gtype_info@@UEAAPEAXI@Z 0000000180016260 f i LIBCMT:std_type_info_static.obj
 0001:0001528c       ??_M@YAXPEAX_K1P6AX0@Z@Z   000000018001628c f   LIBCMT:ehvecdtr.obj
 0001:000152f8       ?__ArrayUnwind@@YAXPEAX_K1P6AX0@Z@Z 00000001800162f8 f   LIBCMT:ehvecdtr.obj
 0001:0001535c       ??_U@YAPEAX_K@Z            000000018001635c f   LIBCMT:new_array.obj
 0001:000156b0       _DllMainCRTStartup         00000001800166b0 f   LIBCMT:dll_dllmain.obj
 0001:000156f0       __raise_securityfailure    00000001800166f0 f   LIBCMT:gs_report.obj
 0001:00015724       __report_gsfailure         0000000180016724 f   LIBCMT:gs_report.obj
 0001:000157f8       __report_rangecheckfailure 00000001800167f8 f   LIBCMT:gs_report.obj
 0001:0001580c       __report_securityfailure   000000018001680c f   LIBCMT:gs_report.obj
 0001:0001598c       ??0bad_array_new_length@std@@QEAA@AEBV01@@Z 000000018001698c f i LIBCMT:throw_bad_alloc.obj
 0001:000159cc       ??0bad_array_new_length@std@@QEAA@XZ 00000001800169cc f i LIBCMT:throw_bad_alloc.obj
 0001:000159ec       ?__scrt_throw_std_bad_alloc@@YAXXZ 00000001800169ec f   LIBCMT:throw_bad_alloc.obj
 0001:000159ec       ?_Xbad_alloc@std@@YAXXZ    00000001800169ec f   libcpmt:xthrow.obj
 0001:00015a0c       ?__scrt_throw_std_bad_array_new_length@@YAXXZ 0000000180016a0c f   LIBCMT:throw_bad_alloc.obj
 0001:00015a2c       _guard_check_icall         0000000180016a2c f i LIBCMT:checkcfg.obj
 0001:00015a34       __scrt_acquire_startup_lock 0000000180016a34 f   LIBCMT:utility.obj
 0001:00015a70       __scrt_dllmain_after_initialize_c 0000000180016a70 f   LIBCMT:utility.obj
 0001:00015aa4       __scrt_dllmain_before_initialize_c 0000000180016aa4 f   LIBCMT:utility.obj
 0001:00015abc       __scrt_dllmain_crt_thread_attach 0000000180016abc f   LIBCMT:utility.obj
 0001:00015ae4       __scrt_dllmain_crt_thread_detach 0000000180016ae4 f   LIBCMT:utility.obj
 0001:00015afc       __scrt_dllmain_exception_filter 0000000180016afc f   LIBCMT:utility.obj
 0001:00015b60       __scrt_dllmain_uninitialize_c 0000000180016b60 f   LIBCMT:utility.obj
 0001:00015b90       __scrt_dllmain_uninitialize_critical 0000000180016b90 f   LIBCMT:utility.obj
 0001:00015ba4       __scrt_initialize_crt      0000000180016ba4 f   LIBCMT:utility.obj
 0001:00015bf0       __scrt_initialize_onexit_tables 0000000180016bf0 f   LIBCMT:utility.obj
 0001:00015cbc       __scrt_is_nonwritable_in_current_image 0000000180016cbc f   LIBCMT:utility.obj
 0001:00015d58       __scrt_release_startup_lock 0000000180016d58 f   LIBCMT:utility.obj
 0001:00015d7c       __scrt_uninitialize_crt    0000000180016d7c f   LIBCMT:utility.obj
 0001:00015da8       _onexit                    0000000180016da8 f   LIBCMT:utility.obj
 0001:00015df8       atexit                     0000000180016df8 f   LIBCMT:utility.obj
 0001:00015e10       __security_init_cookie     0000000180016e10 f   LIBCMT:gs_support.obj
 0001:00015ebc       DllMain                    0000000180016ebc f   LIBCMT:dll_dllmain_stub.obj
 0001:00015ebc       _get_startup_argv_mode     0000000180016ebc f   LIBCMT:argv_mode.obj
 0001:00015ec4       ?__scrt_initialize_type_info@@YAXXZ 0000000180016ec4 f   LIBCMT:tncleanup.obj
 0001:00015ed4       ?__scrt_uninitialize_type_info@@YAXXZ 0000000180016ed4 f   LIBCMT:tncleanup.obj
 0001:00015ee0       __local_stdio_printf_options 0000000180016ee0 f i LIBCMT:default_local_stdio_options.obj
 0001:00015ee8       __local_stdio_scanf_options 0000000180016ee8 f i LIBCMT:default_local_stdio_options.obj
 0001:00015ef0       __scrt_initialize_default_local_stdio_options 0000000180016ef0 f   LIBCMT:default_local_stdio_options.obj
 0001:00015f0c       __scrt_get_dyn_tls_init_callback 0000000180016f0c f   LIBCMT:dyn_tls_init.obj
 0001:00015f14       __crt_debugger_hook        0000000180016f14 f   LIBCMT:utility_desktop.obj
 0001:00015f1c       __scrt_fastfail            0000000180016f1c f   LIBCMT:utility_desktop.obj
 0001:00016064       _RTC_Initialize            0000000180017064 f   LIBCMT:_initsect_.obj
 0001:000160b0       _RTC_Terminate             00000001800170b0 f   LIBCMT:_initsect_.obj
 0001:000160fc       __isa_available_init       00000001800170fc f   LIBCMT:_cpu_disp_.obj
 0001:000162c4       __scrt_is_ucrt_dll_in_use  00000001800172c4 f   LIBCMT:ucrt_detection.obj
 0001:000162e0       memcpy                     00000001800172e0 f   libvcruntime:memcpy.obj
 0001:000162e0       memmove                    00000001800172e0 f   libvcruntime:memcpy.obj
 0001:00016718       __DestructExceptionObject  0000000180017718 f   libvcruntime:frame.obj
 0001:000167a0       ??0bad_exception@std@@QEAA@AEBV01@@Z 00000001800177a0 f i libvcruntime:frame.obj
 0001:000167e0       ??0bad_exception@std@@QEAA@XZ 00000001800177e0 f i libvcruntime:frame.obj
 0001:0001715c       ?_CallMemberFunction0@@YAXPEAXP6AX0@Z@Z 000000018001815c f i libvcruntime:frame.obj
 0001:00017160       ?_CallMemberFunction1@@YAXPEAXP6AX0@Z0@Z 0000000180018160 f i libvcruntime:frame.obj
 0001:0001716c       ?_CallMemberFunction2@@YAXPEAXP6AX0@Z0H@Z 000000018001816c f i libvcruntime:frame.obj
 0001:0001717c       __AdjustPointer            000000018001817c f   libvcruntime:frame.obj
 0001:000171a0       __BuildCatchObject         00000001800181a0 f   libvcruntime:frame.obj
 0001:00017264       __BuildCatchObjectHelper   0000000180018264 f   libvcruntime:frame.obj
 0001:00017444       __CxxCallCatchBlock        0000000180018444 f   libvcruntime:frame.obj
 0001:00017630       __FrameUnwindFilter        0000000180018630 f   libvcruntime:frame.obj
 0001:0001767c       __FrameUnwindToState       000000018001867c f   libvcruntime:frame.obj
 0001:00017810       __InternalCxxFrameHandler  0000000180018810 f   libvcruntime:frame.obj
 0001:00017a68       __TypeMatch                0000000180018a68 f   libvcruntime:frame.obj
 0001:00017ba8       __std_terminate            0000000180018ba8 f   libvcruntime:frame.obj
 0001:00017bb4       _purecall                  0000000180018bb4 f   libvcruntime:purevirt.obj
 0001:00017bf0       __std_exception_copy       0000000180018bf0 f   libvcruntime:std_exception.obj
 0001:00017c80       __std_exception_destroy    0000000180018c80 f   libvcruntime:std_exception.obj
 0001:00017ca8       _CxxThrowException         0000000180018ca8 f   libvcruntime:throw.obj
 0001:00017d80       __C_specific_handler       0000000180018d80 f   libvcruntime:_chandler_.obj
 0001:00017f7c       __vcrt_initialize          0000000180018f7c f   libvcruntime:initialization.obj
 0001:00017fb0       __vcrt_thread_attach       0000000180018fb0 f   libvcruntime:initialization.obj
 0001:00017fc4       __vcrt_thread_detach       0000000180018fc4 f   libvcruntime:initialization.obj
 0001:00017fd8       __vcrt_uninitialize        0000000180018fd8 f   libvcruntime:initialization.obj
 0001:00017ff8       __vcrt_uninitialize_critical 0000000180018ff8 f   libvcruntime:initialization.obj
 0001:00018008       __std_type_info_compare    0000000180019008 f   libvcruntime:std_type_info.obj
 0001:00018030       __std_type_info_destroy_list 0000000180019030 f   libvcruntime:std_type_info.obj
 0001:00018070       memset                     0000000180019070 f   libvcruntime:memset.obj
 0001:00018210       __vcrt_freefls             0000000180019210 f   libvcruntime:per_thread_data.obj
 0001:00018230       __vcrt_freeptd             0000000180019230 f   libvcruntime:per_thread_data.obj
 0001:00018280       __vcrt_getptd              0000000180019280 f   libvcruntime:per_thread_data.obj
 0001:0001829c       __vcrt_getptd_noexit       000000018001929c f   libvcruntime:per_thread_data.obj
 0001:00018354       __vcrt_initialize_ptd      0000000180019354 f   libvcruntime:per_thread_data.obj
 0001:00018394       __vcrt_uninitialize_ptd    0000000180019394 f   libvcruntime:per_thread_data.obj
 0001:000183b8       ?__GetCurrentState@@YAHPEA_KPEAU_xDISPATCHER_CONTEXT@@PEBU_s_FuncInfo@@@Z 00000001800193b8 f   libvcruntime:ehstate.obj
 0001:000183e0       ?__GetUnwindTryBlock@@YAHPEA_KPEAU_xDISPATCHER_CONTEXT@@PEBU_s_FuncInfo@@@Z 00000001800193e0 f   libvcruntime:ehstate.obj
 0001:0001840c       ?__SetState@@YAXPEA_KPEAU_xDISPATCHER_CONTEXT@@PEBU_s_FuncInfo@@H@Z 000000018001940c f   libvcruntime:ehstate.obj
 0001:00018418       ?__SetUnwindTryBlock@@YAXPEA_KPEAU_xDISPATCHER_CONTEXT@@PEBU_s_FuncInfo@@H@Z 0000000180019418 f   libvcruntime:ehstate.obj
 0001:00018454       ?__StateFromControlPc@@YAHPEBU_s_FuncInfo@@PEAU_xDISPATCHER_CONTEXT@@@Z 0000000180019454 f   libvcruntime:ehstate.obj
 0001:0001845c       ?__StateFromIp@@YAHPEBU_s_FuncInfo@@PEAU_xDISPATCHER_CONTEXT@@_J@Z 000000018001945c f   libvcruntime:ehstate.obj
 0001:000184e0       _CallSettingFrame          00000001800194e0 f   libvcruntime:handlers.obj
 0001:00018520       ?_ExecutionInCatch@@YAHPEAU_xDISPATCHER_CONTEXT@@PEBU_s_FuncInfo@@@Z 0000000180019520 f   libvcruntime:trnsctrl.obj
 0001:00018594       ?_GetEstablisherFrame@@YAPEA_KPEA_KPEAU_xDISPATCHER_CONTEXT@@PEBU_s_FuncInfo@@0@Z 0000000180019594 f   libvcruntime:trnsctrl.obj
 0001:00018660       ?_GetRangeOfTrysToCheck@@YAPEBU_s_TryBlockMapEntry@@PEA_KPEBU_s_FuncInfo@@HHPEAI2PEAU_xDISPATCHER_CONTEXT@@@Z 0000000180019660 f   libvcruntime:trnsctrl.obj
 0001:0001878c       ?__FrameUnwindToEmptyState@@YAXPEA_KPEAU_xDISPATCHER_CONTEXT@@PEBU_s_FuncInfo@@@Z 000000018001978c f   libvcruntime:trnsctrl.obj
 0001:00018820       ?__SehTransFilter@@YAHPEAU_EXCEPTION_POINTERS@@PEAUEHExceptionRecord@@PEA_KPEAU_CONTEXT@@PEAU_xDISPATCHER_CONTEXT@@PEBU_s_FuncInfo@@PEAH@Z 0000000180019820 f   libvcruntime:trnsctrl.obj
 0001:000188b8       _CallSETranslator          00000001800198b8 f   libvcruntime:trnsctrl.obj
 0001:00018910       _CreateFrameInfo           0000000180019910 f   libvcruntime:trnsctrl.obj
 0001:0001894c       _FindAndUnlinkFrame        000000018001994c f   libvcruntime:trnsctrl.obj
 0001:000189a4       _GetImageBase              00000001800199a4 f   libvcruntime:trnsctrl.obj
 0001:000189b8       _GetThrowImageBase         00000001800199b8 f   libvcruntime:trnsctrl.obj
 0001:000189cc       _IsExceptionObjectToBeDestroyed 00000001800199cc f   libvcruntime:trnsctrl.obj
 0001:000189fc       _SetImageBase              00000001800199fc f   libvcruntime:trnsctrl.obj
 0001:00018a14       _SetThrowImageBase         0000000180019a14 f   libvcruntime:trnsctrl.obj
 0001:00018a2c       _UnwindNestedFrames        0000000180019a2c f   libvcruntime:trnsctrl.obj
 0001:00018b50       __CxxFrameHandler3         0000000180019b50 f   libvcruntime:trnsctrl.obj
 0001:00018be0       _local_unwind              0000000180019be0 f   libvcruntime:_jmpuwind_.obj
 0001:00018c10       _NLG_Notify                0000000180019c10 f   libvcruntime:_jmpuwind_.obj
 0001:00018c30       __NLG_Dispatch2            0000000180019c30 f   libvcruntime:_jmpuwind_.obj
 0001:00018c40       __NLG_Return2              0000000180019c40 f   libvcruntime:_jmpuwind_.obj
 0001:00018c44       __vcrt_initialize_pure_virtual_call_handler 0000000180019c44 f   libvcruntime:purevirt_data.obj
 0001:00018c68       __vcrt_initialize_locks    0000000180019c68 f   libvcruntime:locks.obj
 0001:00018cb0       __vcrt_uninitialize_locks  0000000180019cb0 f   libvcruntime:locks.obj
 0001:00018eb0       __vcrt_FlsAlloc            0000000180019eb0 f   libvcruntime:winapi_downlevel.obj
 0001:00018f04       __vcrt_FlsFree             0000000180019f04 f   libvcruntime:winapi_downlevel.obj
 0001:00018f58       __vcrt_FlsGetValue         0000000180019f58 f   libvcruntime:winapi_downlevel.obj
 0001:00018fac       __vcrt_FlsSetValue         0000000180019fac f   libvcruntime:winapi_downlevel.obj
 0001:00019014       __vcrt_InitializeCriticalSectionEx 000000018001a014 f   libvcruntime:winapi_downlevel.obj
 0001:0001908c       __vcrt_initialize_winapi_thunks 000000018001a08c f   libvcruntime:winapi_downlevel.obj
 0001:000190d8       __vcrt_uninitialize_winapi_thunks 000000018001a0d8 f   libvcruntime:winapi_downlevel.obj
 0001:00019118       free                       000000018001a118 f   libucrt:free.obj
 0001:00019120       round                      000000018001a120 f   libucrt:round.obj
 0001:00019b70       ??$ftprintf@PEAU_iobuf@@PEB_WAEBQEB_WAEBQEB_WAEBI@?$__crt_char_traits@_W@@SAH$$QEAPEAU_iobuf@@$$QEAPEB_WAEBQEB_W2AEBI@Z 000000018001ab70 f i libucrt:assert.obj
 0001:00019b98       _wassert                   000000018001ab98 f   libucrt:assert.obj
 0001:00019c1c       fwprintf                   000000018001ac1c f i libucrt:assert.obj
 0001:00019c60       swprintf                   000000018001ac60 f i libucrt:assert.obj
 0001:00019cb4       __acrt_call_reportfault    000000018001acb4 f   libucrt:invalid_parameter.obj
 0001:00019e10       __acrt_initialize_invalid_parameter_handler 000000018001ae10 f   libucrt:invalid_parameter.obj
 0001:00019e18       _invalid_parameter         000000018001ae18 f   libucrt:invalid_parameter.obj
 0001:00019ec0       _invalid_parameter_noinfo  000000018001aec0 f   libucrt:invalid_parameter.obj
 0001:00019ee0       _invalid_parameter_noinfo_noreturn 000000018001aee0 f   libucrt:invalid_parameter.obj
 0001:00019f10       _invoke_watson             000000018001af10 f   libucrt:invalid_parameter.obj
 0001:00019f58       malloc                     000000018001af58 f   libucrt:malloc.obj
 0001:00019f60       ??0_LocaleUpdate@@QEAA@QEAU__crt_locale_pointers@@@Z 000000018001af60 f i libucrt:stricmp.obj
 0001:00019ff0       __acrt_initialize_new_handler 000000018001aff0 f   libucrt:new_handler.obj
 0001:00019ff8       _callnewh                  000000018001aff8 f   libucrt:new_handler.obj
 0001:0001a038       _query_new_handler         000000018001b038 f   libucrt:new_handler.obj
 0001:0001a06c       terminate                  000000018001b06c f   libucrt:terminate.obj
 0001:0001a094       _initterm                  000000018001b094 f   libucrt:initterm.obj
 0001:0001a10c       _initterm_e                000000018001b10c f   libucrt:initterm.obj
 0001:0001a158       _seh_filter_dll            000000018001b158 f   libucrt:exception_filter.obj
 0001:0001a16c       _seh_filter_exe            000000018001b16c f   libucrt:exception_filter.obj
 0001:0001a52c       __acrt_initialize_thread_local_exit_callback 000000018001b52c f   libucrt:exit.obj
 0001:0001a534       _cexit                     000000018001b534 f   libucrt:exit.obj
 0001:0001a544       _exit                      000000018001b544 f   libucrt:exit.obj
 0001:0001a550       _is_c_termination_complete 000000018001b550 f   libucrt:exit.obj
 0001:0001a714       __acrt_allocate_buffer_for_argv 000000018001b714 f   libucrt:argv_parsing.obj
 0001:0001a778       _configure_narrow_argv     000000018001b778 f   libucrt:argv_parsing.obj
 0001:0001aad4       __dcrt_uninitialize_environments_nolock 000000018001bad4 f   libucrt:environment_initialization.obj
 0001:0001ab0c       _initialize_narrow_environment 000000018001bb0c f   libucrt:environment_initialization.obj
 0001:0001ab14       ??$?RV<lambda_b8c45f8f788dd370798f47cfe8ac3a86>@@AEAV<lambda_4e60a939b0d047cfe11ddc22648dfba9>@@V<lambda_332c3edc96d0294ec56c57d38c1cdfd5>@@@?$__crt_seh_guarded_call@H@@QEAAH$$QEAV<lambda_b8c45f8f788dd370798f47cfe8ac3a86>@@AEAV<lambda_4e60a939b0d047cfe11ddc22648dfba9>@@$$QEAV<lambda_332c3edc96d0294ec56c57d38c1cdfd5>@@@Z 000000018001bb14 f i libucrt:onexit.obj
 0001:0001ab50       ??$?RV<lambda_e24bbb7b643b32fcea6fa61b31d4c984>@@AEAV<lambda_275893d493268fdec8709772e3fcec0e>@@V<lambda_9d71df4d7cf3f480f8d633942495c3b0>@@@?$__crt_seh_guarded_call@H@@QEAAH$$QEAV<lambda_e24bbb7b643b32fcea6fa61b31d4c984>@@AEAV<lambda_275893d493268fdec8709772e3fcec0e>@@$$QEAV<lambda_9d71df4d7cf3f480f8d633942495c3b0>@@@Z 000000018001bb50 f i libucrt:onexit.obj
 0001:0001aecc       _crt_atexit                000000018001becc f   libucrt:onexit.obj
 0001:0001aedc       _execute_onexit_table      000000018001bedc f   libucrt:onexit.obj
 0001:0001af18       _initialize_onexit_table   000000018001bf18 f   libucrt:onexit.obj
 0001:0001af58       _register_onexit_function  000000018001bf58 f   libucrt:onexit.obj
 0001:0001afd8       __acrt_uninitialize_command_line 000000018001bfd8 f   libucrt:argv_data.obj
 0001:0001b0d8       __acrt_initialize          000000018001c0d8 f   libucrt:initialization.obj
 0001:0001b0ec       __acrt_thread_attach       000000018001c0ec f   libucrt:initialization.obj
 0001:0001b100       __acrt_thread_detach       000000018001c100 f   libucrt:initialization.obj
 0001:0001b110       __acrt_uninitialize        000000018001c110 f   libucrt:initialization.obj
 0001:0001b124       __acrt_uninitialize_critical 000000018001c124 f   libucrt:initialization.obj
 0001:0001b134       abort                      000000018001c134 f   libucrt:abort.obj
 0001:0001b18c       strcpy_s                   000000018001c18c f   libucrt:strcpy_s.obj
 0001:0001b1ec       _free_base                 000000018001c1ec f   libucrt:free_base.obj
 0001:0001b22c       _malloc_base               000000018001c22c f   libucrt:malloc_base.obj
 0001:0001b28c       _calloc_base               000000018001c28c f   libucrt:calloc_base.obj
 0001:0001b304       ??$?RV<lambda_7b91131dde12e1c3dfc74ff76b3f2eac>@@AEAV<lambda_dd75445284c072d0bd3768540cc698fa>@@V<lambda_16bc4ecb55b4718497c16bceaea2ceaf>@@@?$__crt_seh_guarded_call@H@@QEAAH$$QEAV<lambda_7b91131dde12e1c3dfc74ff76b3f2eac>@@AEAV<lambda_dd75445284c072d0bd3768540cc698fa>@@$$QEAV<lambda_16bc4ecb55b4718497c16bceaea2ceaf>@@@Z 000000018001c304 f i libucrt:output.obj
 0001:0001b344       ??$ensure_buffer_is_big_enough@D@formatting_buffer@__crt_stdio_output@@QEAA_N_K@Z 000000018001c344 f i libucrt:output.obj
 0001:0001b3f0       ??$is_wide_character_specifier@_W@__crt_stdio_output@@YA_N_K_WW4length_modifier@0@@Z 000000018001c3f0 f i libucrt:output.obj
 0001:0001b434       ??$type_case_integer_parse_into_buffer@I@?$output_processor@_WV?$stream_output_adapter@_W@__crt_stdio_output@@V?$standard_base@_WV?$stream_output_adapter@_W@__crt_stdio_output@@@2@@__crt_stdio_output@@AEAAXII_N@Z 000000018001c434 f i libucrt:output.obj
 0001:0001b434       ??$type_case_integer_parse_into_buffer@I@?$output_processor@_WV?$string_output_adapter@_W@__crt_stdio_output@@V?$standard_base@_WV?$string_output_adapter@_W@__crt_stdio_output@@@2@@__crt_stdio_output@@AEAAXII_N@Z 000000018001c434 f i libucrt:output.obj
 0001:0001b4d0       ??$type_case_integer_parse_into_buffer@_K@?$output_processor@_WV?$string_output_adapter@_W@__crt_stdio_output@@V?$standard_base@_WV?$string_output_adapter@_W@__crt_stdio_output@@@2@@__crt_stdio_output@@AEAAX_KI_N@Z 000000018001c4d0 f i libucrt:output.obj
 0001:0001b4d0       ??$type_case_integer_parse_into_buffer@_K@?$output_processor@_WV?$stream_output_adapter@_W@__crt_stdio_output@@V?$standard_base@_WV?$stream_output_adapter@_W@__crt_stdio_output@@@2@@__crt_stdio_output@@AEAAX_KI_N@Z 000000018001c4d0 f i libucrt:output.obj
 0001:0001b56c       ??$write_multiple_characters@V?$stream_output_adapter@_W@__crt_stdio_output@@D@__crt_stdio_output@@YAXAEBV?$stream_output_adapter@_W@0@DHQEAH@Z 000000018001c56c f i libucrt:output.obj
 0001:0001b5fc       ??$write_multiple_characters@V?$string_output_adapter@_W@__crt_stdio_output@@D@__crt_stdio_output@@YAXAEBV?$string_output_adapter@_W@0@DHQEAH@Z 000000018001c5fc f i libucrt:output.obj
 0001:0001b66c       ??0?$output_processor@_WV?$string_output_adapter@_W@__crt_stdio_output@@V?$standard_base@_WV?$string_output_adapter@_W@__crt_stdio_output@@@2@@__crt_stdio_output@@QEAA@AEBV?$string_output_adapter@_W@1@_KQEB_WQEAU__crt_locale_pointers@@QEAD@Z 000000018001c66c f i libucrt:output.obj
 0001:0001b66c       ??0?$output_processor@_WV?$stream_output_adapter@_W@__crt_stdio_output@@V?$standard_base@_WV?$stream_output_adapter@_W@__crt_stdio_output@@@2@@__crt_stdio_output@@QEAA@AEBV?$stream_output_adapter@_W@1@_KQEB_WQEAU__crt_locale_pointers@@QEAD@Z 000000018001c66c f i libucrt:output.obj
 0001:0001b7dc       ?force_decimal_point@__crt_stdio_output@@YAXPEADQEAU__crt_locale_pointers@@@Z 000000018001c7dc f i libucrt:output.obj
 0001:0001b84c       ?parse_int_from_format_string@?$output_processor@_WV?$stream_output_adapter@_W@__crt_stdio_output@@V?$standard_base@_WV?$stream_output_adapter@_W@__crt_stdio_output@@@2@@__crt_stdio_output@@AEAA_NQEAH@Z 000000018001c84c f i libucrt:output.obj
 0001:0001b84c       ?parse_int_from_format_string@?$output_processor@_WV?$string_output_adapter@_W@__crt_stdio_output@@V?$standard_base@_WV?$string_output_adapter@_W@__crt_stdio_output@@@2@@__crt_stdio_output@@AEAA_NQEAH@Z 000000018001c84c f i libucrt:output.obj
 0001:0001b8cc       ?process@?$output_processor@_WV?$stream_output_adapter@_W@__crt_stdio_output@@V?$standard_base@_WV?$stream_output_adapter@_W@__crt_stdio_output@@@2@@__crt_stdio_output@@QEAAHXZ 000000018001c8cc f i libucrt:output.obj
 0001:0001bb44       ?process@?$output_processor@_WV?$string_output_adapter@_W@__crt_stdio_output@@V?$standard_base@_WV?$string_output_adapter@_W@__crt_stdio_output@@@2@@__crt_stdio_output@@QEAAHXZ 000000018001cb44 f i libucrt:output.obj
 0001:0001bdc0       ?state_case_size@?$output_processor@_WV?$stream_output_adapter@_W@__crt_stdio_output@@V?$standard_base@_WV?$stream_output_adapter@_W@__crt_stdio_output@@@2@@__crt_stdio_output@@AEAA_NXZ 000000018001cdc0 f i libucrt:output.obj
 0001:0001bf64       ?state_case_size@?$output_processor@_WV?$string_output_adapter@_W@__crt_stdio_output@@V?$standard_base@_WV?$string_output_adapter@_W@__crt_stdio_output@@@2@@__crt_stdio_output@@AEAA_NXZ 000000018001cf64 f i libucrt:output.obj
 0001:0001c108       ?state_case_type@?$output_processor@_WV?$stream_output_adapter@_W@__crt_stdio_output@@V?$standard_base@_WV?$stream_output_adapter@_W@__crt_stdio_output@@@2@@__crt_stdio_output@@AEAA_NXZ 000000018001d108 f i libucrt:output.obj
 0001:0001c3d4       ?state_case_type@?$output_processor@_WV?$string_output_adapter@_W@__crt_stdio_output@@V?$standard_base@_WV?$string_output_adapter@_W@__crt_stdio_output@@@2@@__crt_stdio_output@@AEAA_NXZ 000000018001d3d4 f i libucrt:output.obj
 0001:0001c6a0       ?type_case_Z@?$output_processor@_WV?$string_output_adapter@_W@__crt_stdio_output@@V?$standard_base@_WV?$string_output_adapter@_W@__crt_stdio_output@@@2@@__crt_stdio_output@@AEAA_NXZ 000000018001d6a0 f i libucrt:output.obj
 0001:0001c6a0       ?type_case_Z@?$output_processor@_WV?$stream_output_adapter@_W@__crt_stdio_output@@V?$standard_base@_WV?$stream_output_adapter@_W@__crt_stdio_output@@@2@@__crt_stdio_output@@AEAA_NXZ 000000018001d6a0 f i libucrt:output.obj
 0001:0001c720       ?type_case_a@?$output_processor@_WV?$stream_output_adapter@_W@__crt_stdio_output@@V?$standard_base@_WV?$stream_output_adapter@_W@__crt_stdio_output@@@2@@__crt_stdio_output@@AEAA_NXZ 000000018001d720 f i libucrt:output.obj
 0001:0001c720       ?type_case_a@?$output_processor@_WV?$string_output_adapter@_W@__crt_stdio_output@@V?$standard_base@_WV?$string_output_adapter@_W@__crt_stdio_output@@@2@@__crt_stdio_output@@AEAA_NXZ 000000018001d720 f i libucrt:output.obj
 0001:0001c964       ?type_case_c_tchar@?$output_processor@_WV?$stream_output_adapter@_W@__crt_stdio_output@@V?$standard_base@_WV?$stream_output_adapter@_W@__crt_stdio_output@@@2@@__crt_stdio_output@@AEAA_N_W@Z 000000018001d964 f i libucrt:output.obj
 0001:0001c964       ?type_case_c_tchar@?$output_processor@_WV?$string_output_adapter@_W@__crt_stdio_output@@V?$standard_base@_WV?$string_output_adapter@_W@__crt_stdio_output@@@2@@__crt_stdio_output@@AEAA_N_W@Z 000000018001d964 f i libucrt:output.obj
 0001:0001ca0c       ?type_case_integer@?$output_processor@_WV?$stream_output_adapter@_W@__crt_stdio_output@@V?$standard_base@_WV?$stream_output_adapter@_W@__crt_stdio_output@@@2@@__crt_stdio_output@@AEAA_NI_N@Z 000000018001da0c f i libucrt:output.obj
 0001:0001ca0c       ?type_case_integer@?$output_processor@_WV?$string_output_adapter@_W@__crt_stdio_output@@V?$standard_base@_WV?$string_output_adapter@_W@__crt_stdio_output@@@2@@__crt_stdio_output@@AEAA_NI_N@Z 000000018001da0c f i libucrt:output.obj
 0001:0001cbac       ?type_case_n@?$output_processor@_WV?$string_output_adapter@_W@__crt_stdio_output@@V?$standard_base@_WV?$string_output_adapter@_W@__crt_stdio_output@@@2@@__crt_stdio_output@@AEAA_NXZ 000000018001dbac f i libucrt:output.obj
 0001:0001cbac       ?type_case_n@?$output_processor@_WV?$stream_output_adapter@_W@__crt_stdio_output@@V?$standard_base@_WV?$stream_output_adapter@_W@__crt_stdio_output@@@2@@__crt_stdio_output@@AEAA_NXZ 000000018001dbac f i libucrt:output.obj
 0001:0001cc88       ?type_case_s@?$output_processor@_WV?$stream_output_adapter@_W@__crt_stdio_output@@V?$standard_base@_WV?$stream_output_adapter@_W@__crt_stdio_output@@@2@@__crt_stdio_output@@AEAA_NXZ 000000018001dc88 f i libucrt:output.obj
 0001:0001cc88       ?type_case_s@?$output_processor@_WV?$string_output_adapter@_W@__crt_stdio_output@@V?$standard_base@_WV?$string_output_adapter@_W@__crt_stdio_output@@@2@@__crt_stdio_output@@AEAA_NXZ 000000018001dc88 f i libucrt:output.obj
 0001:0001cd50       ?write_stored_string_tchar@?$output_processor@_WV?$stream_output_adapter@_W@__crt_stdio_output@@V?$standard_base@_WV?$stream_output_adapter@_W@__crt_stdio_output@@@2@@__crt_stdio_output@@AEAA_N_W@Z 000000018001dd50 f i libucrt:output.obj
 0001:0001ce3c       ?write_stored_string_tchar@?$output_processor@_WV?$string_output_adapter@_W@__crt_stdio_output@@V?$standard_base@_WV?$string_output_adapter@_W@__crt_stdio_output@@@2@@__crt_stdio_output@@AEAA_N_W@Z 000000018001de3c f i libucrt:output.obj
 0001:0001cf2c       ?write_string@?$stream_output_adapter@_W@__crt_stdio_output@@QEBAXQEB_WHQEAH1@Z 000000018001df2c f i libucrt:output.obj
 0001:0001d038       ?write_string@?$string_output_adapter@_W@__crt_stdio_output@@QEBAXQEB_WHQEAH1@Z 000000018001e038 f i libucrt:output.obj
 0001:0001d0f8       __stdio_common_vfwprintf   000000018001e0f8 f   libucrt:output.obj
 0001:0001d184       __stdio_common_vswprintf   000000018001e184 f   libucrt:output.obj
 0001:0001d3bc       ??$is_overflow_condition@K@__crt_strtox@@YA_NIK@Z 000000018001e3bc f i libucrt:atox.obj
 0001:0001d3e8       ??$parse_integer@KV?$c_string_character_source@_W@__crt_strtox@@@__crt_strtox@@YAKQEAU__crt_locale_pointers@@V?$c_string_character_source@_W@0@H_N@Z 000000018001e3e8 f i libucrt:atox.obj
 0001:0001dabc       _d_int                     000000018001eabc f   libucrt:_test.obj
 0001:0001dbd4       _query_app_type            000000018001ebd4 f   libucrt:report_runtime_error.obj
 0001:0001dbdc       __acrt_errno_from_os_error 000000018001ebdc f   libucrt:errno.obj
 0001:0001dc24       __acrt_errno_map_os_error  000000018001ec24 f   libucrt:errno.obj
 0001:0001dc74       __doserrno                 000000018001ec74 f   libucrt:errno.obj
 0001:0001dc94       _errno                     000000018001ec94 f   libucrt:errno.obj
 0001:0001dddc       _itow_s                    000000018001eddc f   libucrt:xtoa.obj
 0001:0001ddfc       _set_error_mode            000000018001edfc f   libucrt:set_error_mode.obj
 0001:0001de3c       wcscat_s                   000000018001ee3c f   libucrt:wcscat_s.obj
 0001:0001debc       wcscpy_s                   000000018001eebc f   libucrt:wcscpy_s.obj
 0001:0001df24       wcsncat_s                  000000018001ef24 f   libucrt:wcsncat_s.obj
 0001:0001e04c       __acrt_show_wide_message_box 000000018001f04c f   libucrt:crtmbox.obj
 0001:0001e168       __acrt_initialize_stdio    000000018001f168 f   libucrt:_file.obj
 0001:0001e288       __acrt_iob_func            000000018001f288 f   libucrt:_file.obj
 0001:0001e29c       __acrt_uninitialize_stdio  000000018001f29c f   libucrt:_file.obj
 0001:0001e2f8       _lock_file                 000000018001f2f8 f   libucrt:_file.obj
 0001:0001e304       _unlock_file               000000018001f304 f   libucrt:_file.obj
 0001:0001e310       __acrt_stdio_flush_nolock  000000018001f310 f   libucrt:fflush.obj
 0001:0001e388       _fflush_nolock             000000018001f388 f   libucrt:fflush.obj
 0001:0001e3d4       _flushall                  000000018001f3d4 f   libucrt:fflush.obj
 0001:0001e4c4       fflush                     000000018001f4c4 f   libucrt:fflush.obj
 0001:0001e508       ??$?RV<lambda_7a5ef57ff966f610505f1d28a3d40618>@@AEAV<lambda_b721fa326cdb32351d23dfa67958c160>@@V<lambda_5e0fb27672408a07956fe59e48ccb2aa>@@@?$__crt_seh_guarded_call@H@@QEAAH$$QEAV<lambda_7a5ef57ff966f610505f1d28a3d40618>@@AEAV<lambda_b721fa326cdb32351d23dfa67958c160>@@$$QEAV<lambda_5e0fb27672408a07956fe59e48ccb2aa>@@@Z 000000018001f508 f i libucrt:setvbuf.obj
 0001:0001e638       setvbuf                    000000018001f638 f   libucrt:setvbuf.obj
 0001:0001e6d8       ??$?RV<lambda_c36588078e9f5dfd39652860aa6b3aaf>@@AEAV<lambda_ec61778202f4f5fc7e7711acc23c3bca>@@V<lambda_dc9d2797ccde5d239b4a0efae8ebd7db>@@@?$__crt_seh_guarded_call@P6AXH@Z@@QEAAP6AXH@Z$$QEAV<lambda_c36588078e9f5dfd39652860aa6b3aaf>@@AEAV<lambda_ec61778202f4f5fc7e7711acc23c3bca>@@$$QEAV<lambda_dc9d2797ccde5d239b4a0efae8ebd7db>@@@Z 000000018001f6d8 f i libucrt:signal.obj
 0001:0001e720       __acrt_get_sigabrt_handler 000000018001f720 f   libucrt:signal.obj
 0001:0001e750       __acrt_initialize_signal_handlers 000000018001f750 f   libucrt:signal.obj
 0001:0001e770       raise                      000000018001f770 f   libucrt:signal.obj
 0001:0001ea0c       ??$?RV<lambda_46352004c1216016012b18bd6f87e700>@@AEAV<lambda_3bd07e1a1191394380780325891bf33f>@@V<lambda_334532d3f185bcaa59b5be82d7d22bff>@@@?$__crt_seh_guarded_call@X@@QEAAX$$QEAV<lambda_46352004c1216016012b18bd6f87e700>@@AEAV<lambda_3bd07e1a1191394380780325891bf33f>@@$$QEAV<lambda_334532d3f185bcaa59b5be82d7d22bff>@@@Z 000000018001fa0c f i libucrt:per_thread_data.obj
 0001:0001ea6c       ??$?RV<lambda_5e887d1dcbef67a5eb4283622ba103bf>@@AEAV<lambda_4466841279450cc726390878d4a41900>@@V<lambda_341c25c0346d94847f1f3c463c57e077>@@@?$__crt_seh_guarded_call@X@@QEAAX$$QEAV<lambda_5e887d1dcbef67a5eb4283622ba103bf>@@AEAV<lambda_4466841279450cc726390878d4a41900>@@$$QEAV<lambda_341c25c0346d94847f1f3c463c57e077>@@@Z 000000018001fa6c f i libucrt:per_thread_data.obj
 0001:0001eab4       ??$?RV<lambda_72d1df2b273a38828b1ce30cbf4cdab5>@@AEAV<lambda_876a65b173b8412d3a47c70a915b0cf4>@@V<lambda_41932305e351933ebe8f8be3ed8bb5dc>@@@?$__crt_seh_guarded_call@X@@QEAAX$$QEAV<lambda_72d1df2b273a38828b1ce30cbf4cdab5>@@AEAV<lambda_876a65b173b8412d3a47c70a915b0cf4>@@$$QEAV<lambda_41932305e351933ebe8f8be3ed8bb5dc>@@@Z 000000018001fab4 f i libucrt:per_thread_data.obj
 0001:0001eaf4       ??$?RV<lambda_fb3a7dec4e47f37f22dae91bb15c9095>@@AEAV<lambda_698284760c8add0bfb0756c19673e34b>@@V<lambda_dfb8eca1e75fef3034a8fb18dd509707>@@@?$__crt_seh_guarded_call@X@@QEAAX$$QEAV<lambda_fb3a7dec4e47f37f22dae91bb15c9095>@@AEAV<lambda_698284760c8add0bfb0756c19673e34b>@@$$QEAV<lambda_dfb8eca1e75fef3034a8fb18dd509707>@@@Z 000000018001faf4 f i libucrt:per_thread_data.obj
 0001:0001ed84       __acrt_freeptd             000000018001fd84 f   libucrt:per_thread_data.obj
 0001:0001edc8       __acrt_getptd              000000018001fdc8 f   libucrt:per_thread_data.obj
 0001:0001ee5c       __acrt_getptd_noexit       000000018001fe5c f   libucrt:per_thread_data.obj
 0001:0001eefc       __acrt_initialize_ptd      000000018001fefc f   libucrt:per_thread_data.obj
 0001:0001ef38       __acrt_uninitialize_ptd    000000018001ff38 f   libucrt:per_thread_data.obj
 0001:0001efac       _tolower_l                 000000018001ffac f   libucrt:tolower_toupper.obj
 0001:0001f0ec       tolower                    00000001800200ec f   libucrt:tolower_toupper.obj
 0001:0001f118       __acrt_update_locale_info  0000000180020118 f   libucrt:locale_update.obj
 0001:0001f14c       __acrt_update_multibyte_info 000000018002014c f   libucrt:locale_update.obj
 0001:0001f180       __acrt_set_locale_changed  0000000180020180 f   libucrt:wsetlocale.obj
 0001:0001f18c       __acrt_uninitialize_locale 000000018002018c f   libucrt:wsetlocale.obj
 0001:0001f1d4       __acrt_initialize_locks    00000001800201d4 f   libucrt:locks.obj
 0001:0001f21c       __acrt_lock                000000018002021c f   libucrt:locks.obj
 0001:0001f238       __acrt_uninitialize_locks  0000000180020238 f   libucrt:locks.obj
 0001:0001f270       __acrt_unlock              0000000180020270 f   libucrt:locks.obj
 0001:0001f42c       __acrt_FlsAlloc            000000018002042c f   libucrt:winapi_thunks.obj
 0001:0001f484       __acrt_FlsFree             0000000180020484 f   libucrt:winapi_thunks.obj
 0001:0001f4dc       __acrt_FlsGetValue         00000001800204dc f   libucrt:winapi_thunks.obj
 0001:0001f534       __acrt_FlsSetValue         0000000180020534 f   libucrt:winapi_thunks.obj
 0001:0001f59c       __acrt_InitializeCriticalSectionEx 000000018002059c f   libucrt:winapi_thunks.obj
 0001:0001f614       __acrt_LCMapStringEx       0000000180020614 f   libucrt:winapi_thunks.obj
 0001:0001f704       __acrt_LocaleNameToLCID    0000000180020704 f   libucrt:winapi_thunks.obj
 0001:0001f76c       __acrt_MessageBoxW         000000018002076c f   libucrt:winapi_thunks.obj
 0001:0001f7f4       __acrt_can_show_message_box 00000001800207f4 f   libucrt:winapi_thunks.obj
 0001:0001f850       __acrt_get_parent_window   0000000180020850 f   libucrt:winapi_thunks.obj
 0001:0001f8e0       __acrt_initialize_winapi_thunks 00000001800208e0 f   libucrt:winapi_thunks.obj
 0001:0001f918       __acrt_is_interactive      0000000180020918 f   libucrt:winapi_thunks.obj
 0001:0001f9ec       __acrt_is_packaged_app     00000001800209ec f   libucrt:winapi_thunks.obj
 0001:0001fa74       __acrt_uninitialize_winapi_thunks 0000000180020a74 f   libucrt:winapi_thunks.obj
 0001:0001ff94       ?expand_if_necessary@?$argument_list@D@?A0xca0879c4@@AEAAHXZ 0000000180020f94 f i libucrt:argv_wildcards.obj
 0001:0002005c       __acrt_expand_narrow_argv_wildcards 000000018002105c f   libucrt:argv_wildcards.obj
 0001:00020064       ??$?RV<lambda_99476a1ad63dd22509b5d3e65b0ffc95>@@AEAV<lambda_ad1ced32f4ac17aa236e5ef05d6b3b7c>@@V<lambda_f7424dd8d45958661754dc4f2697e9c3>@@@?$__crt_seh_guarded_call@X@@QEAAX$$QEAV<lambda_99476a1ad63dd22509b5d3e65b0ffc95>@@AEAV<lambda_ad1ced32f4ac17aa236e5ef05d6b3b7c>@@$$QEAV<lambda_f7424dd8d45958661754dc4f2697e9c3>@@@Z 0000000180021064 f i libucrt:mbctype.obj
 0001:00020760       __acrt_initialize_multibyte 0000000180021760 f   libucrt:mbctype.obj
 0001:00020788       __acrt_update_thread_multibyte_data 0000000180021788 f   libucrt:mbctype.obj
 0001:00020848       _setmbcp_nolock            0000000180021848 f   libucrt:mbctype.obj
 0001:00020b68       _ismbblead                 0000000180021b68 f   libucrt:ismbbyte.obj
 0001:00020b7c       __acrt_initialize_command_line 0000000180021b7c f   libucrt:argv_data.obj
 0001:00020ba4       __dcrt_get_narrow_environment_from_os 0000000180021ba4 f   libucrt:get_environment_from_os.obj
 0001:00020ca8       _recalloc                  0000000180021ca8 f   libucrt:recalloc.obj
 0001:00020cb0       _recalloc_base             0000000180021cb0 f   libucrt:recalloc.obj
 0001:00020d48       __acrt_initialize_heap     0000000180021d48 f   libucrt:heap_handle.obj
 0001:00020d64       __acrt_uninitialize_heap   0000000180021d64 f   libucrt:heap_handle.obj
 0001:00020f58       __acrt_initialize_lowio    0000000180021f58 f   libucrt:ioinit.obj
 0001:00020f94       __acrt_uninitialize_lowio  0000000180021f94 f   libucrt:ioinit.obj
 0001:00020fd4       __acrt_execute_initializers 0000000180021fd4 f   libucrt:shared_initialization.obj
 0001:00021068       __acrt_execute_uninitializers 0000000180022068 f   libucrt:shared_initialization.obj
 0001:000210b8       __acrt_has_user_matherr    00000001800220b8 f   libucrt:matherr.obj
 0001:000210d8       __acrt_initialize_user_matherr 00000001800220d8 f   libucrt:matherr.obj
 0001:000210e0       __acrt_invoke_user_matherr 00000001800220e0 f   libucrt:matherr.obj
 0001:00021128       __acrt_stdio_begin_temporary_buffering_nolock 0000000180022128 f   libucrt:_sftbuf.obj
 0001:000211f8       __acrt_stdio_end_temporary_buffering_nolock 00000001800221f8 f   libucrt:_sftbuf.obj
 0001:00021234       _query_new_mode            0000000180022234 f   libucrt:new_mode.obj
 0001:0002123c       isdigit                    000000018002223c f i libucrt:_ctype.obj
 0001:000212b0       ??$make_c_string_character_source@_WPEAPEA_W@__crt_strtox@@YA?AV?$c_string_character_source@_W@0@QEB_WQEAPEA_W@Z 00000001800222b0 f i libucrt:strtox.obj
 0001:000212c4       wcstol                     00000001800222c4 f   libucrt:strtox.obj
 0001:000212f4       _mbtowc_l                  00000001800222f4 f   libucrt:mbtowc.obj
 0001:0002143c       mbtowc                     000000018002243c f   libucrt:mbtowc.obj
 0001:00021444       _wctomb_s_l                0000000180022444 f   libucrt:wctomb.obj
 0001:000215c8       wctomb_s                   00000001800225c8 f   libucrt:wctomb.obj
 0001:000215dc       wcsnlen                    00000001800225dc f   libucrt:strnlen.obj
 0001:000217cc       ?__acrt_fp_classify@@YA?AW4__acrt_fp_class@@AEBN@Z 00000001800227cc f i libucrt:cvt.obj
 0001:00022204       __acrt_fp_format           0000000180023204 f   libucrt:cvt.obj
 0001:00022448       _fputwc_nolock             0000000180023448 f   libucrt:fputwc.obj
 0001:000225c4       _fileno                    00000001800235c4 f   libucrt:fileno.obj
 0001:000225ec       _fputc_nolock              00000001800235ec f   libucrt:fputc.obj
 0001:00022604       _get_printf_count_output   0000000180023604 f   libucrt:printf_count_output.obj
 0001:0002261c       __pctype_func              000000018002361c f   libucrt:ctype.obj
 0001:0002264c       iswctype                   000000018002364c f   libucrt:iswctype.obj
 0001:000226bc       _isctype_l                 00000001800236bc f   libucrt:isctype.obj
 0001:000227cc       _getfpcontrolword          00000001800237cc f   libucrt:_fenvutils.obj
 0001:000227e4       _getfpstatusword           00000001800237e4 f   libucrt:_fenvutils.obj
 0001:000227f8       _setfpcontrolword          00000001800237f8 f   libucrt:_fenvutils.obj
 0001:00022804       _setfpstatusword           0000000180023804 f   libucrt:_fenvutils.obj
 0001:00022854       _fcloseall                 0000000180023854 f   libucrt:closeall.obj
 0001:00022908       __acrt_stdio_free_buffer_nolock 0000000180023908 f   libucrt:_freebuf.obj
 0001:00022948       ??$?RV<lambda_b521505b218e5242e90febf6bfebc422>@@AEAV<lambda_6978c1fb23f02e42e1d9e99668cc68aa>@@V<lambda_314360699dd331753a4119843814e9a7>@@@?$__crt_seh_guarded_call@H@@QEAAH$$QEAV<lambda_b521505b218e5242e90febf6bfebc422>@@AEAV<lambda_6978c1fb23f02e42e1d9e99668cc68aa>@@$$QEAV<lambda_314360699dd331753a4119843814e9a7>@@@Z 0000000180023948 f i libucrt:commit.obj
 0001:000229d4       _commit                    00000001800239d4 f   libucrt:commit.obj
 0001:00023008       _write                     0000000180024008 f   libucrt:write.obj
 0001:000230f4       _write_nolock              00000001800240f4 f   libucrt:write.obj
 0001:000233d8       __acrt_add_locale_ref      00000001800243d8 f   libucrt:locale_refcounting.obj
 0001:00023464       __acrt_free_locale         0000000180024464 f   libucrt:locale_refcounting.obj
 0001:000235dc       __acrt_locale_add_lc_time_reference 00000001800245dc f   libucrt:locale_refcounting.obj
 0001:00023604       __acrt_locale_free_lc_time_if_unreferenced 0000000180024604 f   libucrt:locale_refcounting.obj
 0001:0002363c       __acrt_locale_release_lc_time_reference 000000018002463c f   libucrt:locale_refcounting.obj
 0001:00023664       __acrt_release_locale_ref  0000000180024664 f   libucrt:locale_refcounting.obj
 0001:0002370c       __acrt_update_thread_locale_data 000000018002470c f   libucrt:locale_refcounting.obj
 0001:0002377c       _updatetlocinfoEx_nolock   000000018002477c f   libucrt:locale_refcounting.obj
 0001:000237e4       _isleadbyte_l              00000001800247e4 f i libucrt:_wctype.obj
 0001:00023b80       __acrt_LCMapStringA        0000000180024b80 f   libucrt:lcmapstringa.obj
 0001:00023c18       __acrt_locale_free_monetary 0000000180024c18 f   libucrt:initmon.obj
 0001:00023d24       __acrt_locale_free_numeric 0000000180024d24 f   libucrt:initnum.obj
 0001:00023de8       __acrt_locale_free_time    0000000180024de8 f   libucrt:inittime.obj
 0001:00023ef0       __acrt_GetStringTypeA      0000000180024ef0 f   libucrt:getstringtypea.obj
 0001:0002416c       __acrt_DownlevelLocaleNameToLCID 000000018002516c f   libucrt:lcidtoname_downlevel.obj
 0001:00024270       qsort                      0000000180025270 f   libucrt:qsort.obj
 0001:000245a4       strncpy_s                  00000001800255a4 f   libucrt:strncpy_s.obj
 0001:00024678       strpbrk                    0000000180025678 f   libucrt:strpbrk.obj
 0001:00024718       _mbsdec                    0000000180025718 f   libucrt:mbsdec.obj
 0001:00024720       _mbsdec_l                  0000000180025720 f   libucrt:mbsdec.obj
 0001:000247d0       _msize                     00000001800257d0 f   libucrt:msize.obj
 0001:0002480c       _realloc_base              000000018002580c f   libucrt:realloc_base.obj
 0001:00024890       __acrt_lowio_create_handle_array 0000000180025890 f   libucrt:osfinfo.obj
 0001:00024928       __acrt_lowio_destroy_handle_array 0000000180025928 f   libucrt:osfinfo.obj
 0001:00024978       __acrt_lowio_ensure_fh_exists 0000000180025978 f   libucrt:osfinfo.obj
 0001:00024a30       __acrt_lowio_lock_fh       0000000180025a30 f   libucrt:osfinfo.obj
 0001:00024a54       __acrt_lowio_unlock_fh     0000000180025a54 f   libucrt:osfinfo.obj
 0001:00024a78       _free_osfhnd               0000000180025a78 f   libucrt:osfinfo.obj
 0001:00024b34       _get_osfhandle             0000000180025b34 f   libucrt:osfinfo.obj
 0001:00024bac       _isatty                    0000000180025bac f   libucrt:isatty.obj
 0001:00024c0c       __acrt_fp_strflt_to_string 0000000180025c0c f   libucrt:_fptostr.obj
 0001:00024cd0       ?divide@__crt_strtox@@YA_KAEAUbig_integer@1@AEBU21@@Z 0000000180025cd0 f i libucrt:cfout.obj
 0001:000251a0       __acrt_fltout              00000001800261a0 f   libucrt:cfout.obj
 0001:000267a4       __acrt_stdio_flush_and_write_narrow_nolock 00000001800277a4 f   libucrt:_flsbuf.obj
 0001:0002688c       __acrt_stdio_flush_and_write_wide_nolock 000000018002788c f   libucrt:_flsbuf.obj
 0001:00026978       _clearfp                   0000000180027978 f   libucrt:ieee.obj
 0001:000269cc       _controlfp                 00000001800279cc f   libucrt:ieee.obj
 0001:000269d8       _statusfp                  00000001800279d8 f   libucrt:ieee.obj
 0001:00026cd0       _get_fpsr                  0000000180027cd0 f   libucrt:fpsr.obj
 0001:00026ce0       _set_fpsr                  0000000180027ce0 f   libucrt:fpsr.obj
 0001:00026cea       _fclrf                     0000000180027cea f   libucrt:fpsr.obj
 0001:00026cfe       _frnd                      0000000180027cfe f   libucrt:fpsr.obj
 0001:00026d20       _fclose_nolock             0000000180027d20 f   libucrt:fclose.obj
 0001:00026da4       fclose                     0000000180027da4 f   libucrt:fclose.obj
 0001:00026f9c       _lseeki64                  0000000180027f9c f   libucrt:lseek.obj
 0001:00026fa4       _lseeki64_nolock           0000000180027fa4 f   libucrt:lseek.obj
 0001:00026fac       _putwch_nolock             0000000180027fac f   libucrt:putwch.obj
 0001:00027008       __strncnt                  0000000180028008 f   libucrt:strncnt.obj
 0001:00027020       fegetenv                   0000000180028020 f   libucrt:fegetenv.obj
 0001:00027040       fesetenv                   0000000180028040 f   libucrt:fesetenv.obj
 0001:0002708c       feholdexcept               000000018002808c f   libucrt:feholdexcept.obj
 0001:000270dc       ceil                       00000001800280dc f   libucrt:ceil.obj
 0001:000271a0       log10                      00000001800281a0 f   libucrt:log10.obj
 0001:0002774c       __acrt_stdio_allocate_buffer_nolock 000000018002874c f   libucrt:_getbuf.obj
 0001:000277b0       ??$?RV<lambda_bfedae4ebbf01fab1bb6dcc6a9e276e0>@@AEAV<lambda_2fe9b910cf3cbf4a0ab98a02ba45b3ec>@@V<lambda_237c231691f317818eb88cc1d5d642d6>@@@?$__crt_seh_guarded_call@H@@QEAAH$$QEAV<lambda_bfedae4ebbf01fab1bb6dcc6a9e276e0>@@AEAV<lambda_2fe9b910cf3cbf4a0ab98a02ba45b3ec>@@$$QEAV<lambda_237c231691f317818eb88cc1d5d642d6>@@@Z 00000001800287b0 f i libucrt:close.obj
 0001:00027824       _close                     0000000180028824 f   libucrt:close.obj
 0001:000278c8       _close_nolock              00000001800288c8 f   libucrt:close.obj
 0001:00027984       ?__acrt_stdio_free_stream@@YAXV__crt_stdio_stream@@@Z 0000000180028984 f   libucrt:stream.obj
 0001:000279c8       __dcrt_lowio_initialize_console_output 00000001800289c8 f   libucrt:initcon.obj
 0001:00027a04       __dcrt_terminate_console_output 0000000180028a04 f   libucrt:initcon.obj
 0001:00027b48       _handle_error              0000000180028b48 f   libucrt:libm_error.obj
 0001:00027c70       _handle_nan                0000000180028c70 f   libucrt:libm_error.obj
 0001:00027c90       __acrt_initialize_fma3     0000000180028c90 f   libucrt:fma3_available.obj
 0001:00027d00       _log10_special             0000000180028d00 f   libucrt:log_special.obj
 0001:00027db8       _raise_exc                 0000000180028db8 f   libucrt:fpexcept.obj
 0001:00027de0       _raise_exc_ex              0000000180028de0 f   libucrt:fpexcept.obj
 0001:000280e8       _set_errno_from_matherr    00000001800290e8 f   libucrt:fpexcept.obj
 0001:00028118       _clrfp                     0000000180029118 f   libucrt:fpctrl.obj
 0001:00028138       _ctrlfp                    0000000180029138 f   libucrt:fpctrl.obj
 0001:000281b4       _set_statfp                00000001800291b4 f   libucrt:fpctrl.obj
 0001:000281d4       _statfp                    00000001800291d4 f   libucrt:fpctrl.obj
 0001:000281e6       IsProcessorFeaturePresent  00000001800291e6 f   kernel32:KERNEL32.dll
 0001:000281ec       RtlUnwindEx                00000001800291ec f   kernel32:KERNEL32.dll
 0001:00028200       _FindPESection             0000000180029200 f   LIBCMT:pesect.obj
 0001:00028250       _IsNonwritableInCurrentImage 0000000180029250 f   LIBCMT:pesect.obj
 0001:000282a0       _ValidateImageBase         00000001800292a0 f   LIBCMT:pesect.obj
 0001:000282d0       __GSHandlerCheck           00000001800292d0 f   LIBCMT:_gshandler_.obj
 0001:000282f0       __GSHandlerCheckCommon     00000001800292f0 f   LIBCMT:_gshandler_.obj
 0001:00028360       _alloca_probe              0000000180029360 f   LIBCMT:_chkstk_.obj
 0001:00028360       __chkstk                   0000000180029360 f   LIBCMT:_chkstk_.obj
 0001:000283d0       memcmp                     00000001800293d0 f   libvcruntime:memcmp.obj
 0001:00028498       strrchr                    0000000180029498 f   libvcruntime:strrchr.obj
 0001:000285d8       __GSHandlerCheck_EH        00000001800295d8 f   LIBCMT:gshandlereh.obj
 0001:00028658       floor                      0000000180029658 f   libucrt:floor.obj
 0001:00028720       _guard_dispatch_icall_nop  0000000180029720 f   LIBCMT:_guard_dispatch_.obj
 0002:00000000       __imp_SetFilePointerEx     000000018002c000     kernel32:KERNEL32.dll
 0002:00000008       __imp_SetStdHandle         000000018002c008     kernel32:KERNEL32.dll
 0002:00000010       __imp_HeapReAlloc          000000018002c010     kernel32:KERNEL32.dll
 0002:00000018       __imp_HeapSize             000000018002c018     kernel32:KERNEL32.dll
 0002:00000020       __imp_GetConsoleMode       000000018002c020     kernel32:KERNEL32.dll
 0002:00000028       __imp_GetConsoleCP         000000018002c028     kernel32:KERNEL32.dll
 0002:00000030       __imp_FlushFileBuffers     000000018002c030     kernel32:KERNEL32.dll
 0002:00000038       __imp_GetStringTypeW       000000018002c038     kernel32:KERNEL32.dll
 0002:00000040       __imp_GetProcessHeap       000000018002c040     kernel32:KERNEL32.dll
 0002:00000048       __imp_FreeEnvironmentStringsW 000000018002c048     kernel32:KERNEL32.dll
 0002:00000050       __imp_GetEnvironmentStringsW 000000018002c050     kernel32:KERNEL32.dll
 0002:00000058       __imp_GetCommandLineW      000000018002c058     kernel32:KERNEL32.dll
 0002:00000060       __imp_GetCommandLineA      000000018002c060     kernel32:KERNEL32.dll
 0002:00000068       __imp_GetCPInfo            000000018002c068     kernel32:KERNEL32.dll
 0002:00000070       __imp_GetOEMCP             000000018002c070     kernel32:KERNEL32.dll
 0002:00000078       __imp_IsValidCodePage      000000018002c078     kernel32:KERNEL32.dll
 0002:00000080       __imp_FindNextFileA        000000018002c080     kernel32:KERNEL32.dll
 0002:00000088       __imp_FindFirstFileExA     000000018002c088     kernel32:KERNEL32.dll
 0002:00000090       __imp_FindClose            000000018002c090     kernel32:KERNEL32.dll
 0002:00000098       __imp_LCMapStringW         000000018002c098     kernel32:KERNEL32.dll
 0002:000000a0       __imp_GetACP               000000018002c0a0     kernel32:KERNEL32.dll
 0002:000000a8       __imp_CreateThread         000000018002c0a8     kernel32:KERNEL32.dll
 0002:000000b0       __imp_WaitForSingleObjectEx 000000018002c0b0     kernel32:KERNEL32.dll
 0002:000000b8       __imp_CloseHandle          000000018002c0b8     kernel32:KERNEL32.dll
 0002:000000c0       __imp_OutputDebugStringW   000000018002c0c0     kernel32:KERNEL32.dll
 0002:000000c8       __imp_WriteFile            000000018002c0c8     kernel32:KERNEL32.dll
 0002:000000d0       __imp_HeapAlloc            000000018002c0d0     kernel32:KERNEL32.dll
 0002:000000d8       __imp_HeapFree             000000018002c0d8     kernel32:KERNEL32.dll
 0002:000000e0       __imp_WideCharToMultiByte  000000018002c0e0     kernel32:KERNEL32.dll
 0002:000000e8       __imp_MultiByteToWideChar  000000018002c0e8     kernel32:KERNEL32.dll
 0002:000000f0       __imp_ExitProcess          000000018002c0f0     kernel32:KERNEL32.dll
 0002:000000f8       __imp_WriteConsoleW        000000018002c0f8     kernel32:KERNEL32.dll
 0002:00000100       __imp_GetModuleHandleExW   000000018002c100     kernel32:KERNEL32.dll
 0002:00000108       __imp_GetModuleFileNameW   000000018002c108     kernel32:KERNEL32.dll
 0002:00000110       __imp_GetModuleFileNameA   000000018002c110     kernel32:KERNEL32.dll
 0002:00000118       __imp_GetFileType          000000018002c118     kernel32:KERNEL32.dll
 0002:00000120       __imp_GetStdHandle         000000018002c120     kernel32:KERNEL32.dll
 0002:00000128       __imp_LoadLibraryExW       000000018002c128     kernel32:KERNEL32.dll
 0002:00000130       __imp_GetProcAddress       000000018002c130     kernel32:KERNEL32.dll
 0002:00000138       __imp_FreeLibrary          000000018002c138     kernel32:KERNEL32.dll
 0002:00000140       __imp_TlsFree              000000018002c140     kernel32:KERNEL32.dll
 0002:00000148       __imp_TlsSetValue          000000018002c148     kernel32:KERNEL32.dll
 0002:00000150       __imp_TlsGetValue          000000018002c150     kernel32:KERNEL32.dll
 0002:00000158       __imp_TlsAlloc             000000018002c158     kernel32:KERNEL32.dll
 0002:00000160       __imp_InitializeCriticalSectionAndSpinCount 000000018002c160     kernel32:KERNEL32.dll
 0002:00000168       __imp_DeleteCriticalSection 000000018002c168     kernel32:KERNEL32.dll
 0002:00000170       __imp_LeaveCriticalSection 000000018002c170     kernel32:KERNEL32.dll
 0002:00000178       __imp_EnterCriticalSection 000000018002c178     kernel32:KERNEL32.dll
 0002:00000180       __imp_SetLastError         000000018002c180     kernel32:KERNEL32.dll
 0002:00000188       __imp_GetLastError         000000018002c188     kernel32:KERNEL32.dll
 0002:00000190       __imp_InterlockedFlushSList 000000018002c190     kernel32:KERNEL32.dll
 0002:00000198       __imp_RtlUnwindEx          000000018002c198     kernel32:KERNEL32.dll
 0002:000001a0       __imp_RaiseException       000000018002c1a0     kernel32:KERNEL32.dll
 0002:000001a8       __imp_EncodePointer        000000018002c1a8     kernel32:KERNEL32.dll
 0002:000001b0       __imp_RtlPcToFileHeader    000000018002c1b0     kernel32:KERNEL32.dll
 0002:000001b8       __imp_GetModuleHandleW     000000018002c1b8     kernel32:KERNEL32.dll
 0002:000001c0       __imp_GetStartupInfoW      000000018002c1c0     kernel32:KERNEL32.dll
 0002:000001c8       __imp_IsDebuggerPresent    000000018002c1c8     kernel32:KERNEL32.dll
 0002:000001d0       __imp_InitializeSListHead  000000018002c1d0     kernel32:KERNEL32.dll
 0002:000001d8       __imp_GetSystemTimeAsFileTime 000000018002c1d8     kernel32:KERNEL32.dll
 0002:000001e0       __imp_GetCurrentThreadId   000000018002c1e0     kernel32:KERNEL32.dll
 0002:000001e8       __imp_GetCurrentProcessId  000000018002c1e8     kernel32:KERNEL32.dll
 0002:000001f0       __imp_QueryPerformanceCounter 000000018002c1f0     kernel32:KERNEL32.dll
 0002:000001f8       __imp_IsProcessorFeaturePresent 000000018002c1f8     kernel32:KERNEL32.dll
 0002:00000200       __imp_TerminateProcess     000000018002c200     kernel32:KERNEL32.dll
 0002:00000208       __imp_GetCurrentProcess    000000018002c208     kernel32:KERNEL32.dll
 0002:00000210       __imp_SetUnhandledExceptionFilter 000000018002c210     kernel32:KERNEL32.dll
 0002:00000218       __imp_UnhandledExceptionFilter 000000018002c218     kernel32:KERNEL32.dll
 0002:00000220       __imp_RtlVirtualUnwind     000000018002c220     kernel32:KERNEL32.dll
 0002:00000228       __imp_RtlLookupFunctionEntry 000000018002c228     kernel32:KERNEL32.dll
 0002:00000230       __imp_RtlCaptureContext    000000018002c230     kernel32:KERNEL32.dll
 0002:00000238       __imp_CreateFileW          000000018002c238     kernel32:KERNEL32.dll
 0002:00000240       \177KERNEL32_NULL_THUNK_DATA 000000018002c240     kernel32:KERNEL32.dll
 0002:00000248       __imp_g_atomic_int_dec_and_test 000000018002c248     libglib-2.0:dgoks00074.o
 0002:00000250       __imp_g_atomic_int_inc     000000018002c250     libglib-2.0:dgoks00077.o
 0002:00000258       __imp_g_free               000000018002c258     libglib-2.0:dgoks00380.o
 0002:00000260       __imp_g_malloc             000000018002c260     libglib-2.0:dgoks00673.o
 0002:00000268       __imp_g_snprintf           000000018002c268     libglib-2.0:dgoks01081.o
 0002:00000270       __imp_g_stat               000000018002c270     libglib-2.0:dgoks01122.o
 0002:00000280       __imp_vips_area_unref      000000018002c280     libvips:dmrks00870.o
 0002:00000288       __imp_vips_blob_get_type   000000018002c288     libvips:dmrks00939.o
 0002:00000290       __imp_vips_blob_new        000000018002c290     libvips:dmrks00940.o
 0002:00000298       __imp_vips_cache_get_max   000000018002c298     libvips:dmrks00985.o
 0002:000002a0       __imp_vips_cache_get_max_files 000000018002c2a0     libvips:dmrks00986.o
 0002:000002a8       __imp_vips_cache_get_max_mem 000000018002c2a8     libvips:dmrks00987.o
 0002:000002b0       __imp_vips_cache_get_size  000000018002c2b0     libvips:dmrks00988.o
 0002:000002b8       __imp_vips_cache_set_max   000000018002c2b8     libvips:dmrks00996.o
 0002:000002c0       __imp_vips_cache_set_max_files 000000018002c2c0     libvips:dmrks00997.o
 0002:000002c8       __imp_vips_cache_set_max_mem 000000018002c2c8     libvips:dmrks00998.o
 0002:000002d0       __imp_vips_concurrency_get 000000018002c2d0     libvips:dmrks01102.o
 0002:000002d8       __imp_vips_concurrency_set 000000018002c2d8     libvips:dmrks01103.o
 0002:000002e0       __imp_vips_enum_from_nick  000000018002c2e0     libvips:dmrks01175.o
 0002:000002e8       __imp_vips_enum_nick       000000018002c2e8     libvips:dmrks01176.o
 0002:000002f0       __imp_vips_error_clear     000000018002c2f0     libvips:dmrks01186.o
 0002:000002f8       __imp_vips_foreign_find_load 000000018002c2f8     libvips:dmrks01229.o
 0002:00000300       __imp_vips_foreign_find_load_buffer 000000018002c300     libvips:dmrks01230.o
 0002:00000308       __imp_vips_get_tile_size   000000018002c308     libvips:dmrks01338.o
 0002:00000310       __imp_vips_image_remove    000000018002c310     libvips:dmrks01465.o
 0002:00000318       __imp_vips_init            000000018002c318     libvips:dmrks01486.o
 0002:00000320       __imp_vips_interpretation_get_type 000000018002c320     libvips:dmrks01506.o
 0002:00000328       __imp_vips_kernel_get_type 000000018002c328     libvips:dmrks01524.o
 0002:00000330       __imp_vips_operation_boolean_get_type 000000018002c330     libvips:dmrks01662.o
 0002:00000338       __imp_vips_thread_shutdown 000000018002c338     libvips:dmrks01887.o
 0002:00000340       __imp_vips_tracked_get_files 000000018002c340     libvips:dmrks01903.o
 0002:00000348       __imp_vips_tracked_get_mem 000000018002c348     libvips:dmrks01904.o
 0002:00000350       __imp_vips_tracked_get_mem_highwater 000000018002c350     libvips:dmrks01905.o
 0002:00000358       __imp_vips_type_find       000000018002c358     libvips:dmrks01909.o
 0002:00000360       __imp_vips_vector_isenabled 000000018002c360     libvips:dmrks01946.o
 0002:00000368       __imp_vips_vector_set_enabled 000000018002c368     libvips:dmrks01950.o
 0002:00000370       __imp_vips_version         000000018002c370     libvips:dmrks01957.o
 0002:00000380       __imp_?height@VImage@vips@@QEAAHXZ 000000018002c380     libvips-cpp:libvips-cpp.dll
 0002:00000388       __imp_?width@VImage@vips@@QEAAHXZ 000000018002c388     libvips-cpp:libvips-cpp.dll
 0002:00000390       __imp_??Ivips@@YA?AVVImage@0@V10@0@Z 000000018002c390     libvips-cpp:libvips-cpp.dll
 0002:00000398       __imp_??Hvips@@YA?AVVImage@0@V10@0@Z 000000018002c398     libvips-cpp:libvips-cpp.dll
 0002:000003a0       __imp_??Dvips@@YA?AVVImage@0@V10@0@Z 000000018002c3a0     libvips-cpp:libvips-cpp.dll
 0002:000003a8       __imp_??Dvips@@YA?AVVImage@0@NV10@@Z 000000018002c3a8     libvips-cpp:libvips-cpp.dll
 0002:000003b0       __imp_??Dvips@@YA?AVVImage@0@V10@N@Z 000000018002c3b0     libvips-cpp:libvips-cpp.dll
 0002:000003b8       __imp_??Nvips@@YA?AVVImage@0@V10@N@Z 000000018002c3b8     libvips-cpp:libvips-cpp.dll
 0002:000003c0       __imp_??Ovips@@YA?AVVImage@0@V10@N@Z 000000018002c3c0     libvips-cpp:libvips-cpp.dll
 0002:000003c8       __imp_?set@VOption@vips@@QEAAPEAV12@PEBD_N@Z 000000018002c3c8     libvips-cpp:libvips-cpp.dll
 0002:000003d0       __imp_?set@VOption@vips@@QEAAPEAV12@PEBDV?$vector@NV?$allocator@N@std@@@std@@@Z 000000018002c3d0     libvips-cpp:libvips-cpp.dll
 0002:000003d8       __imp_??Pvips@@YA?AVVImage@0@V10@N@Z 000000018002c3d8     libvips-cpp:libvips-cpp.dll
 0002:000003e0       __imp_??AVImage@vips@@QEAA?AV01@H@Z 000000018002c3e0     libvips-cpp:libvips-cpp.dll
 0002:000003e8       __imp_?gaussblur@VImage@vips@@QEAA?AV12@NPEAVVOption@2@@Z 000000018002c3e8     libvips-cpp:libvips-cpp.dll
 0002:000003f0       __imp_?sharpen@VImage@vips@@QEAA?AV12@PEAVVOption@2@@Z 000000018002c3f0     libvips-cpp:libvips-cpp.dll
 0002:000003f8       __imp_?conv@VImage@vips@@QEAA?AV12@V12@PEAVVOption@2@@Z 000000018002c3f8     libvips-cpp:libvips-cpp.dll
 0002:00000400       __imp_?hist_entropy@VImage@vips@@QEAANPEAVVOption@2@@Z 000000018002c400     libvips-cpp:libvips-cpp.dll
 0002:00000408       __imp_?gamma@VImage@vips@@QEAA?AV12@PEAVVOption@2@@Z 000000018002c408     libvips-cpp:libvips-cpp.dll
 0002:00000410       __imp_?get_blob@VImage@vips@@QEAAPEBXPEBDPEA_K@Z 000000018002c410     libvips-cpp:libvips-cpp.dll
 0002:00000418       __imp_?cast@VImage@vips@@QEAA?AV12@W4VipsBandFormat@@PEAVVOption@2@@Z 000000018002c418     libvips-cpp:libvips-cpp.dll
 0002:00000420       __imp_?bandbool@VImage@vips@@QEAA?AV12@W4VipsOperationBoolean@@PEAVVOption@2@@Z 000000018002c420     libvips-cpp:libvips-cpp.dll
 0002:00000428       __imp_?bandjoin@VImage@vips@@QEAA?AV12@V12@PEAVVOption@2@@Z 000000018002c428     libvips-cpp:libvips-cpp.dll
 0002:00000430       __imp_?extract_band@VImage@vips@@QEAA?AV12@HPEAVVOption@2@@Z 000000018002c430     libvips-cpp:libvips-cpp.dll
 0002:00000438       __imp_?extract_area@VImage@vips@@QEAA?AV12@HHHHPEAVVOption@2@@Z 000000018002c438     libvips-cpp:libvips-cpp.dll
 0002:00000440       __imp_?embed@VImage@vips@@QEAA?AV12@HHHHPEAVVOption@2@@Z 000000018002c440     libvips-cpp:libvips-cpp.dll
 0002:00000448       __imp_?tilecache@VImage@vips@@QEAA?AV12@PEAVVOption@2@@Z 000000018002c448     libvips-cpp:libvips-cpp.dll
 0002:00000450       __imp_?copy@VImage@vips@@QEAA?AV12@PEAVVOption@2@@Z 000000018002c450     libvips-cpp:libvips-cpp.dll
 0002:00000458       __imp_?profile@VImage@vips@@QEAA?AV12@PEAV12@PEAVVOption@2@@Z 000000018002c458     libvips-cpp:libvips-cpp.dll
 0002:00000460       __imp_?project@VImage@vips@@QEAA?AV12@PEAV12@PEAVVOption@2@@Z 000000018002c460     libvips-cpp:libvips-cpp.dll
 0002:00000468       __imp_?hist_find@VImage@vips@@QEAA?AV12@PEAVVOption@2@@Z 000000018002c468     libvips-cpp:libvips-cpp.dll
 0002:00000470       __imp_?stats@VImage@vips@@QEAA?AV12@PEAVVOption@2@@Z 000000018002c470     libvips-cpp:libvips-cpp.dll
 0002:00000478       __imp_?max@VImage@vips@@QEAANPEAVVOption@2@@Z 000000018002c478     libvips-cpp:libvips-cpp.dll
 0002:00000480       __imp_?bands@VImage@vips@@QEAAHXZ 000000018002c480     libvips-cpp:libvips-cpp.dll
 0002:00000488       __imp_?abs@VImage@vips@@QEAA?AV12@PEAVVOption@2@@Z 000000018002c488     libvips-cpp:libvips-cpp.dll
 0002:00000490       __imp_?boolean@VImage@vips@@QEAA?AV12@V12@W4VipsOperationBoolean@@PEAVVOption@2@@Z 000000018002c490     libvips-cpp:libvips-cpp.dll
 0002:00000498       __imp_?new_matrixv@VImage@vips@@SA?AV12@HHZZ 000000018002c498     libvips-cpp:libvips-cpp.dll
 0002:000004a0       __imp_??Kvips@@YA?AVVImage@0@V10@N@Z 000000018002c4a0     libvips-cpp:libvips-cpp.dll
 0002:000004a8       __imp_??Gvips@@YA?AVVImage@0@V10@V?$vector@NV?$allocator@N@std@@@std@@@Z 000000018002c4a8     libvips-cpp:libvips-cpp.dll
 0002:000004b0       __imp_??0VImage@vips@@QEAA@$$QEAV01@@Z 000000018002c4b0     libvips-cpp:libvips-cpp.dll
 0002:000004b8       __imp_?median@VImage@vips@@QEAA?AV12@HPEAVVOption@2@@Z 000000018002c4b8     libvips-cpp:libvips-cpp.dll
 0002:000004c0       __imp_?rot90@VImage@vips@@QEAA?AV12@PEAVVOption@2@@Z 000000018002c4c0     libvips-cpp:libvips-cpp.dll
 0002:000004c8       __imp_?flipver@VImage@vips@@QEAA?AV12@PEAVVOption@2@@Z 000000018002c4c8     libvips-cpp:libvips-cpp.dll
 0002:000004d0       __imp_??0VError@vips@@QEAA@V?$basic_string@DU?$char_traits@D@std@@V?$allocator@D@2@@std@@@Z 000000018002c4d0     libvips-cpp:libvips-cpp.dll
 0002:000004d8       __imp_?linear@VImage@vips@@QEAA?AV12@NNPEAVVOption@2@@Z 000000018002c4d8     libvips-cpp:libvips-cpp.dll
 0002:000004e0       __imp_?format@VImage@vips@@QEAA?AW4VipsBandFormat@@XZ 000000018002c4e0     libvips-cpp:libvips-cpp.dll
 0002:000004e8       __imp_?new_from_name@VInterpolate@vips@@SA?AV12@PEBDPEAVVOption@2@@Z 000000018002c4e8     libvips-cpp:libvips-cpp.dll
 0002:000004f0       __imp_?set@VOption@vips@@QEAAPEAV12@PEBDVVInterpolate@2@@Z 000000018002c4f0     libvips-cpp:libvips-cpp.dll
 0002:000004f8       __imp_?icc_transform@VImage@vips@@QEAA?AV12@PEADPEAVVOption@2@@Z 000000018002c4f8     libvips-cpp:libvips-cpp.dll
 0002:00000500       __imp_?affine@VImage@vips@@QEAA?AV12@V?$vector@NV?$allocator@N@std@@@std@@PEAVVOption@2@@Z 000000018002c500     libvips-cpp:libvips-cpp.dll
 0002:00000508       __imp_?reducev@VImage@vips@@QEAA?AV12@NPEAVVOption@2@@Z 000000018002c508     libvips-cpp:libvips-cpp.dll
 0002:00000510       __imp_?reduceh@VImage@vips@@QEAA?AV12@NPEAVVOption@2@@Z 000000018002c510     libvips-cpp:libvips-cpp.dll
 0002:00000518       __imp_?shrinkv@VImage@vips@@QEAA?AV12@HPEAVVOption@2@@Z 000000018002c518     libvips-cpp:libvips-cpp.dll
 0002:00000520       __imp_?shrinkh@VImage@vips@@QEAA?AV12@HPEAVVOption@2@@Z 000000018002c520     libvips-cpp:libvips-cpp.dll
 0002:00000528       __imp_?tiffsave@VImage@vips@@QEAAXPEADPEAVVOption@2@@Z 000000018002c528     libvips-cpp:libvips-cpp.dll
 0002:00000530       __imp_?webpsave_buffer@VImage@vips@@QEAAPEAU_VipsBlob@@PEAVVOption@2@@Z 000000018002c530     libvips-cpp:libvips-cpp.dll
 0002:00000538       __imp_?webpsave@VImage@vips@@QEAAXPEADPEAVVOption@2@@Z 000000018002c538     libvips-cpp:libvips-cpp.dll
 0002:00000540       __imp_?jpegsave_buffer@VImage@vips@@QEAAPEAU_VipsBlob@@PEAVVOption@2@@Z 000000018002c540     libvips-cpp:libvips-cpp.dll
 0002:00000548       __imp_?jpegsave@VImage@vips@@QEAAXPEADPEAVVOption@2@@Z 000000018002c548     libvips-cpp:libvips-cpp.dll
 0002:00000550       __imp_?pngsave_buffer@VImage@vips@@QEAAPEAU_VipsBlob@@PEAVVOption@2@@Z 000000018002c550     libvips-cpp:libvips-cpp.dll
 0002:00000558       __imp_?pngsave@VImage@vips@@QEAAXPEADPEAVVOption@2@@Z 000000018002c558     libvips-cpp:libvips-cpp.dll
 0002:00000560       __imp_?dzsave@VImage@vips@@QEAAXPEADPEAVVOption@2@@Z 000000018002c560     libvips-cpp:libvips-cpp.dll
 0002:00000568       __imp_?vipssave@VImage@vips@@QEAAXPEADPEAVVOption@2@@Z 000000018002c568     libvips-cpp:libvips-cpp.dll
 0002:00000570       __imp_?webpload_buffer@VImage@vips@@SA?AV12@PEAU_VipsBlob@@PEAVVOption@2@@Z 000000018002c570     libvips-cpp:libvips-cpp.dll
 0002:00000578       __imp_?webpload@VImage@vips@@SA?AV12@PEADPEAVVOption@2@@Z 000000018002c578     libvips-cpp:libvips-cpp.dll
 0002:00000580       __imp_?jpegload_buffer@VImage@vips@@SA?AV12@PEAU_VipsBlob@@PEAVVOption@2@@Z 000000018002c580     libvips-cpp:libvips-cpp.dll
 0002:00000588       __imp_?jpegload@VImage@vips@@SA?AV12@PEADPEAVVOption@2@@Z 000000018002c588     libvips-cpp:libvips-cpp.dll
 0002:00000590       __imp_?unpremultiply@VImage@vips@@QEAA?AV12@PEAVVOption@2@@Z 000000018002c590     libvips-cpp:libvips-cpp.dll
 0002:00000598       __imp_?premultiply@VImage@vips@@QEAA?AV12@PEAVVOption@2@@Z 000000018002c598     libvips-cpp:libvips-cpp.dll
 0002:000005a0       __imp_?rot@VImage@vips@@QEAA?AV12@W4VipsAngle@@PEAVVOption@2@@Z 000000018002c5a0     libvips-cpp:libvips-cpp.dll
 0002:000005a8       __imp_?replicate@VImage@vips@@QEAA?AV12@HHPEAVVOption@2@@Z 000000018002c5a8     libvips-cpp:libvips-cpp.dll
 0002:000005b0       __imp_?flip@VImage@vips@@QEAA?AV12@W4VipsDirection@@PEAVVOption@2@@Z 000000018002c5b0     libvips-cpp:libvips-cpp.dll
 0002:000005b8       __imp_?invert@VImage@vips@@QEAA?AV12@PEAVVOption@2@@Z 000000018002c5b8     libvips-cpp:libvips-cpp.dll
 0002:000005c0       __imp_?new_from_image@VImage@vips@@QEAA?AV12@N@Z 000000018002c5c0     libvips-cpp:libvips-cpp.dll
 0002:000005c8       __imp_??0VInterpolate@vips@@QEAA@AEBV01@@Z 000000018002c5c8     libvips-cpp:libvips-cpp.dll
 0002:000005d0       __imp_??1VInterpolate@vips@@QEAA@XZ 000000018002c5d0     libvips-cpp:libvips-cpp.dll
 0002:000005d8       __imp_?write_to_memory@VImage@vips@@QEAAPEAXPEA_K@Z 000000018002c5d8     libvips-cpp:libvips-cpp.dll
 0002:000005e0       __imp_?dE00@VImage@vips@@QEAA?AV12@V12@PEAVVOption@2@@Z 000000018002c5e0     libvips-cpp:libvips-cpp.dll
 0002:000005e8       __imp_?what@VError@vips@@UEBAPEBDXZ 000000018002c5e8     libvips-cpp:libvips-cpp.dll
 0002:000005f0       __imp_?interpretation@VImage@vips@@QEAA?AW4VipsInterpretation@@XZ 000000018002c5f0     libvips-cpp:libvips-cpp.dll
 0002:000005f8       __imp_??1VError@vips@@UEAA@XZ 000000018002c5f8     libvips-cpp:libvips-cpp.dll
 0002:00000600       __imp_?xres@VImage@vips@@QEAANXZ 000000018002c600     libvips-cpp:libvips-cpp.dll
 0002:00000608       __imp_?set@VImage@vips@@QEAAXPEBDH@Z 000000018002c608     libvips-cpp:libvips-cpp.dll
 0002:00000610       __imp_?set@VImage@vips@@QEAAXPEBDN@Z 000000018002c610     libvips-cpp:libvips-cpp.dll
 0002:00000618       __imp_?set@VImage@vips@@QEAAXPEBD0@Z 000000018002c618     libvips-cpp:libvips-cpp.dll
 0002:00000620       __imp_?get_typeof@VImage@vips@@QEAA_KPEBD@Z 000000018002c620     libvips-cpp:libvips-cpp.dll
 0002:00000628       __imp_?get_int@VImage@vips@@QEAAHPEBD@Z 000000018002c628     libvips-cpp:libvips-cpp.dll
 0002:00000630       __imp_??0VImage@vips@@QEAA@XZ 000000018002c630     libvips-cpp:libvips-cpp.dll
 0002:00000638       __imp_?option@VImage@vips@@SAPEAVVOption@2@XZ 000000018002c638     libvips-cpp:libvips-cpp.dll
 0002:00000640       __imp_?fliphor@VImage@vips@@QEAA?AV12@PEAVVOption@2@@Z 000000018002c640     libvips-cpp:libvips-cpp.dll
 0002:00000648       __imp_?new_from_memory@VImage@vips@@SA?AV12@PEAX_KHHHW4VipsBandFormat@@@Z 000000018002c648     libvips-cpp:libvips-cpp.dll
 0002:00000650       __imp_??0VError@vips@@QEAA@AEBV01@@Z 000000018002c650     libvips-cpp:libvips-cpp.dll
 0002:00000658       __imp_??1VImage@vips@@QEAA@XZ 000000018002c658     libvips-cpp:libvips-cpp.dll
 0002:00000660       __imp_??0VImage@vips@@QEAA@AEBV01@@Z 000000018002c660     libvips-cpp:libvips-cpp.dll
 0002:00000668       __imp_??4VImage@vips@@QEAAAEAV01@$$QEAV01@@Z 000000018002c668     libvips-cpp:libvips-cpp.dll
 0002:00000670       __imp_?new_from_file@VImage@vips@@SA?AV12@PEBDPEAVVOption@2@@Z 000000018002c670     libvips-cpp:libvips-cpp.dll
 0002:00000678       __imp_?new_from_buffer@VImage@vips@@SA?AV12@PEAX_KPEBDPEAVVOption@2@@Z 000000018002c678     libvips-cpp:libvips-cpp.dll
 0002:00000680       __imp_?new_matrix@VImage@vips@@SA?AV12@HH@Z 000000018002c680     libvips-cpp:libvips-cpp.dll
 0002:00000688       __imp_?new_from_image@VImage@vips@@QEAA?AV12@V?$vector@NV?$allocator@N@std@@@std@@@Z 000000018002c688     libvips-cpp:libvips-cpp.dll
 0002:00000690       __imp_?colourspace@VImage@vips@@QEAA?AV12@W4VipsInterpretation@@PEAVVOption@2@@Z 000000018002c690     libvips-cpp:libvips-cpp.dll
 0002:00000698       __imp_??RVImage@vips@@QEAA?AV?$vector@NV?$allocator@N@std@@@std@@HH@Z 000000018002c698     libvips-cpp:libvips-cpp.dll
 0002:000006a0       __imp_?set@VOption@vips@@QEAAPEAV12@PEBD0@Z 000000018002c6a0     libvips-cpp:libvips-cpp.dll
 0002:000006a8       __imp_?set@VOption@vips@@QEAAPEAV12@PEBDN@Z 000000018002c6a8     libvips-cpp:libvips-cpp.dll
 0002:000006b0       __imp_?set@VOption@vips@@QEAAPEAV12@PEBDH@Z 000000018002c6b0     libvips-cpp:libvips-cpp.dll
 0002:000006b8       __imp_?get_image@VImage@vips@@QEAAPEAU_VipsImage@@XZ 000000018002c6b8     libvips-cpp:libvips-cpp.dll
 0002:000006c0       __imp_?min@VImage@vips@@QEAANPEAVVOption@2@@Z 000000018002c6c0     libvips-cpp:libvips-cpp.dll
 0002:000006c8       __imp_?flatten@VImage@vips@@QEAA?AV12@PEAVVOption@2@@Z 000000018002c6c8     libvips-cpp:libvips-cpp.dll
 0002:000006d0       \177libvips-cpp_NULL_THUNK_DATA 000000018002c6d0     libvips-cpp:libvips-cpp.dll
 0002:000006d8       __imp_?New@Number@v8@@SA?AV?$Local@VNumber@v8@@@2@PEAVIsolate@2@N@Z 000000018002c6d8     iojs:node.dll
 0002:000006e0       __imp_?IsBoolean@Value@v8@@QEBA_NXZ 000000018002c6e0     iojs:node.dll
 0002:000006e8       __imp_?IsInt32@Value@v8@@QEBA_NXZ 000000018002c6e8     iojs:node.dll
 0002:000006f0       __imp_?ToInteger@Value@v8@@QEBA?AV?$MaybeLocal@VInteger@v8@@@2@V?$Local@VContext@v8@@@2@@Z 000000018002c6f0     iojs:node.dll
 0002:000006f8       __imp_?ThrowException@Isolate@v8@@QEAA?AV?$Local@VValue@v8@@@2@V32@@Z 000000018002c6f8     iojs:node.dll
 0002:00000700       __imp_?New@Integer@v8@@SA?AV?$Local@VInteger@v8@@@2@PEAVIsolate@2@H@Z 000000018002c700     iojs:node.dll
 0002:00000708       __imp_node_module_register 000000018002c708     iojs:node.dll
 0002:00000710       __imp_?New@ObjectTemplate@v8@@SA?AV?$Local@VObjectTemplate@v8@@@2@PEAVIsolate@2@V?$Local@VFunctionTemplate@v8@@@2@@Z 000000018002c710     iojs:node.dll
 0002:00000718       __imp_?NewInstance@ObjectTemplate@v8@@QEAA?AV?$MaybeLocal@VObject@v8@@@2@V?$Local@VContext@v8@@@2@@Z 000000018002c718     iojs:node.dll
 0002:00000720       __imp_?SetInternalFieldCount@ObjectTemplate@v8@@QEAAXH@Z 000000018002c720     iojs:node.dll
 0002:00000728       __imp_?SetInternalField@Object@v8@@QEAAXHV?$Local@VValue@v8@@@2@@Z 000000018002c728     iojs:node.dll
 0002:00000730       __imp_?SlowGetInternalField@Object@v8@@AEAA?AV?$Local@VValue@v8@@@2@H@Z 000000018002c730     iojs:node.dll
 0002:00000738       __imp_?New@FunctionTemplate@v8@@SA?AV?$Local@VFunctionTemplate@v8@@@2@PEAVIsolate@2@P6AXAEBV?$FunctionCallbackInfo@VValue@v8@@@2@@ZV?$Local@VValue@v8@@@2@V?$Local@VSignature@v8@@@2@HW4ConstructorBehavior@2@@Z 000000018002c738     iojs:node.dll
 0002:00000740       __imp_?GetFunction@FunctionTemplate@v8@@QEAA?AV?$MaybeLocal@VFunction@v8@@@2@V?$Local@VContext@v8@@@2@@Z 000000018002c740     iojs:node.dll
 0002:00000748       __imp_?CreateHandle@HandleScope@v8@@CAPEAPEAVObject@internal@2@PEAVHeapObject@42@PEAV342@@Z 000000018002c748     iojs:node.dll
 0002:00000750       __imp_?New@External@v8@@SA?AV?$Local@VExternal@v8@@@2@PEAVIsolate@2@PEAX@Z 000000018002c750     iojs:node.dll
 0002:00000758       __imp_?Value@External@v8@@QEBAPEAXXZ 000000018002c758     iojs:node.dll
 0002:00000760       __imp_?BooleanValue@Value@v8@@QEBA?AV?$Maybe@_N@2@V?$Local@VContext@v8@@@2@@Z 000000018002c760     iojs:node.dll
 0002:00000768       __imp_?NumberValue@Value@v8@@QEBA?AV?$Maybe@N@2@V?$Local@VContext@v8@@@2@@Z 000000018002c768     iojs:node.dll
 0002:00000770       __imp_?Int32Value@Value@v8@@QEBA?AV?$Maybe@H@2@V?$Local@VContext@v8@@@2@@Z 000000018002c770     iojs:node.dll
 0002:00000778       __imp_uv_default_loop      000000018002c778     iojs:node.dll
 0002:00000780       __imp_?MakeCallback@node@@YA?AV?$Local@VValue@v8@@@v8@@PEAVIsolate@3@V?$Local@VObject@v8@@@3@V?$Local@VFunction@v8@@@3@HPEAV23@@Z 000000018002c780     iojs:node.dll
 0002:00000788       __imp_?New@Buffer@node@@YA?AV?$MaybeLocal@VObject@v8@@@v8@@PEAVIsolate@4@PEAD_KP6AX1PEAX@Z3@Z 000000018002c788     iojs:node.dll
 0002:00000790       __imp_?Set@Object@v8@@QEAA?AV?$Maybe@_N@2@V?$Local@VContext@v8@@@2@IV?$Local@VValue@v8@@@2@@Z 000000018002c790     iojs:node.dll
 0002:00000798       __imp_?Set@Object@v8@@QEAA?AV?$Maybe@_N@2@V?$Local@VContext@v8@@@2@V?$Local@VValue@v8@@@2@1@Z 000000018002c798     iojs:node.dll
 0002:000007a0       __imp_?Get@Object@v8@@QEAA?AV?$MaybeLocal@VValue@v8@@@2@V?$Local@VContext@v8@@@2@I@Z 000000018002c7a0     iojs:node.dll
 0002:000007a8       __imp_?New@Object@v8@@SA?AV?$Local@VObject@v8@@@2@PEAVIsolate@2@@Z 000000018002c7a8     iojs:node.dll
 0002:000007b0       __imp_?ToUint32@Value@v8@@QEBA?AV?$MaybeLocal@VUint32@v8@@@2@V?$Local@VContext@v8@@@2@@Z 000000018002c7b0     iojs:node.dll
 0002:000007b8       __imp_?GlobalizeReference@V8@v8@@CAPEAPEAVObject@internal@2@PEAVIsolate@42@PEAPEAV342@@Z 000000018002c7b8     iojs:node.dll
 0002:000007c0       __imp_?DisposeGlobal@V8@v8@@CAXPEAPEAVObject@internal@2@@Z 000000018002c7c0     iojs:node.dll
 0002:000007c8       __imp_?Error@Exception@v8@@SA?AV?$Local@VValue@v8@@@2@V?$Local@VString@v8@@@2@@Z 000000018002c7c8     iojs:node.dll
 0002:000007d0       __imp_?CreateHandle@HandleScope@v8@@KAPEAPEAVObject@internal@2@PEAVIsolate@42@PEAV342@@Z 000000018002c7d0     iojs:node.dll
 0002:000007d8       __imp_?NewFromUnsigned@Integer@v8@@SA?AV?$Local@VInteger@v8@@@2@PEAVIsolate@2@I@Z 000000018002c7d8     iojs:node.dll
 0002:000007e0       __imp_?Global@Context@v8@@QEAA?AV?$Local@VObject@v8@@@2@XZ 000000018002c7e0     iojs:node.dll
 0002:000007e8       __imp_uv_queue_work        000000018002c7e8     iojs:node.dll
 0002:000007f0       __imp_??1EscapableHandleScope@v8@@QEAA@XZ 000000018002c7f0     iojs:node.dll
 0002:000007f8       __imp_?ToString@Value@v8@@QEBA?AV?$Local@VString@v8@@@2@XZ 000000018002c7f8     iojs:node.dll
 0002:00000800       __imp_?Length@Buffer@node@@YA_KV?$Local@VObject@v8@@@v8@@@Z 000000018002c800     iojs:node.dll
 0002:00000808       __imp_?Data@Buffer@node@@YAPEADV?$Local@VObject@v8@@@v8@@@Z 000000018002c808     iojs:node.dll
 0002:00000810       __imp_?Get@Object@v8@@QEAA?AV?$MaybeLocal@VValue@v8@@@2@V?$Local@VContext@v8@@@2@V?$Local@VValue@v8@@@2@@Z 000000018002c810     iojs:node.dll
 0002:00000818       __imp_?Has@Object@v8@@QEAA?AV?$Maybe@_N@2@V?$Local@VContext@v8@@@2@V?$Local@VValue@v8@@@2@@Z 000000018002c818     iojs:node.dll
 0002:00000820       __imp_?Length@String@v8@@QEBAHXZ 000000018002c820     iojs:node.dll
 0002:00000828       __imp_?WriteUtf8@String@v8@@QEBAHPEADHPEAHH@Z 000000018002c828     iojs:node.dll
 0002:00000830       __imp_?NewFromUtf8@String@v8@@SA?AV?$MaybeLocal@VString@v8@@@2@PEAVIsolate@2@PEBDW4NewStringType@2@H@Z 000000018002c830     iojs:node.dll
 0002:00000838       __imp_??0EscapableHandleScope@v8@@QEAA@PEAVIsolate@1@@Z 000000018002c838     iojs:node.dll
 0002:00000840       __imp_?Escape@EscapableHandleScope@v8@@AEAAPEAPEAVObject@internal@2@PEAPEAV342@@Z 000000018002c840     iojs:node.dll
 0002:00000848       __imp_?Uint32Value@Value@v8@@QEBA?AV?$Maybe@I@2@V?$Local@VContext@v8@@@2@@Z 000000018002c848     iojs:node.dll
 0002:00000850       __imp_?ToLocalEmpty@V8@v8@@CAXXZ 000000018002c850     iojs:node.dll
 0002:00000858       __imp_??0HandleScope@v8@@QEAA@PEAVIsolate@1@@Z 000000018002c858     iojs:node.dll
 0002:00000860       __imp_??1HandleScope@v8@@QEAA@XZ 000000018002c860     iojs:node.dll
 0002:00000868       __imp_?GetCurrent@Isolate@v8@@SAPEAV12@XZ 000000018002c868     iojs:node.dll
 0002:00000870       __imp_?GetCurrentContext@Isolate@v8@@QEAA?AV?$Local@VContext@v8@@@2@XZ 000000018002c870     iojs:node.dll
 0002:00000878       \177node_NULL_THUNK_DATA   000000018002c878     iojs:node.dll
 0002:00000880       __guard_check_icall_fptr   000000018002c880     LIBCMT:guard_support.obj
 0002:00000888       __guard_dispatch_icall_fptr 000000018002c888     LIBCMT:guard_support.obj
 0002:00000890       __xc_a                     000000018002c890     LIBCMT:initializers.obj
 0002:00000898       _register_sharp_           000000018002c898     sharp.obj
 0002:000008a0       __xc_z                     000000018002c8a0     LIBCMT:initializers.obj
 0002:000008a8       __xi_a                     000000018002c8a8     LIBCMT:initializers.obj
 0002:000008b0       __acrt_stdio_initializer   000000018002c8b0     libucrt:stdio_initializer.obj
 0002:000008b8       __acrt_multibyte_initializer 000000018002c8b8     libucrt:multibyte_initializer.obj
 0002:000008c0       __acrt_tran_fma3_initializer 000000018002c8c0     libucrt:fma3_initializer.obj
 0002:000008c8       __xi_z                     000000018002c8c8     LIBCMT:initializers.obj
 0002:000008d0       __xp_a                     000000018002c8d0     LIBCMT:initializers.obj
 0002:000008d8       __acrt_locale_terminator   000000018002c8d8     libucrt:locale_initializer.obj
 0002:000008e0       __dcrt_console_output_terminator 000000018002c8e0     libucrt:console_output_initializer.obj
 0002:000008e8       __acrt_stdio_terminator    000000018002c8e8     libucrt:stdio_initializer.obj
 0002:000008f0       __xp_z                     000000018002c8f0     LIBCMT:initializers.obj
 0002:000008f8       __xt_a                     000000018002c8f8     LIBCMT:initializers.obj
 0002:00000900       __xt_z                     000000018002c900     LIBCMT:initializers.obj
 0002:00000918       ??_7exception@std@@6B@     000000018002c918     libcpmt:xthrow.obj
 0002:00000928       ??_C@_0BC@EOODALEL@Unknown?5exception?$AA@ 000000018002c928     libcpmt:xthrow.obj
 0002:00000948       ??_7bad_alloc@std@@6B@     000000018002c948     libcpmt:xthrow.obj
 0002:00000958       ??_C@_0P@GHFPNOJB@bad?5allocation?$AA@ 000000018002c958     libcpmt:xthrow.obj
 0002:00000970       ??_7logic_error@std@@6B@   000000018002c970     libcpmt:xthrow.obj
 0002:00000988       ??_7length_error@std@@6B@  000000018002c988     libcpmt:xthrow.obj
 0002:000009a0       ??_7out_of_range@std@@6B@  000000018002c9a0     libcpmt:xthrow.obj
 0002:000009b8       ??_7bad_function_call@std@@6B@ 000000018002c9b8     libcpmt:xthrow.obj
 0002:000009c8       ??_C@_0BC@DPJNKNAF@bad?5function?5call?$AA@ 000000018002c9c8     libcpmt:xthrow.obj
 0002:000009e8       ??_7type_info@@6B@         000000018002c9e8     LIBCMT:std_type_info_static.obj
 0002:000009f0       _pRawDllMain               000000018002c9f0     LIBCMT:dll_dllmain.obj
 0002:000009f0       _pDefaultRawDllMain        000000018002c9f0     LIBCMT:dll_dllmain.obj
 0002:00000a10       ??_7bad_array_new_length@std@@6B@ 000000018002ca10     LIBCMT:throw_bad_alloc.obj
 0002:00000a20       ??_C@_0BF@KINCDENJ@bad?5array?5new?5length?$AA@ 000000018002ca20     LIBCMT:throw_bad_alloc.obj
 0002:00000a38       _pDestructExceptionObject  000000018002ca38     libvcruntime:frame.obj
 0002:00000a48       ??_7bad_exception@std@@6B@ 000000018002ca48     libvcruntime:frame.obj
 0002:00000a58       ??_C@_0O@DPKOEFFH@bad?5exception?$AA@ 000000018002ca58     libvcruntime:frame.obj
 0002:00000b68       ??_C@_1BC@DNHGCMLG@?$AAa?$AAd?$AAv?$AAa?$AAp?$AAi?$AA3?$AA2?$AA?$AA@ 000000018002cb68     libvcruntime:winapi_downlevel.obj
 0002:00000b80       ??_C@_1DM@KHCHBNEB@?$AAa?$AAp?$AAi?$AA?9?$AAm?$AAs?$AA?9?$AAw?$AAi?$AAn?$AA?9?$AAc?$AAo?$AAr?$AAe?$AA?9?$AAf?$AAi?$AAb?$AAe?$AAr?$AAs?$AA?9?$AAl?$AA1?$AA?9?$AA1?$AA?9?$AA1?$AA?$AA@ 000000018002cb80     libvcruntime:winapi_downlevel.obj
 0002:00000bc0       ??_C@_1DK@LPPGFMPP@?$AAa?$AAp?$AAi?$AA?9?$AAm?$AAs?$AA?9?$AAw?$AAi?$AAn?$AA?9?$AAc?$AAo?$AAr?$AAe?$AA?9?$AAs?$AAy?$AAn?$AAc?$AAh?$AA?9?$AAl?$AA1?$AA?9?$AA2?$AA?9?$AA0?$AA?$AA@ 000000018002cbc0     libvcruntime:winapi_downlevel.obj
 0002:00000c00       ??_C@_1BC@GDMECMAK@?$AAk?$AAe?$AAr?$AAn?$AAe?$AAl?$AA3?$AA2?$AA?$AA@ 000000018002cc00     libvcruntime:winapi_downlevel.obj
 0002:00000c20       ??_C@_08KNHFBNJ@FlsAlloc?$AA@ 000000018002cc20     libvcruntime:winapi_downlevel.obj
 0002:00000c38       ??_C@_07PEJMOBNF@FlsFree?$AA@ 000000018002cc38     libvcruntime:winapi_downlevel.obj
 0002:00000c48       ??_C@_0M@GDNOONDI@FlsGetValue?$AA@ 000000018002cc48     libvcruntime:winapi_downlevel.obj
 0002:00000c60       ??_C@_0M@JCPCPOEF@FlsSetValue?$AA@ 000000018002cc60     libvcruntime:winapi_downlevel.obj
 0002:00000c78       ??_C@_0BM@HCFOFFN@InitializeCriticalSectionEx?$AA@ 000000018002cc78     libvcruntime:winapi_downlevel.obj
 0002:00000fc0       ??_C@_08EHJDFFNH@__based?$CI?$AA@ 000000018002cfc0     libvcruntime:undname.obj
 0002:00000fd0       ??_C@_07KOLFKCDI@__cdecl?$AA@ 000000018002cfd0     libvcruntime:undname.obj
 0002:00000fd8       ??_C@_08GHMPAG@__pascal?$AA@ 000000018002cfd8     libvcruntime:undname.obj
 0002:00000fe8       ??_C@_09IFJBGAPI@__stdcall?$AA@ 000000018002cfe8     libvcruntime:undname.obj
 0002:00000ff8       ??_C@_0L@NPHFGOKO@__thiscall?$AA@ 000000018002cff8     libvcruntime:undname.obj
 0002:00001008       ??_C@_0L@JMKHOMEK@__fastcall?$AA@ 000000018002d008     libvcruntime:undname.obj
 0002:00001018       ??_C@_0N@BCKKPABJ@__vectorcall?$AA@ 000000018002d018     libvcruntime:undname.obj
 0002:00001028       ??_C@_09HIJEGCPM@__clrcall?$AA@ 000000018002d028     libvcruntime:undname.obj
 0002:00001034       ??_C@_06GHPCKEAG@__eabi?$AA@ 000000018002d034     libvcruntime:undname.obj
 0002:00001040       ??_C@_07JOMMBBKO@__ptr64?$AA@ 000000018002d040     libvcruntime:undname.obj
 0002:00001048       ??_C@_0L@PILCLIHE@__restrict?$AA@ 000000018002d048     libvcruntime:undname.obj
 0002:00001058       ??_C@_0M@GFIIJFMG@__unaligned?$AA@ 000000018002d058     libvcruntime:undname.obj
 0002:00001068       ??_C@_09DHDLOLLB@restrict?$CI?$AA@ 000000018002d068     libvcruntime:undname.obj
 0002:00001074       ??_C@_04NIHEBCM@?5new?$AA@ 000000018002d074     libvcruntime:undname.obj
 0002:00001080       ??_C@_07FPCDHGMM@?5delete?$AA@ 000000018002d080     libvcruntime:undname.obj
 0002:00001088       ??_C@_02GPIOPFAK@?$DO?$DO?$AA@ 000000018002d088     libvcruntime:undname.obj
 0002:0000108c       ??_C@_02FODMEDOG@?$DM?$DM?$AA@ 000000018002d08c     libvcruntime:undname.obj
 0002:00001090       ??_C@_01DCLJPIOD@?$CB?$AA@ 000000018002d090     libvcruntime:undname.obj
 0002:00001094       ??_C@_02EGOFBIJA@?$DN?$DN?$AA@ 000000018002d094     libvcruntime:undname.obj
 0002:00001098       ??_C@_02FDNJECIE@?$CB?$DN?$AA@ 000000018002d098     libvcruntime:undname.obj
 0002:0000109c       ??_C@_02GPECMEKF@?$FL?$FN?$AA@ 000000018002d09c     libvcruntime:undname.obj
 0002:000010a0       ??_C@_08LHJFAFGD@operator?$AA@ 000000018002d0a0     libvcruntime:undname.obj
 0002:000010ac       ??_C@_02HBOOOICD@?9?$DO?$AA@ 000000018002d0ac     libvcruntime:undname.obj
 0002:000010b0       ??_C@_01NBENCBCI@?$CK?$AA@ 000000018002d0b0     libvcruntime:undname.obj
 0002:000010b4       ??_C@_02ECNGHCIF@?$CL?$CL?$AA@ 000000018002d0b4     libvcruntime:undname.obj
 0002:000010b8       ??_C@_02BAABKJLB@?9?9?$AA@ 000000018002d0b8     libvcruntime:undname.obj
 0002:000010bc       ??_C@_01JOAMLHOP@?9?$AA@   000000018002d0bc     libvcruntime:undname.obj
 0002:000010c0       ??_C@_01MIFGBAGJ@?$CL?$AA@ 000000018002d0c0     libvcruntime:undname.obj
 0002:000010c4       ??_C@_01HNPIGOCE@?$CG?$AA@ 000000018002d0c4     libvcruntime:undname.obj
 0002:000010c8       ??_C@_03MNHNFDLC@?9?$DO?$CK?$AA@ 000000018002d0c8     libvcruntime:undname.obj
 0002:000010cc       ??_C@_01KMDKNFGN@?1?$AA@   000000018002d0cc     libvcruntime:undname.obj
 0002:000010d0       ??_C@_01FGNFDNOH@?$CF?$AA@ 000000018002d0d0     libvcruntime:undname.obj
 0002:000010d4       ??_C@_01MNNFJEPP@?$DM?$AA@ 000000018002d0d4     libvcruntime:undname.obj
 0002:000010d8       ??_C@_02EHCHHCKH@?$DM?$DN?$AA@ 000000018002d0d8     libvcruntime:undname.obj
 0002:000010dc       ??_C@_01PPODPGHN@?$DO?$AA@ 000000018002d0dc     libvcruntime:undname.obj
 0002:000010e0       ??_C@_02EEKDKGMJ@?$DO?$DN?$AA@ 000000018002d0e0     libvcruntime:undname.obj
 0002:000010e4       ??_C@_02HCKGKOFO@?$CI?$CJ?$AA@ 000000018002d0e4     libvcruntime:undname.obj
 0002:000010e8       ??_C@_01PJKLJHI@?$HO?$AA@  000000018002d0e8     libvcruntime:undname.obj
 0002:000010ec       ??_C@_01JKBOJNNK@?$FO?$AA@ 000000018002d0ec     libvcruntime:undname.obj
 0002:000010f0       ??_C@_01DNKMNLPK@?$HM?$AA@ 000000018002d0f0     libvcruntime:undname.obj
 0002:000010f4       ??_C@_02PPKAJPJL@?$CG?$CG?$AA@ 000000018002d0f4     libvcruntime:undname.obj
 0002:000010f8       ??_C@_02NONPIBCD@?$HM?$HM?$AA@ 000000018002d0f8     libvcruntime:undname.obj
 0002:000010fc       ??_C@_02FPIMKNGF@?$CK?$DN?$AA@ 000000018002d0fc     libvcruntime:undname.obj
 0002:00001100       ??_C@_02FOEOMHFC@?$CL?$DN?$AA@ 000000018002d100     libvcruntime:undname.obj
 0002:00001104       ??_C@_02FKMDLLOA@?9?$DN?$AA@ 000000018002d104     libvcruntime:undname.obj
 0002:00001108       ??_C@_02FJEHGPIO@?1?$DN?$AA@ 000000018002d108     libvcruntime:undname.obj
 0002:0000110c       ??_C@_02FENAOKFI@?$CF?$DN?$AA@ 000000018002d10c     libvcruntime:undname.obj
 0002:00001110       ??_C@_03IKFCCPFF@?$DO?$DO?$DN?$AA@ 000000018002d110     libvcruntime:undname.obj
 0002:00001114       ??_C@_03CDNPDDLA@?$DM?$DM?$DN?$AA@ 000000018002d114     libvcruntime:undname.obj
 0002:00001118       ??_C@_02FGJGFEAB@?$CG?$DN?$AA@ 000000018002d118     libvcruntime:undname.obj
 0002:0000111c       ??_C@_02DHLNPPGH@?$HM?$DN?$AA@ 000000018002d11c     libvcruntime:undname.obj
 0002:00001120       ??_C@_02MHEGNOJ@?$FO?$DN?$AA@ 000000018002d120     libvcruntime:undname.obj
 0002:00001128       ??_C@_09IFPLHPGF@?$GAvftable?8?$AA@ 000000018002d128     libvcruntime:undname.obj
 0002:00001138       ??_C@_09BLBHBJP@?$GAvbtable?8?$AA@ 000000018002d138     libvcruntime:undname.obj
 0002:00001148       ??_C@_07FEEIOKP@?$GAvcall?8?$AA@ 000000018002d148     libvcruntime:undname.obj
 0002:00001150       ??_C@_08LLFFHHDJ@?$GAtypeof?8?$AA@ 000000018002d150     libvcruntime:undname.obj
 0002:00001160       ??_C@_0BF@KDPPACIK@?$GAlocal?5static?5guard?8?$AA@ 000000018002d160     libvcruntime:undname.obj
 0002:00001178       ??_C@_08OBABFOLI@?$GAstring?8?$AA@ 000000018002d178     libvcruntime:undname.obj
 0002:00001188       ??_C@_0BD@JDLKDPAB@?$GAvbase?5destructor?8?$AA@ 000000018002d188     libvcruntime:undname.obj
 0002:000011a0       ??_C@_0BN@DEGPLNFK@?$GAvector?5deleting?5destructor?8?$AA@ 000000018002d1a0     libvcruntime:undname.obj
 0002:000011c0       ??_C@_0BO@OBMKPJIG@?$GAdefault?5constructor?5closure?8?$AA@ 000000018002d1c0     libvcruntime:undname.obj
 0002:000011e0       ??_C@_0BN@IMDCHIKM@?$GAscalar?5deleting?5destructor?8?$AA@ 000000018002d1e0     libvcruntime:undname.obj
 0002:00001200       ??_C@_0BO@PFGOCPJJ@?$GAvector?5constructor?5iterator?8?$AA@ 000000018002d200     libvcruntime:undname.obj
 0002:00001220       ??_C@_0BN@LFPFMEDL@?$GAvector?5destructor?5iterator?8?$AA@ 000000018002d220     libvcruntime:undname.obj
 0002:00001240       ??_C@_0CE@IKBNEHA@?$GAvector?5vbase?5constructor?5iterat@ 000000018002d240     libvcruntime:undname.obj
 0002:00001268       ??_C@_0BL@NILFHHPC@?$GAvirtual?5displacement?5map?8?$AA@ 000000018002d268     libvcruntime:undname.obj
 0002:00001288       ??_C@_0CB@JONCMFFK@?$GAeh?5vector?5constructor?5iterator?8@ 000000018002d288     libvcruntime:undname.obj
 0002:000012b0       ??_C@_0CA@GCEOPDGL@?$GAeh?5vector?5destructor?5iterator?8?$AA@ 000000018002d2b0     libvcruntime:undname.obj
 0002:000012d0       ??_C@_0CH@OOJPLCPH@?$GAeh?5vector?5vbase?5constructor?5ite@ 000000018002d2d0     libvcruntime:undname.obj
 0002:000012f8       ??_C@_0BL@LLKPOHJI@?$GAcopy?5constructor?5closure?8?$AA@ 000000018002d2f8     libvcruntime:undname.obj
 0002:00001318       ??_C@_0BA@KBCDOMBN@?$GAudt?5returning?8?$AA@ 000000018002d318     libvcruntime:undname.obj
 0002:00001328       ??_C@_03KLGMFNMG@?$GAEH?$AA@ 000000018002d328     libvcruntime:undname.obj
 0002:0000132c       ??_C@_05KHLCHHI@?$GARTTI?$AA@ 000000018002d32c     libvcruntime:undname.obj
 0002:00001338       ??_C@_0BA@KKLDJDLB@?$GAlocal?5vftable?8?$AA@ 000000018002d338     libvcruntime:undname.obj
 0002:00001348       ??_C@_0CE@IIHCMGGL@?$GAlocal?5vftable?5constructor?5closu@ 000000018002d348     libvcruntime:undname.obj
 0002:0000136c       ??_C@_06FHBGPFGH@?5new?$FL?$FN?$AA@ 000000018002d36c     libvcruntime:undname.obj
 0002:00001378       ??_C@_09LBNFPBCA@?5delete?$FL?$FN?$AA@ 000000018002d378     libvcruntime:undname.obj
 0002:00001388       ??_C@_0P@HJKNJFNN@?$GAomni?5callsig?8?$AA@ 000000018002d388     libvcruntime:undname.obj
 0002:00001398       ??_C@_0BL@CNOONJFP@?$GAplacement?5delete?5closure?8?$AA@ 000000018002d398     libvcruntime:undname.obj
 0002:000013b8       ??_C@_0BN@CKNJLHMB@?$GAplacement?5delete?$FL?$FN?5closure?8?$AA@ 000000018002d3b8     libvcruntime:undname.obj
 0002:000013d8       ??_C@_0CG@CFDHKGGD@?$GAmanaged?5vector?5constructor?5iter@ 000000018002d3d8     libvcruntime:undname.obj
 0002:00001400       ??_C@_0CF@IMGKMJNO@?$GAmanaged?5vector?5destructor?5itera@ 000000018002d400     libvcruntime:undname.obj
 0002:00001428       ??_C@_0CG@HLDDJMAG@?$GAeh?5vector?5copy?5constructor?5iter@ 000000018002d428     libvcruntime:undname.obj
 0002:00001450       ??_C@_0CM@FCBBDIGB@?$GAeh?5vector?5vbase?5copy?5constructo@ 000000018002d450     libvcruntime:undname.obj
 0002:00001480       ??_C@_0BL@CLIPGLGB@?$GAdynamic?5initializer?5for?5?8?$AA@ 000000018002d480     libvcruntime:undname.obj
 0002:000014a0       ??_C@_0CB@PDBIFEP@?$GAdynamic?5atexit?5destructor?5for?5?8@ 000000018002d4a0     libvcruntime:undname.obj
 0002:000014c8       ??_C@_0CD@CGAJBKEJ@?$GAvector?5copy?5constructor?5iterato@ 000000018002d4c8     libvcruntime:undname.obj
 0002:000014f0       ??_C@_0CJ@GJELGAMM@?$GAvector?5vbase?5copy?5constructor?5i@ 000000018002d4f0     libvcruntime:undname.obj
 0002:00001520       ??_C@_0CL@FGIJHLCE@?$GAmanaged?5vector?5copy?5constructor@ 000000018002d520     libvcruntime:undname.obj
 0002:00001550       ??_C@_0BM@PMGGMLDN@?$GAlocal?5static?5thread?5guard?8?$AA@ 000000018002d550     libvcruntime:undname.obj
 0002:00001570       ??_C@_0N@BDNMDMOL@operator?5?$CC?$CC?5?$AA@ 000000018002d570     libvcruntime:undname.obj
 0002:00001580       ??_C@_0BC@DAFEJGAK@?5Type?5Descriptor?8?$AA@ 000000018002d580     libvcruntime:undname.obj
 0002:00001598       ??_C@_0BM@LDKODKLH@?5Base?5Class?5Descriptor?5at?5?$CI?$AA@ 000000018002d598     libvcruntime:undname.obj
 0002:000015b8       ??_C@_0BD@LGICGFMM@?5Base?5Class?5Array?8?$AA@ 000000018002d5b8     libvcruntime:undname.obj
 0002:000015d0       ??_C@_0BN@MECKDCOJ@?5Class?5Hierarchy?5Descriptor?8?$AA@ 000000018002d5d0     libvcruntime:undname.obj
 0002:000015f0       ??_C@_0BK@CFCOFLF@?5Complete?5Object?5Locator?8?$AA@ 000000018002d5f0     libvcruntime:undname.obj
 0002:00001610       ??_C@_1EK@MBDPDCGA@?$AAM?$AAi?$AAc?$AAr?$AAo?$AAs?$AAo?$AAf?$AAt?$AA?5?$AAV?$AAi?$AAs?$AAu?$AAa?$AAl?$AA?5?$AAC?$AA?$CL?$AA?$CL?$AA?5?$AAR?$AAu?$AAn?$AAt?$AAi?$AAm?$AAe?$AA?5?$AAL?$AAi?$AAb@ 000000018002d610     libucrt:assert.obj
 0002:00001660       ??_C@_1FE@LHBLIKM@?$AAA?$AAs?$AAs?$AAe?$AAr?$AAt?$AAi?$AAo?$AAn?$AA?5?$AAf?$AAa?$AAi?$AAl?$AAe?$AAd?$AA?3?$AA?5?$AA?$CF?$AAT?$AAs?$AA?0?$AA?5?$AAf?$AAi?$AAl?$AAe?$AA?5?$AA?$CF?$AAT?$AAs?$AA?0@ 000000018002d660     libucrt:assert.obj
 0002:000016b8       ??_C@_1CE@OJBNHDMO@?$AAA?$AAs?$AAs?$AAe?$AAr?$AAt?$AAi?$AAo?$AAn?$AA?5?$AAf?$AAa?$AAi?$AAl?$AAe?$AAd?$AA?$CB?$AA?$AA@ 000000018002d6b8     libucrt:assert.obj
 0002:000016e0       ??_C@_1BE@PHKBBGE@?$AAP?$AAr?$AAo?$AAg?$AAr?$AAa?$AAm?$AA?3?$AA?5?$AA?$AA@ 000000018002d6e0     libucrt:assert.obj
 0002:000016f8       ??_C@_1O@HEMHKNDC@?$AAF?$AAi?$AAl?$AAe?$AA?3?$AA?5?$AA?$AA@ 000000018002d6f8     libucrt:assert.obj
 0002:00001708       ??_C@_1O@KCAFKHJE@?$AAL?$AAi?$AAn?$AAe?$AA?3?$AA?5?$AA?$AA@ 000000018002d708     libucrt:assert.obj
 0002:00001718       ??_C@_1BK@PEDCIPMA@?$AAE?$AAx?$AAp?$AAr?$AAe?$AAs?$AAs?$AAi?$AAo?$AAn?$AA?3?$AA?5?$AA?$AA@ 000000018002d718     libucrt:assert.obj
 0002:00001740       ??_C@_1OA@EGMLFBHJ@?$AAF?$AAo?$AAr?$AA?5?$AAi?$AAn?$AAf?$AAo?$AAr?$AAm?$AAa?$AAt?$AAi?$AAo?$AAn?$AA?5?$AAo?$AAn?$AA?5?$AAh?$AAo?$AAw?$AA?5?$AAy?$AAo?$AAu?$AAr?$AA?5?$AAp?$AAr?$AAo?$AAg@ 000000018002d740     libucrt:assert.obj
 0002:00001820       ??_C@_1HK@POCJMFGK@?$AA?$CI?$AAP?$AAr?$AAe?$AAs?$AAs?$AA?5?$AAR?$AAe?$AAt?$AAr?$AAy?$AA?5?$AAt?$AAo?$AA?5?$AAd?$AAe?$AAb?$AAu?$AAg?$AA?5?$AAt?$AAh?$AAe?$AA?5?$AAa?$AAp?$AAp?$AAl?$AAi?$AAc@ 000000018002d820     libucrt:assert.obj
 0002:000018a0       ??_C@_17LGKOMLJ@?$AA?4?$AA?4?$AA?4?$AA?$AA@ 000000018002d8a0     libucrt:assert.obj
 0002:000018a8       ??_C@_13LBAGMAIH@?$AA?6?$AA?$AA@ 000000018002d8a8     libucrt:assert.obj
 0002:000018ac       ??_C@_15IABLJNFO@?$AA?6?$AA?6?$AA?$AA@ 000000018002d8ac     libucrt:assert.obj
 0002:000018b8       ??_C@_1CO@EAEJAADC@?$AA?$DM?$AAp?$AAr?$AAo?$AAg?$AAr?$AAa?$AAm?$AA?5?$AAn?$AAa?$AAm?$AAe?$AA?5?$AAu?$AAn?$AAk?$AAn?$AAo?$AAw?$AAn?$AA?$DO?$AA?$AA@ 000000018002d8b8     libucrt:assert.obj
 0002:000018f0       __acrt_exception_action_table 000000018002d8f0     libucrt:exception_filter.obj
 0002:000019b0       __acrt_signal_action_table_count 000000018002d9b0     libucrt:exception_filter.obj
 0002:000019b8       __acrt_signal_action_first_fpe_index 000000018002d9b8     libucrt:exception_filter.obj
 0002:000019c0       __acrt_signal_action_fpe_count 000000018002d9c0     libucrt:exception_filter.obj
 0002:000019c8       ??_C@_1BI@BGOHAHKC@?$AAm?$AAs?$AAc?$AAo?$AAr?$AAe?$AAe?$AA?4?$AAd?$AAl?$AAl?$AA?$AA@ 000000018002d9c8     libucrt:exit.obj
 0002:000019e0       ??_C@_0P@MIGLKIOC@CorExitProcess?$AA@ 000000018002d9e0     libucrt:exit.obj
 0002:00001ae0       standard_lookup_table      000000018002dae0     libucrt:output.obj
 0002:00001b3c       ??_C@_06OJHGLDPL@?$CInull?$CJ?$AA@ 000000018002db3c     libucrt:output.obj
 0002:00001b48       ??_C@_1O@CEDCILHN@?$AA?$CI?$AAn?$AAu?$AAl?$AAl?$AA?$CJ?$AA?$AA@ 000000018002db48     libucrt:output.obj
 0002:00001d10       __lc_time_c                000000018002dd10     libucrt:nlsdata.obj
 0002:00001fd0       ??_C@_03KOEHGMDN@Sun?$AA@  000000018002dfd0     libucrt:nlsdata.obj
 0002:00001fd4       ??_C@_03PDAGKDH@Mon?$AA@   000000018002dfd4     libucrt:nlsdata.obj
 0002:00001fd8       ??_C@_03NAGEINEP@Tue?$AA@  000000018002dfd8     libucrt:nlsdata.obj
 0002:00001fdc       ??_C@_03MHOMLAJA@Wed?$AA@  000000018002dfdc     libucrt:nlsdata.obj
 0002:00001fe0       ??_C@_03IOFIKPDN@Thu?$AA@  000000018002dfe0     libucrt:nlsdata.obj
 0002:00001fe4       ??_C@_03IDIOELNC@Fri?$AA@  000000018002dfe4     libucrt:nlsdata.obj
 0002:00001fe8       ??_C@_03FEFJNEK@Sat?$AA@   000000018002dfe8     libucrt:nlsdata.obj
 0002:00001fec       ??_C@_06OOPIFAJ@Sunday?$AA@ 000000018002dfec     libucrt:nlsdata.obj
 0002:00001ff4       ??_C@_06JLEDEDGH@Monday?$AA@ 000000018002dff4     libucrt:nlsdata.obj
 0002:00002000       ??_C@_07BAAGCFCM@Tuesday?$AA@ 000000018002e000     libucrt:nlsdata.obj
 0002:00002008       ??_C@_09DLIGFAKA@Wednesday?$AA@ 000000018002e008     libucrt:nlsdata.obj
 0002:00002018       ??_C@_08HACCIKIA@Thursday?$AA@ 000000018002e018     libucrt:nlsdata.obj
 0002:00002024       ??_C@_06JECMNKMI@Friday?$AA@ 000000018002e024     libucrt:nlsdata.obj
 0002:00002030       ??_C@_08INBOOONO@Saturday?$AA@ 000000018002e030     libucrt:nlsdata.obj
 0002:0000203c       ??_C@_03JIHJHPIE@Jan?$AA@  000000018002e03c     libucrt:nlsdata.obj
 0002:00002040       ??_C@_03HJBDCHOM@Feb?$AA@  000000018002e040     libucrt:nlsdata.obj
 0002:00002044       ??_C@_03ODNJBKGA@Mar?$AA@  000000018002e044     libucrt:nlsdata.obj
 0002:00002048       ??_C@_03LEOLGMJP@Apr?$AA@  000000018002e048     libucrt:nlsdata.obj
 0002:0000204c       ??_C@_03CNMDKL@May?$AA@    000000018002e04c     libucrt:nlsdata.obj
 0002:00002050       ??_C@_03IDFGHECI@Jun?$AA@  000000018002e050     libucrt:nlsdata.obj
 0002:00002054       ??_C@_03LBGABGKK@Jul?$AA@  000000018002e054     libucrt:nlsdata.obj
 0002:00002058       ??_C@_03IFJFEIGA@Aug?$AA@  000000018002e058     libucrt:nlsdata.obj
 0002:0000205c       ??_C@_03GGCAPAJC@Sep?$AA@  000000018002e05c     libucrt:nlsdata.obj
 0002:00002060       ??_C@_03BMAOKBAD@Oct?$AA@  000000018002e060     libucrt:nlsdata.obj
 0002:00002064       ??_C@_03JPJOFNIA@Nov?$AA@  000000018002e064     libucrt:nlsdata.obj
 0002:00002068       ??_C@_03MKABNOCG@Dec?$AA@  000000018002e068     libucrt:nlsdata.obj
 0002:00002070       ??_C@_07CGJPFGJA@January?$AA@ 000000018002e070     libucrt:nlsdata.obj
 0002:00002078       ??_C@_08GNJGEPFN@February?$AA@ 000000018002e078     libucrt:nlsdata.obj
 0002:00002084       ??_C@_05HPCKOFNC@March?$AA@ 000000018002e084     libucrt:nlsdata.obj
 0002:0000208c       ??_C@_05DMJDNLEJ@April?$AA@ 000000018002e08c     libucrt:nlsdata.obj
 0002:00002094       ??_C@_04CNLMGBGM@June?$AA@ 000000018002e094     libucrt:nlsdata.obj
 0002:0000209c       ??_C@_04MIEPOIFP@July?$AA@ 000000018002e09c     libucrt:nlsdata.obj
 0002:000020a4       ??_C@_06LBBHFDDG@August?$AA@ 000000018002e0a4     libucrt:nlsdata.obj
 0002:000020b0       ??_C@_09BHHEALKD@September?$AA@ 000000018002e0b0     libucrt:nlsdata.obj
 0002:000020c0       ??_C@_07JJNFCEND@October?$AA@ 000000018002e0c0     libucrt:nlsdata.obj
 0002:000020c8       ??_C@_08HCHEGEOA@November?$AA@ 000000018002e0c8     libucrt:nlsdata.obj
 0002:000020d8       ??_C@_08EDHMEBNP@December?$AA@ 000000018002e0d8     libucrt:nlsdata.obj
 0002:000020e4       ??_C@_02DEDBPAFC@AM?$AA@   000000018002e0e4     libucrt:nlsdata.obj
 0002:000020e8       ??_C@_02CJNFDJBF@PM?$AA@   000000018002e0e8     libucrt:nlsdata.obj
 0002:000020f0       ??_C@_08BPBNCDIB@MM?1dd?1yy?$AA@ 000000018002e0f0     libucrt:nlsdata.obj
 0002:00002100       ??_C@_0BE@CKGJFCPC@dddd?0?5MMMM?5dd?0?5yyyy?$AA@ 000000018002e100     libucrt:nlsdata.obj
 0002:00002118       ??_C@_08JCCMCCIL@HH?3mm?3ss?$AA@ 000000018002e118     libucrt:nlsdata.obj
 0002:00002128       ??_C@_17MBGCMIPB@?$AAS?$AAu?$AAn?$AA?$AA@ 000000018002e128     libucrt:nlsdata.obj
 0002:00002130       ??_C@_17KBOMKBF@?$AAM?$AAo?$AAn?$AA?$AA@ 000000018002e130     libucrt:nlsdata.obj
 0002:00002138       ??_C@_17BMKGEGOJ@?$AAT?$AAu?$AAe?$AA?$AA@ 000000018002e138     libucrt:nlsdata.obj
 0002:00002140       ??_C@_17CJEDCEPE@?$AAW?$AAe?$AAd?$AA?$AA@ 000000018002e140     libucrt:nlsdata.obj
 0002:00002148       ??_C@_17PDPHAADD@?$AAT?$AAh?$AAu?$AA?$AA@ 000000018002e148     libucrt:nlsdata.obj
 0002:00002150       ??_C@_17HFOLPPLP@?$AAF?$AAr?$AAi?$AA?$AA@ 000000018002e150     libucrt:nlsdata.obj
 0002:00002158       ??_C@_17GGIBDPIH@?$AAS?$AAa?$AAt?$AA?$AA@ 000000018002e158     libucrt:nlsdata.obj
 0002:00002160       ??_C@_1O@IHNHDHPB@?$AAS?$AAu?$AAn?$AAd?$AAa?$AAy?$AA?$AA@ 000000018002e160     libucrt:nlsdata.obj
 0002:00002170       ??_C@_1O@MMNBFLIA@?$AAM?$AAo?$AAn?$AAd?$AAa?$AAy?$AA?$AA@ 000000018002e170     libucrt:nlsdata.obj
 0002:00002180       ??_C@_1BA@ENFBFFEK@?$AAT?$AAu?$AAe?$AAs?$AAd?$AAa?$AAy?$AA?$AA@ 000000018002e180     libucrt:nlsdata.obj
 0002:00002190       ??_C@_1BE@EBOGMDOH@?$AAW?$AAe?$AAd?$AAn?$AAe?$AAs?$AAd?$AAa?$AAy?$AA?$AA@ 000000018002e190     libucrt:nlsdata.obj
 0002:000021a8       ??_C@_1BC@HHMNLIHE@?$AAT?$AAh?$AAu?$AAr?$AAs?$AAd?$AAa?$AAy?$AA?$AA@ 000000018002e1a8     libucrt:nlsdata.obj
 0002:000021c0       ??_C@_1O@PDICJHAG@?$AAF?$AAr?$AAi?$AAd?$AAa?$AAy?$AA?$AA@ 000000018002e1c0     libucrt:nlsdata.obj
 0002:000021d0       ??_C@_1BC@ENMNNPAJ@?$AAS?$AAa?$AAt?$AAu?$AAr?$AAd?$AAa?$AAy?$AA?$AA@ 000000018002e1d0     libucrt:nlsdata.obj
 0002:000021e8       ??_C@_17DKNBKCHM@?$AAJ?$AAa?$AAn?$AA?$AA@ 000000018002e1e8     libucrt:nlsdata.obj
 0002:000021f0       ??_C@_17LMDJEKJN@?$AAF?$AAe?$AAb?$AA?$AA@ 000000018002e1f0     libucrt:nlsdata.obj
 0002:000021f8       ??_C@_17CKNLEDEC@?$AAM?$AAa?$AAr?$AA?$AA@ 000000018002e1f8     libucrt:nlsdata.obj
 0002:00002200       ??_C@_17LFPOIHDD@?$AAA?$AAp?$AAr?$AA?$AA@ 000000018002e200     libucrt:nlsdata.obj
 0002:00002208       ??_C@_17PNNKMEED@?$AAM?$AAa?$AAy?$AA?$AA@ 000000018002e208     libucrt:nlsdata.obj
 0002:00002210       ??_C@_17KCJGOCPB@?$AAJ?$AAu?$AAn?$AA?$AA@ 000000018002e210     libucrt:nlsdata.obj
 0002:00002218       ??_C@_17IJPCKHK@?$AAJ?$AAu?$AAl?$AA?$AA@ 000000018002e218     libucrt:nlsdata.obj
 0002:00002220       ??_C@_17ICPELBCN@?$AAA?$AAu?$AAg?$AA?$AA@ 000000018002e220     libucrt:nlsdata.obj
 0002:00002228       ??_C@_17HCHCOKMG@?$AAS?$AAe?$AAp?$AA?$AA@ 000000018002e228     libucrt:nlsdata.obj
 0002:00002230       ??_C@_17FNLKOI@?$AAO?$AAc?$AAt?$AA?$AA@ 000000018002e230     libucrt:nlsdata.obj
 0002:00002238       ??_C@_17BBDMLCIG@?$AAN?$AAo?$AAv?$AA?$AA@ 000000018002e238     libucrt:nlsdata.obj
 0002:00002240       ??_C@_17EGKACKIF@?$AAD?$AAe?$AAc?$AA?$AA@ 000000018002e240     libucrt:nlsdata.obj
 0002:00002248       ??_C@_1BA@EFMEIEBA@?$AAJ?$AAa?$AAn?$AAu?$AAa?$AAr?$AAy?$AA?$AA@ 000000018002e248     libucrt:nlsdata.obj
 0002:00002258       ??_C@_1BC@JGDDFFAM@?$AAF?$AAe?$AAb?$AAr?$AAu?$AAa?$AAr?$AAy?$AA?$AA@ 000000018002e258     libucrt:nlsdata.obj
 0002:00002270       ??_C@_1M@IKEENEDF@?$AAM?$AAa?$AAr?$AAc?$AAh?$AA?$AA@ 000000018002e270     libucrt:nlsdata.obj
 0002:00002280       ??_C@_1M@GJNLMHFD@?$AAA?$AAp?$AAr?$AAi?$AAl?$AA?$AA@ 000000018002e280     libucrt:nlsdata.obj
 0002:00002290       ??_C@_19EPFLPGAP@?$AAJ?$AAu?$AAn?$AAe?$AA?$AA@ 000000018002e290     libucrt:nlsdata.obj
 0002:000022a0       ??_C@_19BIFMLPCD@?$AAJ?$AAu?$AAl?$AAy?$AA?$AA@ 000000018002e2a0     libucrt:nlsdata.obj
 0002:000022b0       ??_C@_1O@PAHLKOAC@?$AAA?$AAu?$AAg?$AAu?$AAs?$AAt?$AA?$AA@ 000000018002e2b0     libucrt:nlsdata.obj
 0002:000022c0       ??_C@_1BE@DKAAMBJL@?$AAS?$AAe?$AAp?$AAt?$AAe?$AAm?$AAb?$AAe?$AAr?$AA?$AA@ 000000018002e2c0     libucrt:nlsdata.obj
 0002:000022d8       ??_C@_1BA@EPANDLNG@?$AAO?$AAc?$AAt?$AAo?$AAb?$AAe?$AAr?$AA?$AA@ 000000018002e2d8     libucrt:nlsdata.obj
 0002:000022e8       ??_C@_1BC@BGLIFPF@?$AAN?$AAo?$AAv?$AAe?$AAm?$AAb?$AAe?$AAr?$AA?$AA@ 000000018002e2e8     libucrt:nlsdata.obj
 0002:00002300       ??_C@_1BC@FEMKIFH@?$AAD?$AAe?$AAc?$AAe?$AAm?$AAb?$AAe?$AAr?$AA?$AA@ 000000018002e300     libucrt:nlsdata.obj
 0002:00002314       ??_C@_15ODEHAHHF@?$AAA?$AAM?$AA?$AA@ 000000018002e314     libucrt:nlsdata.obj
 0002:0000231c       ??_C@_15CLMNNGEL@?$AAP?$AAM?$AA?$AA@ 000000018002e31c     libucrt:nlsdata.obj
 0002:00002328       ??_C@_1BC@IEBCMHCM@?$AAM?$AAM?$AA?1?$AAd?$AAd?$AA?1?$AAy?$AAy?$AA?$AA@ 000000018002e328     libucrt:nlsdata.obj
 0002:00002340       ??_C@_1CI@KNAKOEBC@?$AAd?$AAd?$AAd?$AAd?$AA?0?$AA?5?$AAM?$AAM?$AAM?$AAM?$AA?5?$AAd?$AAd?$AA?0?$AA?5?$AAy?$AAy?$AAy?$AAy?$AA?$AA@ 000000018002e340     libucrt:nlsdata.obj
 0002:00002368       ??_C@_1BC@GDGBMEMK@?$AAH?$AAH?$AA?3?$AAm?$AAm?$AA?3?$AAs?$AAs?$AA?$AA@ 000000018002e368     libucrt:nlsdata.obj
 0002:00002380       ??_C@_1M@BMHNFIME@?$AAe?$AAn?$AA?9?$AAU?$AAS?$AA?$AA@ 000000018002e380     libucrt:nlsdata.obj
 0002:00002430       ??_C@_1EG@CNNIPFIM@?$AAa?$AAp?$AAi?$AA?9?$AAm?$AAs?$AA?9?$AAw?$AAi?$AAn?$AA?9?$AAa?$AAp?$AAp?$AAm?$AAo?$AAd?$AAe?$AAl?$AA?9?$AAr?$AAu?$AAn?$AAt?$AAi?$AAm?$AAe?$AA?9?$AAl?$AA1?$AA?9?$AA1@ 000000018002e430     libucrt:winapi_thunks.obj
 0002:00002480       ??_C@_1EA@JGEFHKEI@?$AAa?$AAp?$AAi?$AA?9?$AAm?$AAs?$AA?9?$AAw?$AAi?$AAn?$AA?9?$AAc?$AAo?$AAr?$AAe?$AA?9?$AAd?$AAa?$AAt?$AAe?$AAt?$AAi?$AAm?$AAe?$AA?9?$AAl?$AA1?$AA?9?$AA1?$AA?9?$AA1?$AA?$AA@ 000000018002e480     libucrt:winapi_thunks.obj
 0002:000024c0       ??_C@_1DI@GCIAAENM@?$AAa?$AAp?$AAi?$AA?9?$AAm?$AAs?$AA?9?$AAw?$AAi?$AAn?$AA?9?$AAc?$AAo?$AAr?$AAe?$AA?9?$AAf?$AAi?$AAl?$AAe?$AA?9?$AAl?$AA2?$AA?9?$AA1?$AA?9?$AA1?$AA?$AA@ 000000018002e4c0     libucrt:winapi_thunks.obj
 0002:00002500       ??_C@_1EI@MPIAOHOC@?$AAa?$AAp?$AAi?$AA?9?$AAm?$AAs?$AA?9?$AAw?$AAi?$AAn?$AA?9?$AAc?$AAo?$AAr?$AAe?$AA?9?$AAl?$AAo?$AAc?$AAa?$AAl?$AAi?$AAz?$AAa?$AAt?$AAi?$AAo?$AAn?$AA?9?$AAl?$AA1?$AA?9@ 000000018002e500     libucrt:winapi_thunks.obj
 0002:00002550       ??_C@_1FK@FPHCKFIE@?$AAa?$AAp?$AAi?$AA?9?$AAm?$AAs?$AA?9?$AAw?$AAi?$AAn?$AA?9?$AAc?$AAo?$AAr?$AAe?$AA?9?$AAl?$AAo?$AAc?$AAa?$AAl?$AAi?$AAz?$AAa?$AAt?$AAi?$AAo?$AAn?$AA?9?$AAo?$AAb?$AAs@ 000000018002e550     libucrt:winapi_thunks.obj
 0002:000025b0       ??_C@_1EM@DILCGIIO@?$AAa?$AAp?$AAi?$AA?9?$AAm?$AAs?$AA?9?$AAw?$AAi?$AAn?$AA?9?$AAc?$AAo?$AAr?$AAe?$AA?9?$AAp?$AAr?$AAo?$AAc?$AAe?$AAs?$AAs?$AAt?$AAh?$AAr?$AAe?$AAa?$AAd?$AAs?$AA?9?$AAl@ 000000018002e5b0     libucrt:winapi_thunks.obj
 0002:00002600       ??_C@_1DM@LNCGDDPN@?$AAa?$AAp?$AAi?$AA?9?$AAm?$AAs?$AA?9?$AAw?$AAi?$AAn?$AA?9?$AAc?$AAo?$AAr?$AAe?$AA?9?$AAs?$AAt?$AAr?$AAi?$AAn?$AAg?$AA?9?$AAl?$AA1?$AA?9?$AA1?$AA?9?$AA0?$AA?$AA@ 000000018002e600     libucrt:winapi_thunks.obj
 0002:00002640       ??_C@_1DO@FPAPJEMD@?$AAa?$AAp?$AAi?$AA?9?$AAm?$AAs?$AA?9?$AAw?$AAi?$AAn?$AA?9?$AAc?$AAo?$AAr?$AAe?$AA?9?$AAs?$AAy?$AAs?$AAi?$AAn?$AAf?$AAo?$AA?9?$AAl?$AA1?$AA?9?$AA2?$AA?9?$AA1?$AA?$AA@ 000000018002e640     libucrt:winapi_thunks.obj
 0002:00002680       ??_C@_1DK@NDHNAHIO@?$AAa?$AAp?$AAi?$AA?9?$AAm?$AAs?$AA?9?$AAw?$AAi?$AAn?$AA?9?$AAc?$AAo?$AAr?$AAe?$AA?9?$AAw?$AAi?$AAn?$AAr?$AAt?$AA?9?$AAl?$AA1?$AA?9?$AA1?$AA?9?$AA0?$AA?$AA@ 000000018002e680     libucrt:winapi_thunks.obj
 0002:000026c0       ??_C@_1DM@KGHDGBCM@?$AAa?$AAp?$AAi?$AA?9?$AAm?$AAs?$AA?9?$AAw?$AAi?$AAn?$AA?9?$AAc?$AAo?$AAr?$AAe?$AA?9?$AAx?$AAs?$AAt?$AAa?$AAt?$AAe?$AA?9?$AAl?$AA2?$AA?9?$AA1?$AA?9?$AA0?$AA?$AA@ 000000018002e6c0     libucrt:winapi_thunks.obj
 0002:00002700       ??_C@_1EO@IJIOEFOH@?$AAa?$AAp?$AAi?$AA?9?$AAm?$AAs?$AA?9?$AAw?$AAi?$AAn?$AA?9?$AAr?$AAt?$AAc?$AAo?$AAr?$AAe?$AA?9?$AAn?$AAt?$AAu?$AAs?$AAe?$AAr?$AA?9?$AAw?$AAi?$AAn?$AAd?$AAo?$AAw?$AA?9@ 000000018002e700     libucrt:winapi_thunks.obj
 0002:00002750       ??_C@_1FG@HHGEKANL@?$AAa?$AAp?$AAi?$AA?9?$AAm?$AAs?$AA?9?$AAw?$AAi?$AAn?$AA?9?$AAs?$AAe?$AAc?$AAu?$AAr?$AAi?$AAt?$AAy?$AA?9?$AAs?$AAy?$AAs?$AAt?$AAe?$AAm?$AAf?$AAu?$AAn?$AAc?$AAt?$AAi@ 000000018002e750     libucrt:winapi_thunks.obj
 0002:000027b0       ??_C@_1FG@NCKKOLKO@?$AAe?$AAx?$AAt?$AA?9?$AAm?$AAs?$AA?9?$AAw?$AAi?$AAn?$AA?9?$AAk?$AAe?$AAr?$AAn?$AAe?$AAl?$AA3?$AA2?$AA?9?$AAp?$AAa?$AAc?$AAk?$AAa?$AAg?$AAe?$AA?9?$AAc?$AAu?$AAr?$AAr@ 000000018002e7b0     libucrt:winapi_thunks.obj
 0002:00002810       ??_C@_1EG@DBIOJECG@?$AAe?$AAx?$AAt?$AA?9?$AAm?$AAs?$AA?9?$AAw?$AAi?$AAn?$AA?9?$AAn?$AAt?$AAu?$AAs?$AAe?$AAr?$AA?9?$AAd?$AAi?$AAa?$AAl?$AAo?$AAg?$AAb?$AAo?$AAx?$AA?9?$AAl?$AA1?$AA?9?$AA1@ 000000018002e810     libucrt:winapi_thunks.obj
 0002:00002860       ??_C@_1EO@FIHMJCLF@?$AAe?$AAx?$AAt?$AA?9?$AAm?$AAs?$AA?9?$AAw?$AAi?$AAn?$AA?9?$AAn?$AAt?$AAu?$AAs?$AAe?$AAr?$AA?9?$AAw?$AAi?$AAn?$AAd?$AAo?$AAw?$AAs?$AAt?$AAa?$AAt?$AAi?$AAo?$AAn?$AA?9@ 000000018002e860     libucrt:winapi_thunks.obj
 0002:000028b0       ??_C@_1O@BCCLBEOE@?$AAu?$AAs?$AAe?$AAr?$AA3?$AA2?$AA?$AA@ 000000018002e8b0     libucrt:winapi_thunks.obj
 0002:000028e8       ??_C@_0BA@HNOPNCHB@GetActiveWindow?$AA@ 000000018002e8e8     libucrt:winapi_thunks.obj
 0002:00002900       ??_C@_0BE@JOGNEJCI@GetCurrentPackageId?$AA@ 000000018002e900     libucrt:winapi_thunks.obj
 0002:00002920       ??_C@_0BD@HHGDFDBJ@GetLastActivePopup?$AA@ 000000018002e920     libucrt:winapi_thunks.obj
 0002:00002940       ??_C@_0BI@DFKBFLJE@GetProcessWindowStation?$AA@ 000000018002e940     libucrt:winapi_thunks.obj
 0002:00002960       ??_C@_0BK@DEKFELLI@GetUserObjectInformationW?$AA@ 000000018002e960     libucrt:winapi_thunks.obj
 0002:00002990       ??_C@_0O@KKBNKAPF@LCMapStringEx?$AA@ 000000018002e990     libucrt:winapi_thunks.obj
 0002:000029a8       ??_C@_0BB@HBDEELFH@LocaleNameToLCID?$AA@ 000000018002e9a8     libucrt:winapi_thunks.obj
 0002:000029c8       ??_C@_0M@CHKKJDAI@MessageBoxA?$AA@ 000000018002e9c8     libucrt:winapi_thunks.obj
 0002:000029e0       ??_C@_0M@DLDCCGNP@MessageBoxW?$AA@ 000000018002e9e0     libucrt:winapi_thunks.obj
 0002:00002a10       ??_C@_1M@HPNHIDJI@?$AAj?$AAa?$AA?9?$AAJ?$AAP?$AA?$AA@ 000000018002ea10     libucrt:mbctype.obj
 0002:00002a20       ??_C@_1M@BIBDDEMK@?$AAz?$AAh?$AA?9?$AAC?$AAN?$AA?$AA@ 000000018002ea20     libucrt:mbctype.obj
 0002:00002a30       ??_C@_1M@JLOOOEGK@?$AAk?$AAo?$AA?9?$AAK?$AAR?$AA?$AA@ 000000018002ea30     libucrt:mbctype.obj
 0002:00002a40       ??_C@_1M@CLNBBOPM@?$AAz?$AAh?$AA?9?$AAT?$AAW?$AA?$AA@ 000000018002ea40     libucrt:mbctype.obj
 0002:00002a4c       ??_C@_03OEIAHPBN@INF?$AA@  000000018002ea4c     libucrt:cvt.obj
 0002:00002a50       ??_C@_03OJHLLCGB@inf?$AA@  000000018002ea50     libucrt:cvt.obj
 0002:00002a54       ??_C@_03LKNCIKJB@NAN?$AA@  000000018002ea54     libucrt:cvt.obj
 0002:00002a58       ??_C@_03LHCJEHON@nan?$AA@  000000018002ea58     libucrt:cvt.obj
 0002:00002a60       ??_C@_09OFJJIMPC@NAN?$CISNAN?$CJ?$AA@ 000000018002ea60     libucrt:cvt.obj
 0002:00002a70       ??_C@_09IPFBKMDL@nan?$CIsnan?$CJ?$AA@ 000000018002ea70     libucrt:cvt.obj
 0002:00002a80       ??_C@_08IKHNHAJ@NAN?$CIIND?$CJ?$AA@ 000000018002ea80     libucrt:cvt.obj
 0002:00002a90       ??_C@_08OFCDMILK@nan?$CIind?$CJ?$AA@ 000000018002ea90     libucrt:cvt.obj
 0002:00002a9c       ??_C@_05KLBDPFGC@e?$CL000?$AA@ 000000018002ea9c     libucrt:cvt.obj
 0002:00002ab0       __newctype                 000000018002eab0     libucrt:ctype.obj
 0002:00002db0       __newclmap                 000000018002edb0     libucrt:ctype.obj
 0002:00002f30       __newcumap                 000000018002ef30     libucrt:ctype.obj
 0002:000030b0       _wctype                    000000018002f0b0     libucrt:ctype.obj
 0002:000032b4       ??_C@_15PJPFLCCM@?$AAu?$AAk?$AA?$AA@ 000000018002f2b4     libucrt:get_qualified_locale.obj
 0002:00004100       ??_C@_15EMKDOKLE@?$AAa?$AAr?$AA?$AA@ 0000000180030100     libucrt:lcidtoname_downlevel.obj
 0002:00004108       ??_C@_15KNPADPLH@?$AAb?$AAg?$AA?$AA@ 0000000180030108     libucrt:lcidtoname_downlevel.obj
 0002:00004110       ??_C@_15EDMHLDMO@?$AAc?$AAa?$AA?$AA@ 0000000180030110     libucrt:lcidtoname_downlevel.obj
 0002:00004118       ??_C@_1O@BPEAJADD@?$AAz?$AAh?$AA?9?$AAC?$AAH?$AAS?$AA?$AA@ 0000000180030118     libucrt:lcidtoname_downlevel.obj
 0002:00004128       ??_C@_15LJNHCMNK@?$AAc?$AAs?$AA?$AA@ 0000000180030128     libucrt:lcidtoname_downlevel.obj
 0002:00004130       ??_C@_15FOMCIDHG@?$AAd?$AAa?$AA?$AA@ 0000000180030130     libucrt:lcidtoname_downlevel.obj
 0002:00004138       ??_C@_15NBKABECB@?$AAd?$AAe?$AA?$AA@ 0000000180030138     libucrt:lcidtoname_downlevel.obj
 0002:00004140       ??_C@_15GHPEIIAO@?$AAe?$AAl?$AA?$AA@ 0000000180030140     libucrt:lcidtoname_downlevel.obj
 0002:00004148       ??_C@_15MNPNEAIF@?$AAe?$AAn?$AA?$AA@ 0000000180030148     libucrt:lcidtoname_downlevel.obj
 0002:00004150       ??_C@_15GPIOMPMH@?$AAe?$AAs?$AA?$AA@ 0000000180030150     libucrt:lcidtoname_downlevel.obj
 0002:00004158       ??_C@_15NGLOAKJC@?$AAf?$AAi?$AA?$AA@ 0000000180030158     libucrt:lcidtoname_downlevel.obj
 0002:00004160       ??_C@_15FBKGNKAM@?$AAf?$AAr?$AA?$AA@ 0000000180030160     libucrt:lcidtoname_downlevel.obj
 0002:00004168       ??_C@_15KGGCNEFK@?$AAh?$AAe?$AA?$AA@ 0000000180030168     libucrt:lcidtoname_downlevel.obj
 0002:00004170       ??_C@_15PGHLIDMF@?$AAh?$AAu?$AA?$AA@ 0000000180030170     libucrt:lcidtoname_downlevel.obj
 0002:00004178       ??_C@_15BIEMAPLM@?$AAi?$AAs?$AA?$AA@ 0000000180030178     libucrt:lcidtoname_downlevel.obj
 0002:00004180       ??_C@_15IFJLDHAF@?$AAi?$AAt?$AA?$AA@ 0000000180030180     libucrt:lcidtoname_downlevel.obj
 0002:00004188       ??_C@_15GEMIOCAG@?$AAj?$AAa?$AA?$AA@ 0000000180030188     libucrt:lcidtoname_downlevel.obj
 0002:00004190       ??_C@_15EPELEGJA@?$AAk?$AAo?$AA?$AA@ 0000000180030190     libucrt:lcidtoname_downlevel.obj
 0002:00004198       ??_C@_15NDDHIMN@?$AAn?$AAl?$AA?$AA@ 0000000180030198     libucrt:lcidtoname_downlevel.obj
 0002:000041a0       ??_C@_15BPIGNHCD@?$AAn?$AAo?$AA?$AA@ 00000001800301a0     libucrt:lcidtoname_downlevel.obj
 0002:000041a8       ??_C@_15DEOPBLCG@?$AAp?$AAl?$AA?$AA@ 00000001800301a8     libucrt:lcidtoname_downlevel.obj
 0002:000041b0       ??_C@_15KBECGEFG@?$AAp?$AAt?$AA?$AA@ 00000001800301b0     libucrt:lcidtoname_downlevel.obj
 0002:000041b8       ??_C@_15GLJCBFMD@?$AAr?$AAo?$AA?$AA@ 00000001800301b8     libucrt:lcidtoname_downlevel.obj
 0002:000041c0       ??_C@_15FEDGKCDI@?$AAr?$AAu?$AA?$AA@ 00000001800301c0     libucrt:lcidtoname_downlevel.obj
 0002:000041c8       ??_C@_15GLKMLLHM@?$AAh?$AAr?$AA?$AA@ 00000001800301c8     libucrt:lcidtoname_downlevel.obj
 0002:000041d0       ??_C@_15CPKMFBDB@?$AAs?$AAk?$AA?$AA@ 00000001800301d0     libucrt:lcidtoname_downlevel.obj
 0002:000041d8       ??_C@_15BAAIOGMK@?$AAs?$AAq?$AA?$AA@ 00000001800301d8     libucrt:lcidtoname_downlevel.obj
 0002:000041e0       ??_C@_15INNPNOHD@?$AAs?$AAv?$AA?$AA@ 00000001800301e0     libucrt:lcidtoname_downlevel.obj
 0002:000041e8       ??_C@_15CABMMOGH@?$AAt?$AAh?$AA?$AA@ 00000001800301e8     libucrt:lcidtoname_downlevel.obj
 0002:000041f0       ??_C@_15BPLIHJJM@?$AAt?$AAr?$AA?$AA@ 00000001800301f0     libucrt:lcidtoname_downlevel.obj
 0002:000041f8       ??_C@_15NEOEKKDJ@?$AAu?$AAr?$AA?$AA@ 00000001800301f8     libucrt:lcidtoname_downlevel.obj
 0002:00004200       ??_C@_15NFICGAJK@?$AAi?$AAd?$AA?$AA@ 0000000180030200     libucrt:lcidtoname_downlevel.obj
 0002:00004208       ??_C@_15HPJPHDM@?$AAb?$AAe?$AA?$AA@ 0000000180030208     libucrt:lcidtoname_downlevel.obj
 0002:00004210       ??_C@_15LCHLGJII@?$AAs?$AAl?$AA?$AA@ 0000000180030210     libucrt:lcidtoname_downlevel.obj
 0002:00004218       ??_C@_15PCFJPHHO@?$AAe?$AAt?$AA?$AA@ 0000000180030218     libucrt:lcidtoname_downlevel.obj
 0002:00004220       ??_C@_15HPFPGODN@?$AAl?$AAv?$AA?$AA@ 0000000180030220     libucrt:lcidtoname_downlevel.obj
 0002:00004228       ??_C@_15NFFGKGLG@?$AAl?$AAt?$AA?$AA@ 0000000180030228     libucrt:lcidtoname_downlevel.obj
 0002:00004230       ??_C@_15BDAKCCHN@?$AAf?$AAa?$AA?$AA@ 0000000180030230     libucrt:lcidtoname_downlevel.obj
 0002:00004238       ??_C@_15NFGIAIAJ@?$AAv?$AAi?$AA?$AA@ 0000000180030238     libucrt:lcidtoname_downlevel.obj
 0002:00004240       ??_C@_15LMKNDMHN@?$AAh?$AAy?$AA?$AA@ 0000000180030240     libucrt:lcidtoname_downlevel.obj
 0002:00004248       ??_C@_15IJBHMCFL@?$AAa?$AAz?$AA?$AA@ 0000000180030248     libucrt:lcidtoname_downlevel.obj
 0002:00004250       ??_C@_15EKOFJABL@?$AAe?$AAu?$AA?$AA@ 0000000180030250     libucrt:lcidtoname_downlevel.obj
 0002:00004258       ??_C@_15BGHADCNK@?$AAm?$AAk?$AA?$AA@ 0000000180030258     libucrt:lcidtoname_downlevel.obj
 0002:00004260       ??_C@_15JDNICKHM@?$AAa?$AAf?$AA?$AA@ 0000000180030260     libucrt:lcidtoname_downlevel.obj
 0002:00004268       ??_C@_15KPJEDBKD@?$AAk?$AAa?$AA?$AA@ 0000000180030268     libucrt:lcidtoname_downlevel.obj
 0002:00004270       ??_C@_15PDNFFFEO@?$AAf?$AAo?$AA?$AA@ 0000000180030270     libucrt:lcidtoname_downlevel.obj
 0002:00004278       ??_C@_15OMLEGLOC@?$AAh?$AAi?$AA?$AA@ 0000000180030278     libucrt:lcidtoname_downlevel.obj
 0002:00004280       ??_C@_15IDNNENKK@?$AAm?$AAs?$AA?$AA@ 0000000180030280     libucrt:lcidtoname_downlevel.obj
 0002:00004288       ??_C@_15MACJNBMH@?$AAk?$AAk?$AA?$AA@ 0000000180030288     libucrt:lcidtoname_downlevel.obj
 0002:00004290       ??_C@_15DKDJEOND@?$AAk?$AAy?$AA?$AA@ 0000000180030290     libucrt:lcidtoname_downlevel.obj
 0002:00004298       ??_C@_15DFGDLJBG@?$AAs?$AAw?$AA?$AA@ 0000000180030298     libucrt:lcidtoname_downlevel.obj
 0002:000042a0       ??_C@_15BBFAICNG@?$AAu?$AAz?$AA?$AA@ 00000001800302a0     libucrt:lcidtoname_downlevel.obj
 0002:000042a8       ??_C@_15DKNDCGEA@?$AAt?$AAt?$AA?$AA@ 00000001800302a8     libucrt:lcidtoname_downlevel.obj
 0002:000042b0       ??_C@_15MGIFMDPL@?$AAp?$AAa?$AA?$AA@ 00000001800302b0     libucrt:lcidtoname_downlevel.obj
 0002:000042b8       ??_C@_15HCNDBBA@?$AAg?$AAu?$AA?$AA@ 00000001800302b8     libucrt:lcidtoname_downlevel.obj
 0002:000042c0       ??_C@_15FNBEIBON@?$AAt?$AAa?$AA?$AA@ 00000001800302c0     libucrt:lcidtoname_downlevel.obj
 0002:000042c8       ??_C@_15NCHGBGLK@?$AAt?$AAe?$AA?$AA@ 00000001800302c8     libucrt:lcidtoname_downlevel.obj
 0002:000042d0       ??_C@_15PHPHCBPF@?$AAk?$AAn?$AA?$AA@ 00000001800302d0     libucrt:lcidtoname_downlevel.obj
 0002:000042d8       ??_C@_15DLGBCKMP@?$AAm?$AAr?$AA?$AA@ 00000001800302d8     libucrt:lcidtoname_downlevel.obj
 0002:000042e0       ??_C@_15EABBLBFF@?$AAs?$AAa?$AA?$AA@ 00000001800302e0     libucrt:lcidtoname_downlevel.obj
 0002:000042e8       ??_C@_15CBKOMCOI@?$AAm?$AAn?$AA?$AA@ 00000001800302e8     libucrt:lcidtoname_downlevel.obj
 0002:000042f0       ??_C@_15CKDMCJAF@?$AAg?$AAl?$AA?$AA@ 00000001800302f0     libucrt:lcidtoname_downlevel.obj
 0002:000042f8       ??_C@_17CNJFBPG@?$AAk?$AAo?$AAk?$AA?$AA@ 00000001800302f8     libucrt:lcidtoname_downlevel.obj
 0002:00004300       ??_C@_17FFBJICPL@?$AAs?$AAy?$AAr?$AA?$AA@ 0000000180030300     libucrt:lcidtoname_downlevel.obj
 0002:00004308       ??_C@_17KPNDCPAF@?$AAd?$AAi?$AAv?$AA?$AA@ 0000000180030308     libucrt:lcidtoname_downlevel.obj
 0002:00004310       ??_C@_11LOCGONAA@?$AA?$AA@ 0000000180030310     libucrt:lcidtoname_downlevel.obj
 0002:00004318       ??_C@_1M@OKAHONE@?$AAa?$AAr?$AA?9?$AAS?$AAA?$AA?$AA@ 0000000180030318     libucrt:lcidtoname_downlevel.obj
 0002:00004328       ??_C@_1M@FFFIGIGK@?$AAb?$AAg?$AA?9?$AAB?$AAG?$AA?$AA@ 0000000180030328     libucrt:lcidtoname_downlevel.obj
 0002:00004338       ??_C@_1M@BJNKEDC@?$AAc?$AAa?$AA?9?$AAE?$AAS?$AA?$AA@ 0000000180030338     libucrt:lcidtoname_downlevel.obj
 0002:00004348       ??_C@_1M@IJJHFJHA@?$AAc?$AAs?$AA?9?$AAC?$AAZ?$AA?$AA@ 0000000180030348     libucrt:lcidtoname_downlevel.obj
 0002:00004358       ??_C@_1M@CLPEOBGI@?$AAd?$AAa?$AA?9?$AAD?$AAK?$AA?$AA@ 0000000180030358     libucrt:lcidtoname_downlevel.obj
 0002:00004368       ??_C@_1M@MCMADGCB@?$AAd?$AAe?$AA?9?$AAD?$AAE?$AA?$AA@ 0000000180030368     libucrt:lcidtoname_downlevel.obj
 0002:00004378       ??_C@_1M@OOCKEMAM@?$AAe?$AAl?$AA?9?$AAG?$AAR?$AA?$AA@ 0000000180030378     libucrt:lcidtoname_downlevel.obj
 0002:00004388       ??_C@_1M@DDNJFGID@?$AAf?$AAi?$AA?9?$AAF?$AAI?$AA?$AA@ 0000000180030388     libucrt:lcidtoname_downlevel.obj
 0002:00004398       ??_C@_1M@GLIPPMAC@?$AAf?$AAr?$AA?9?$AAF?$AAR?$AA?$AA@ 0000000180030398     libucrt:lcidtoname_downlevel.obj
 0002:000043a8       ??_C@_1M@GFMCHPE@?$AAh?$AAe?$AA?9?$AAI?$AAL?$AA?$AA@ 00000001800303a8     libucrt:lcidtoname_downlevel.obj
 0002:000043b8       ??_C@_1M@MHLPGNKM@?$AAh?$AAu?$AA?9?$AAH?$AAU?$AA?$AA@ 00000001800303b8     libucrt:lcidtoname_downlevel.obj
 0002:000043c8       ??_C@_1M@LPDDNNPN@?$AAi?$AAs?$AA?9?$AAI?$AAS?$AA?$AA@ 00000001800303c8     libucrt:lcidtoname_downlevel.obj
 0002:000043d8       ??_C@_1M@MADIPODN@?$AAi?$AAt?$AA?9?$AAI?$AAT?$AA?$AA@ 00000001800303d8     libucrt:lcidtoname_downlevel.obj
 0002:000043e8       ??_C@_1M@IHBJJGG@?$AAn?$AAl?$AA?9?$AAN?$AAL?$AA?$AA@ 00000001800303e8     libucrt:lcidtoname_downlevel.obj
 0002:000043f8       ??_C@_1M@EANAGDL@?$AAn?$AAb?$AA?9?$AAN?$AAO?$AA?$AA@ 00000001800303f8     libucrt:lcidtoname_downlevel.obj
 0002:00004408       ??_C@_1M@NEIEMEGP@?$AAp?$AAl?$AA?9?$AAP?$AAL?$AA?$AA@ 0000000180030408     libucrt:lcidtoname_downlevel.obj
 0002:00004418       ??_C@_1M@BOCFIGEP@?$AAp?$AAt?$AA?9?$AAB?$AAR?$AA?$AA@ 0000000180030418     libucrt:lcidtoname_downlevel.obj
 0002:00004428       ??_C@_1M@IMPFOPBG@?$AAr?$AAo?$AA?9?$AAR?$AAO?$AA?$AA@ 0000000180030428     libucrt:lcidtoname_downlevel.obj
 0002:00004438       ??_C@_1M@IDNNEJMM@?$AAr?$AAu?$AA?9?$AAR?$AAU?$AA?$AA@ 0000000180030438     libucrt:lcidtoname_downlevel.obj
 0002:00004448       ??_C@_1M@LILEEOGM@?$AAh?$AAr?$AA?9?$AAH?$AAR?$AA?$AA@ 0000000180030448     libucrt:lcidtoname_downlevel.obj
 0002:00004458       ??_C@_1M@FKIFEHPB@?$AAs?$AAk?$AA?9?$AAS?$AAK?$AA?$AA@ 0000000180030458     libucrt:lcidtoname_downlevel.obj
 0002:00004468       ??_C@_1M@LJMAMNPJ@?$AAs?$AAq?$AA?9?$AAA?$AAL?$AA?$AA@ 0000000180030468     libucrt:lcidtoname_downlevel.obj
 0002:00004478       ??_C@_1M@GIAKDKJK@?$AAs?$AAv?$AA?9?$AAS?$AAE?$AA?$AA@ 0000000180030478     libucrt:lcidtoname_downlevel.obj
 0002:00004488       ??_C@_1M@MKJKIKCL@?$AAt?$AAh?$AA?9?$AAT?$AAH?$AA?$AA@ 0000000180030488     libucrt:lcidtoname_downlevel.obj
 0002:00004498       ??_C@_1M@MFLCCMPB@?$AAt?$AAr?$AA?9?$AAT?$AAR?$AA?$AA@ 0000000180030498     libucrt:lcidtoname_downlevel.obj
 0002:000044a8       ??_C@_1M@OIJHDKJN@?$AAu?$AAr?$AA?9?$AAP?$AAK?$AA?$AA@ 00000001800304a8     libucrt:lcidtoname_downlevel.obj
 0002:000044b8       ??_C@_1M@LHIPCIEK@?$AAi?$AAd?$AA?9?$AAI?$AAD?$AA?$AA@ 00000001800304b8     libucrt:lcidtoname_downlevel.obj
 0002:000044c8       ??_C@_1M@MFMOBGI@?$AAu?$AAk?$AA?9?$AAU?$AAA?$AA?$AA@ 00000001800304c8     libucrt:lcidtoname_downlevel.obj
 0002:000044d8       ??_C@_1M@OBGLJIPL@?$AAb?$AAe?$AA?9?$AAB?$AAY?$AA?$AA@ 00000001800304d8     libucrt:lcidtoname_downlevel.obj
 0002:000044e8       ??_C@_1M@BCFAJEAD@?$AAs?$AAl?$AA?9?$AAS?$AAI?$AA?$AA@ 00000001800304e8     libucrt:lcidtoname_downlevel.obj
 0002:000044f8       ??_C@_1M@FKFFEDDN@?$AAe?$AAt?$AA?9?$AAE?$AAE?$AA?$AA@ 00000001800304f8     libucrt:lcidtoname_downlevel.obj
 0002:00004508       ??_C@_1M@KGKKAACI@?$AAl?$AAv?$AA?9?$AAL?$AAV?$AA?$AA@ 0000000180030508     libucrt:lcidtoname_downlevel.obj
 0002:00004518       ??_C@_1M@IFGBIJO@?$AAl?$AAt?$AA?9?$AAL?$AAT?$AA?$AA@ 0000000180030518     libucrt:lcidtoname_downlevel.obj
 0002:00004528       ??_C@_1M@FGEAHEDM@?$AAf?$AAa?$AA?9?$AAI?$AAR?$AA?$AA@ 0000000180030528     libucrt:lcidtoname_downlevel.obj
 0002:00004538       ??_C@_1M@KBMAIBFN@?$AAv?$AAi?$AA?9?$AAV?$AAN?$AA?$AA@ 0000000180030538     libucrt:lcidtoname_downlevel.obj
 0002:00004548       ??_C@_1M@GPCBKDJK@?$AAh?$AAy?$AA?9?$AAA?$AAM?$AA?$AA@ 0000000180030548     libucrt:lcidtoname_downlevel.obj
 0002:00004558       ??_C@_1BG@BECMDDJB@?$AAa?$AAz?$AA?9?$AAA?$AAZ?$AA?9?$AAL?$AAa?$AAt?$AAn?$AA?$AA@ 0000000180030558     libucrt:lcidtoname_downlevel.obj
 0002:00004570       ??_C@_1M@MAOFCAEA@?$AAe?$AAu?$AA?9?$AAE?$AAS?$AA?$AA@ 0000000180030570     libucrt:lcidtoname_downlevel.obj
 0002:00004580       ??_C@_1M@IGHABKPI@?$AAm?$AAk?$AA?9?$AAM?$AAK?$AA?$AA@ 0000000180030580     libucrt:lcidtoname_downlevel.obj
 0002:00004590       ??_C@_1M@IAIGNEJG@?$AAt?$AAn?$AA?9?$AAZ?$AAA?$AA?$AA@ 0000000180030590     libucrt:lcidtoname_downlevel.obj
 0002:000045a0       ??_C@_1M@IIJCOJFA@?$AAx?$AAh?$AA?9?$AAZ?$AAA?$AA?$AA@ 00000001800305a0     libucrt:lcidtoname_downlevel.obj
 0002:000045b0       ??_C@_1M@LGPJHNJH@?$AAz?$AAu?$AA?9?$AAZ?$AAA?$AA?$AA@ 00000001800305b0     libucrt:lcidtoname_downlevel.obj
 0002:000045c0       ??_C@_1M@HOKAOIO@?$AAa?$AAf?$AA?9?$AAZ?$AAA?$AA?$AA@ 00000001800305c0     libucrt:lcidtoname_downlevel.obj
 0002:000045d0       ??_C@_1M@DPCLHLIE@?$AAk?$AAa?$AA?9?$AAG?$AAE?$AA?$AA@ 00000001800305d0     libucrt:lcidtoname_downlevel.obj
 0002:000045e0       ??_C@_1M@BLKMHJBI@?$AAf?$AAo?$AA?9?$AAF?$AAO?$AA?$AA@ 00000001800305e0     libucrt:lcidtoname_downlevel.obj
 0002:000045f0       ??_C@_1M@LGGJAPPB@?$AAh?$AAi?$AA?9?$AAI?$AAN?$AA?$AA@ 00000001800305f0     libucrt:lcidtoname_downlevel.obj
 0002:00004600       ??_C@_1M@FIKPIHFE@?$AAm?$AAt?$AA?9?$AAM?$AAT?$AA?$AA@ 0000000180030600     libucrt:lcidtoname_downlevel.obj
 0002:00004610       ??_C@_1M@HEGGPBFA@?$AAs?$AAe?$AA?9?$AAN?$AAO?$AA?$AA@ 0000000180030610     libucrt:lcidtoname_downlevel.obj
 0002:00004620       ??_C@_1M@EIBJEEPA@?$AAm?$AAs?$AA?9?$AAM?$AAY?$AA?$AA@ 0000000180030620     libucrt:lcidtoname_downlevel.obj
 0002:00004630       ??_C@_1M@FHLBGMPP@?$AAk?$AAk?$AA?9?$AAK?$AAZ?$AA?$AA@ 0000000180030630     libucrt:lcidtoname_downlevel.obj
 0002:00004640       ??_C@_1M@NGJJLCGI@?$AAk?$AAy?$AA?9?$AAK?$AAG?$AA?$AA@ 0000000180030640     libucrt:lcidtoname_downlevel.obj
 0002:00004650       ??_C@_1M@GIENNBFC@?$AAs?$AAw?$AA?9?$AAK?$AAE?$AA?$AA@ 0000000180030650     libucrt:lcidtoname_downlevel.obj
 0002:00004660       ??_C@_1BG@NDGMJIMJ@?$AAu?$AAz?$AA?9?$AAU?$AAZ?$AA?9?$AAL?$AAa?$AAt?$AAn?$AA?$AA@ 0000000180030660     libucrt:lcidtoname_downlevel.obj
 0002:00004678       ??_C@_1M@IDCCIHBC@?$AAt?$AAt?$AA?9?$AAR?$AAU?$AA?$AA@ 0000000180030678     libucrt:lcidtoname_downlevel.obj
 0002:00004688       ??_C@_1M@LOICPMOJ@?$AAb?$AAn?$AA?9?$AAI?$AAN?$AA?$AA@ 0000000180030688     libucrt:lcidtoname_downlevel.obj
 0002:00004698       ??_C@_1M@KPKKNEAH@?$AAp?$AAa?$AA?9?$AAI?$AAN?$AA?$AA@ 0000000180030698     libucrt:lcidtoname_downlevel.obj
 0002:000046a8       ??_C@_1M@PJGPPBOG@?$AAg?$AAu?$AA?9?$AAI?$AAN?$AA?$AA@ 00000001800306a8     libucrt:lcidtoname_downlevel.obj
 0002:000046b8       ??_C@_1M@KMKMOPHI@?$AAt?$AAa?$AA?9?$AAI?$AAN?$AA?$AA@ 00000001800306b8     libucrt:lcidtoname_downlevel.obj
 0002:000046c8       ??_C@_1M@KFEHEPAC@?$AAt?$AAe?$AA?9?$AAI?$AAN?$AA?$AA@ 00000001800306c8     libucrt:lcidtoname_downlevel.obj
 0002:000046d8       ??_C@_1M@CDCLMGHI@?$AAk?$AAn?$AA?9?$AAI?$AAN?$AA?$AA@ 00000001800306d8     libucrt:lcidtoname_downlevel.obj
 0002:000046e8       ??_C@_1M@MIODLDKF@?$AAm?$AAl?$AA?9?$AAI?$AAN?$AA?$AA@ 00000001800306e8     libucrt:lcidtoname_downlevel.obj
 0002:000046f8       ??_C@_1M@PBIEACPO@?$AAm?$AAr?$AA?9?$AAI?$AAN?$AA?$AA@ 00000001800306f8     libucrt:lcidtoname_downlevel.obj
 0002:00004708       ??_C@_1M@NIDEAGPH@?$AAs?$AAa?$AA?9?$AAI?$AAN?$AA?$AA@ 0000000180030708     libucrt:lcidtoname_downlevel.obj
 0002:00004718       ??_C@_1M@FHIHCBIO@?$AAm?$AAn?$AA?9?$AAM?$AAN?$AA?$AA@ 0000000180030718     libucrt:lcidtoname_downlevel.obj
 0002:00004728       ??_C@_1M@JAIJPENP@?$AAc?$AAy?$AA?9?$AAG?$AAB?$AA?$AA@ 0000000180030728     libucrt:lcidtoname_downlevel.obj
 0002:00004738       ??_C@_1M@PHGFBEPN@?$AAg?$AAl?$AA?9?$AAE?$AAS?$AA?$AA@ 0000000180030738     libucrt:lcidtoname_downlevel.obj
 0002:00004748       ??_C@_1O@KPIPDNCP@?$AAk?$AAo?$AAk?$AA?9?$AAI?$AAN?$AA?$AA@ 0000000180030748     libucrt:lcidtoname_downlevel.obj
 0002:00004758       ??_C@_1O@KNHJLDJA@?$AAs?$AAy?$AAr?$AA?9?$AAS?$AAY?$AA?$AA@ 0000000180030758     libucrt:lcidtoname_downlevel.obj
 0002:00004768       ??_C@_1O@MKEKBLAH@?$AAd?$AAi?$AAv?$AA?9?$AAM?$AAV?$AA?$AA@ 0000000180030768     libucrt:lcidtoname_downlevel.obj
 0002:00004778       ??_C@_1O@OHDCKDDF@?$AAq?$AAu?$AAz?$AA?9?$AAB?$AAO?$AA?$AA@ 0000000180030778     libucrt:lcidtoname_downlevel.obj
 0002:00004788       ??_C@_1M@LEPJNLFD@?$AAn?$AAs?$AA?9?$AAZ?$AAA?$AA?$AA@ 0000000180030788     libucrt:lcidtoname_downlevel.obj
 0002:00004798       ??_C@_1M@OMLEIIJB@?$AAm?$AAi?$AA?9?$AAN?$AAZ?$AA?$AA@ 0000000180030798     libucrt:lcidtoname_downlevel.obj
 0002:000047a8       ??_C@_1M@PMPEAILG@?$AAa?$AAr?$AA?9?$AAI?$AAQ?$AA?$AA@ 00000001800307a8     libucrt:lcidtoname_downlevel.obj
 0002:000047b8       ??_C@_1M@CNKPNOEE@?$AAd?$AAe?$AA?9?$AAC?$AAH?$AA?$AA@ 00000001800307b8     libucrt:lcidtoname_downlevel.obj
 0002:000047c8       ??_C@_1M@LKMGMLKO@?$AAe?$AAn?$AA?9?$AAG?$AAB?$AA?$AA@ 00000001800307c8     libucrt:lcidtoname_downlevel.obj
 0002:000047d8       ??_C@_1M@PGKJFFGL@?$AAe?$AAs?$AA?9?$AAM?$AAX?$AA?$AA@ 00000001800307d8     libucrt:lcidtoname_downlevel.obj
 0002:000047e8       ??_C@_1M@DNNANBDC@?$AAf?$AAr?$AA?9?$AAB?$AAE?$AA?$AA@ 00000001800307e8     libucrt:lcidtoname_downlevel.obj
 0002:000047f8       ??_C@_1M@HLGMDFHM@?$AAi?$AAt?$AA?9?$AAC?$AAH?$AA?$AA@ 00000001800307f8     libucrt:lcidtoname_downlevel.obj
 0002:00004808       ??_C@_1M@CLLBGJH@?$AAn?$AAl?$AA?9?$AAB?$AAE?$AA?$AA@ 0000000180030808     libucrt:lcidtoname_downlevel.obj
 0002:00004818       ??_C@_1M@BODBOGLF@?$AAn?$AAn?$AA?9?$AAN?$AAO?$AA?$AA@ 0000000180030818     libucrt:lcidtoname_downlevel.obj
 0002:00004828       ??_C@_1M@HFFAHKAD@?$AAp?$AAt?$AA?9?$AAP?$AAT?$AA?$AA@ 0000000180030828     libucrt:lcidtoname_downlevel.obj
 0002:00004838       ??_C@_1BG@LNOAKHIE@?$AAs?$AAr?$AA?9?$AAS?$AAP?$AA?9?$AAL?$AAa?$AAt?$AAn?$AA?$AA@ 0000000180030838     libucrt:lcidtoname_downlevel.obj
 0002:00004850       ??_C@_1M@HBMHBGAK@?$AAs?$AAv?$AA?9?$AAF?$AAI?$AA?$AA@ 0000000180030850     libucrt:lcidtoname_downlevel.obj
 0002:00004860       ??_C@_1BG@DGCJGJBE@?$AAa?$AAz?$AA?9?$AAA?$AAZ?$AA?9?$AAC?$AAy?$AAr?$AAl?$AA?$AA@ 0000000180030860     libucrt:lcidtoname_downlevel.obj
 0002:00004878       ??_C@_1M@KEJDAAHB@?$AAs?$AAe?$AA?9?$AAS?$AAE?$AA?$AA@ 0000000180030878     libucrt:lcidtoname_downlevel.obj
 0002:00004888       ??_C@_1M@HEIBJJAD@?$AAm?$AAs?$AA?9?$AAB?$AAN?$AA?$AA@ 0000000180030888     libucrt:lcidtoname_downlevel.obj
 0002:00004898       ??_C@_1BG@PBGJMCEM@?$AAu?$AAz?$AA?9?$AAU?$AAZ?$AA?9?$AAC?$AAy?$AAr?$AAl?$AA?$AA@ 0000000180030898     libucrt:lcidtoname_downlevel.obj
 0002:000048b0       ??_C@_1O@LAOBCMDF@?$AAq?$AAu?$AAz?$AA?9?$AAE?$AAC?$AA?$AA@ 00000001800308b0     libucrt:lcidtoname_downlevel.obj
 0002:000048c0       ??_C@_1M@POEEMAIO@?$AAa?$AAr?$AA?9?$AAE?$AAG?$AA?$AA@ 00000001800308c0     libucrt:lcidtoname_downlevel.obj
 0002:000048d0       ??_C@_1M@EFAKDEDL@?$AAz?$AAh?$AA?9?$AAH?$AAK?$AA?$AA@ 00000001800308d0     libucrt:lcidtoname_downlevel.obj
 0002:000048e0       ??_C@_1M@HKKIJHGI@?$AAd?$AAe?$AA?9?$AAA?$AAT?$AA?$AA@ 00000001800308e0     libucrt:lcidtoname_downlevel.obj
 0002:000048f0       ??_C@_1M@KBFBEHJF@?$AAe?$AAn?$AA?9?$AAA?$AAU?$AA?$AA@ 00000001800308f0     libucrt:lcidtoname_downlevel.obj
 0002:00004900       ??_C@_1M@MNPLFAAH@?$AAe?$AAs?$AA?9?$AAE?$AAS?$AA?$AA@ 0000000180030900     libucrt:lcidtoname_downlevel.obj
 0002:00004910       ??_C@_1M@HJOOJFMA@?$AAf?$AAr?$AA?9?$AAC?$AAA?$AA?$AA@ 0000000180030910     libucrt:lcidtoname_downlevel.obj
 0002:00004920       ??_C@_1BG@JPOFPNAB@?$AAs?$AAr?$AA?9?$AAS?$AAP?$AA?9?$AAC?$AAy?$AAr?$AAl?$AA?$AA@ 0000000180030920     libucrt:lcidtoname_downlevel.obj
 0002:00004938       ??_C@_1M@LNFOCMOB@?$AAs?$AAe?$AA?9?$AAF?$AAI?$AA?$AA@ 0000000180030938     libucrt:lcidtoname_downlevel.obj
 0002:00004948       ??_C@_1O@MGJBOAMB@?$AAq?$AAu?$AAz?$AA?9?$AAP?$AAE?$AA?$AA@ 0000000180030948     libucrt:lcidtoname_downlevel.obj
 0002:00004958       ??_C@_1M@GJINLBOK@?$AAa?$AAr?$AA?9?$AAL?$AAY?$AA?$AA@ 0000000180030958     libucrt:lcidtoname_downlevel.obj
 0002:00004968       ??_C@_1M@GGMNHJNL@?$AAz?$AAh?$AA?9?$AAS?$AAG?$AA?$AA@ 0000000180030968     libucrt:lcidtoname_downlevel.obj
 0002:00004978       ??_C@_1M@HOIKODND@?$AAd?$AAe?$AA?9?$AAL?$AAU?$AA?$AA@ 0000000180030978     libucrt:lcidtoname_downlevel.obj
 0002:00004988       ??_C@_1M@DDOCCGFG@?$AAe?$AAn?$AA?9?$AAC?$AAA?$AA?$AA@ 0000000180030988     libucrt:lcidtoname_downlevel.obj
 0002:00004998       ??_C@_1M@BNOEMJLF@?$AAe?$AAs?$AA?9?$AAG?$AAT?$AA?$AA@ 0000000180030998     libucrt:lcidtoname_downlevel.obj
 0002:000049a8       ??_C@_1M@EOGNKEK@?$AAf?$AAr?$AA?9?$AAC?$AAH?$AA?$AA@ 00000001800309a8     libucrt:lcidtoname_downlevel.obj
 0002:000049b8       ??_C@_1M@FLIDJFHL@?$AAh?$AAr?$AA?9?$AAB?$AAA?$AA?$AA@ 00000001800309b8     libucrt:lcidtoname_downlevel.obj
 0002:000049c8       ??_C@_1O@FMCELNAJ@?$AAs?$AAm?$AAj?$AA?9?$AAN?$AAO?$AA?$AA@ 00000001800309c8     libucrt:lcidtoname_downlevel.obj
 0002:000049d8       ??_C@_1M@JHGLJMGJ@?$AAa?$AAr?$AA?9?$AAD?$AAZ?$AA?$AA@ 00000001800309d8     libucrt:lcidtoname_downlevel.obj
 0002:000049e8       ??_C@_1M@JKKFDCNP@?$AAz?$AAh?$AA?9?$AAM?$AAO?$AA?$AA@ 00000001800309e8     libucrt:lcidtoname_downlevel.obj
 0002:000049f8       ??_C@_1M@GEEFALPE@?$AAd?$AAe?$AA?9?$AAL?$AAI?$AA?$AA@ 00000001800309f8     libucrt:lcidtoname_downlevel.obj
 0002:00004a08       ??_C@_1M@IGEOFBG@?$AAe?$AAn?$AA?9?$AAN?$AAZ?$AA?$AA@ 0000000180030a08     libucrt:lcidtoname_downlevel.obj
 0002:00004a18       ??_C@_1M@KDBONEHP@?$AAe?$AAs?$AA?9?$AAC?$AAR?$AA?$AA@ 0000000180030a18     libucrt:lcidtoname_downlevel.obj
 0002:00004a28       ??_C@_1M@FHMDOHNN@?$AAf?$AAr?$AA?9?$AAL?$AAU?$AA?$AA@ 0000000180030a28     libucrt:lcidtoname_downlevel.obj
 0002:00004a38       ??_C@_1BG@NFKKMAFG@?$AAb?$AAs?$AA?9?$AAB?$AAA?$AA?9?$AAL?$AAa?$AAt?$AAn?$AA?$AA@ 0000000180030a38     libucrt:lcidtoname_downlevel.obj
 0002:00004a50       ??_C@_1O@IMNBEMCI@?$AAs?$AAm?$AAj?$AA?9?$AAS?$AAE?$AA?$AA@ 0000000180030a50     libucrt:lcidtoname_downlevel.obj
 0002:00004a60       ??_C@_1M@DHHMBNDP@?$AAa?$AAr?$AA?9?$AAM?$AAA?$AA?$AA@ 0000000180030a60     libucrt:lcidtoname_downlevel.obj
 0002:00004a70       ??_C@_1M@BNBLJCGH@?$AAe?$AAn?$AA?9?$AAI?$AAE?$AA?$AA@ 0000000180030a70     libucrt:lcidtoname_downlevel.obj
 0002:00004a80       ??_C@_1M@GEPAFMDL@?$AAe?$AAs?$AA?9?$AAP?$AAA?$AA?$AA@ 0000000180030a80     libucrt:lcidtoname_downlevel.obj
 0002:00004a90       ??_C@_1M@OJONDMDL@?$AAf?$AAr?$AA?9?$AAM?$AAC?$AA?$AA@ 0000000180030a90     libucrt:lcidtoname_downlevel.obj
 0002:00004aa0       ??_C@_1BG@OBCNFJB@?$AAs?$AAr?$AA?9?$AAB?$AAA?$AA?9?$AAL?$AAa?$AAt?$AAn?$AA?$AA@ 0000000180030aa0     libucrt:lcidtoname_downlevel.obj
 0002:00004ab8       ??_C@_1O@KEMEEGPO@?$AAs?$AAm?$AAa?$AA?9?$AAN?$AAO?$AA?$AA@ 0000000180030ab8     libucrt:lcidtoname_downlevel.obj
 0002:00004ac8       ??_C@_1M@ELMGFODK@?$AAa?$AAr?$AA?9?$AAT?$AAN?$AA?$AA@ 0000000180030ac8     libucrt:lcidtoname_downlevel.obj
 0002:00004ad8       ??_C@_1M@BHDLHFAF@?$AAe?$AAn?$AA?9?$AAZ?$AAA?$AA?$AA@ 0000000180030ad8     libucrt:lcidtoname_downlevel.obj
 0002:00004ae8       ??_C@_1M@BMGIGLIF@?$AAe?$AAs?$AA?9?$AAD?$AAO?$AA?$AA@ 0000000180030ae8     libucrt:lcidtoname_downlevel.obj
 0002:00004af8       ??_C@_1BG@CMBHIPBE@?$AAs?$AAr?$AA?9?$AAB?$AAA?$AA?9?$AAC?$AAy?$AAr?$AAl?$AA?$AA@ 0000000180030af8     libucrt:lcidtoname_downlevel.obj
 0002:00004b10       ??_C@_1O@HEDBLHNP@?$AAs?$AAm?$AAa?$AA?9?$AAS?$AAE?$AA?$AA@ 0000000180030b10     libucrt:lcidtoname_downlevel.obj
 0002:00004b20       ??_C@_1M@DAGCADIM@?$AAa?$AAr?$AA?9?$AAO?$AAM?$AA?$AA@ 0000000180030b20     libucrt:lcidtoname_downlevel.obj
 0002:00004b30       ??_C@_1M@FODLMICG@?$AAe?$AAn?$AA?9?$AAJ?$AAM?$AA?$AA@ 0000000180030b30     libucrt:lcidtoname_downlevel.obj
 0002:00004b40       ??_C@_1M@DNMLCIHB@?$AAe?$AAs?$AA?9?$AAV?$AAE?$AA?$AA@ 0000000180030b40     libucrt:lcidtoname_downlevel.obj
 0002:00004b50       ??_C@_1O@EOKHMKJK@?$AAs?$AAm?$AAs?$AA?9?$AAF?$AAI?$AA?$AA@ 0000000180030b50     libucrt:lcidtoname_downlevel.obj
 0002:00004b60       ??_C@_1M@CAFJMKOF@?$AAa?$AAr?$AA?9?$AAY?$AAE?$AA?$AA@ 0000000180030b60     libucrt:lcidtoname_downlevel.obj
 0002:00004b70       ??_C@_1M@CBFHIJLI@?$AAe?$AAn?$AA?9?$AAC?$AAB?$AA?$AA@ 0000000180030b70     libucrt:lcidtoname_downlevel.obj
 0002:00004b80       ??_C@_1M@BGNFLDN@?$AAe?$AAs?$AA?9?$AAC?$AAO?$AA?$AA@ 0000000180030b80     libucrt:lcidtoname_downlevel.obj
 0002:00004b90       ??_C@_1O@JMPHMAMC@?$AAs?$AAm?$AAn?$AA?9?$AAF?$AAI?$AA?$AA@ 0000000180030b90     libucrt:lcidtoname_downlevel.obj
 0002:00004ba0       ??_C@_1M@JLANABKE@?$AAa?$AAr?$AA?9?$AAS?$AAY?$AA?$AA@ 0000000180030ba0     libucrt:lcidtoname_downlevel.obj
 0002:00004bb0       ??_C@_1M@HPKGCFGN@?$AAe?$AAn?$AA?9?$AAB?$AAZ?$AA?$AA@ 0000000180030bb0     libucrt:lcidtoname_downlevel.obj
 0002:00004bc0       ??_C@_1M@OLJCMLGM@?$AAe?$AAs?$AA?9?$AAP?$AAE?$AA?$AA@ 0000000180030bc0     libucrt:lcidtoname_downlevel.obj
 0002:00004bd0       ??_C@_1M@MKKGFKLE@?$AAa?$AAr?$AA?9?$AAJ?$AAO?$AA?$AA@ 0000000180030bd0     libucrt:lcidtoname_downlevel.obj
 0002:00004be0       ??_C@_1M@EKPGLDNI@?$AAe?$AAn?$AA?9?$AAT?$AAT?$AA?$AA@ 0000000180030be0     libucrt:lcidtoname_downlevel.obj
 0002:00004bf0       ??_C@_1M@OONGHFHE@?$AAe?$AAs?$AA?9?$AAA?$AAR?$AA?$AA@ 0000000180030bf0     libucrt:lcidtoname_downlevel.obj
 0002:00004c00       ??_C@_1M@OOJFGBHE@?$AAa?$AAr?$AA?9?$AAL?$AAB?$AA?$AA@ 0000000180030c00     libucrt:lcidtoname_downlevel.obj
 0002:00004c10       ??_C@_1M@GCEJHNEG@?$AAe?$AAn?$AA?9?$AAZ?$AAW?$AA?$AA@ 0000000180030c10     libucrt:lcidtoname_downlevel.obj
 0002:00004c20       ??_C@_1M@JNOCAHJI@?$AAe?$AAs?$AA?9?$AAE?$AAC?$AA?$AA@ 0000000180030c20     libucrt:lcidtoname_downlevel.obj
 0002:00004c30       ??_C@_1M@JEFHPGGB@?$AAa?$AAr?$AA?9?$AAK?$AAW?$AA?$AA@ 0000000180030c30     libucrt:lcidtoname_downlevel.obj
 0002:00004c40       ??_C@_1M@MLKIBJOJ@?$AAe?$AAn?$AA?9?$AAP?$AAH?$AA?$AA@ 0000000180030c40     libucrt:lcidtoname_downlevel.obj
 0002:00004c50       ??_C@_1M@BDNIPEND@?$AAe?$AAs?$AA?9?$AAC?$AAL?$AA?$AA@ 0000000180030c50     libucrt:lcidtoname_downlevel.obj
 0002:00004c60       ??_C@_1M@MPNMEKBD@?$AAa?$AAr?$AA?9?$AAA?$AAE?$AA?$AA@ 0000000180030c60     libucrt:lcidtoname_downlevel.obj
 0002:00004c70       ??_C@_1M@KBJALCPI@?$AAe?$AAs?$AA?9?$AAU?$AAY?$AA?$AA@ 0000000180030c70     libucrt:lcidtoname_downlevel.obj
 0002:00004c80       ??_C@_1M@LLCCOAGA@?$AAa?$AAr?$AA?9?$AAB?$AAH?$AA?$AA@ 0000000180030c80     libucrt:lcidtoname_downlevel.obj
 0002:00004c90       ??_C@_1M@PBFNCDEL@?$AAe?$AAs?$AA?9?$AAP?$AAY?$AA?$AA@ 0000000180030c90     libucrt:lcidtoname_downlevel.obj
 0002:00004ca0       ??_C@_1M@EDGINPNP@?$AAa?$AAr?$AA?9?$AAQ?$AAA?$AA?$AA@ 0000000180030ca0     libucrt:lcidtoname_downlevel.obj
 0002:00004cb0       ??_C@_1M@MKDBIIJI@?$AAe?$AAs?$AA?9?$AAB?$AAO?$AA?$AA@ 0000000180030cb0     libucrt:lcidtoname_downlevel.obj
 0002:00004cc0       ??_C@_1M@CPKKEBLD@?$AAe?$AAs?$AA?9?$AAS?$AAV?$AA?$AA@ 0000000180030cc0     libucrt:lcidtoname_downlevel.obj
 0002:00004cd0       ??_C@_1M@NDBGMMJL@?$AAe?$AAs?$AA?9?$AAH?$AAN?$AA?$AA@ 0000000180030cd0     libucrt:lcidtoname_downlevel.obj
 0002:00004ce0       ??_C@_1M@JIJIBHDP@?$AAe?$AAs?$AA?9?$AAN?$AAI?$AA?$AA@ 0000000180030ce0     libucrt:lcidtoname_downlevel.obj
 0002:00004cf0       ??_C@_1M@CGFMKEEK@?$AAe?$AAs?$AA?9?$AAP?$AAR?$AA?$AA@ 0000000180030cf0     libucrt:lcidtoname_downlevel.obj
 0002:00004d00       ??_C@_1O@ICJHKIIK@?$AAz?$AAh?$AA?9?$AAC?$AAH?$AAT?$AA?$AA@ 0000000180030d00     libucrt:lcidtoname_downlevel.obj
 0002:00004d10       ??_C@_15CLNEJCE@?$AAs?$AAr?$AA?$AA@ 0000000180030d10     libucrt:lcidtoname_downlevel.obj
 0002:00005b60       ??_C@_1M@KAHEKEIG@?$AAa?$AAf?$AA?9?$AAz?$AAa?$AA?$AA@ 0000000180031b60     libucrt:lcidtoname_downlevel.obj
 0002:00005b70       ??_C@_1M@GIECOABL@?$AAa?$AAr?$AA?9?$AAa?$AAe?$AA?$AA@ 0000000180031b70     libucrt:lcidtoname_downlevel.obj
 0002:00005b80       ??_C@_1M@BMLMEKGI@?$AAa?$AAr?$AA?9?$AAb?$AAh?$AA?$AA@ 0000000180031b80     libucrt:lcidtoname_downlevel.obj
 0002:00005b90       ??_C@_1M@DAPFDGGB@?$AAa?$AAr?$AA?9?$AAd?$AAz?$AA?$AA@ 0000000180031b90     libucrt:lcidtoname_downlevel.obj
 0002:00005ba0       ??_C@_1M@FJNKGKIG@?$AAa?$AAr?$AA?9?$AAe?$AAg?$AA?$AA@ 0000000180031ba0     libucrt:lcidtoname_downlevel.obj
 0002:00005bb0       ??_C@_1M@FLGKKCLO@?$AAa?$AAr?$AA?9?$AAi?$AAq?$AA?$AA@ 0000000180031bb0     libucrt:lcidtoname_downlevel.obj
 0002:00005bc0       ??_C@_1M@GNDIPALM@?$AAa?$AAr?$AA?9?$AAj?$AAo?$AA?$AA@ 0000000180031bc0     libucrt:lcidtoname_downlevel.obj
 0002:00005bd0       ??_C@_1M@DDMJFMGJ@?$AAa?$AAr?$AA?9?$AAk?$AAw?$AA?$AA@ 0000000180031bd0     libucrt:lcidtoname_downlevel.obj
 0002:00005be0       ??_C@_1M@EJALMLHM@?$AAa?$AAr?$AA?9?$AAl?$AAb?$AA?$AA@ 0000000180031be0     libucrt:lcidtoname_downlevel.obj
 0002:00005bf0       ??_C@_1M@MOBDBLOC@?$AAa?$AAr?$AA?9?$AAl?$AAy?$AA?$AA@ 0000000180031bf0     libucrt:lcidtoname_downlevel.obj
 0002:00005c00       ??_C@_1M@JAOCLHDH@?$AAa?$AAr?$AA?9?$AAm?$AAa?$AA?$AA@ 0000000180031c00     libucrt:lcidtoname_downlevel.obj
 0002:00005c10       ??_C@_1M@JHPMKJIE@?$AAa?$AAr?$AA?9?$AAo?$AAm?$AA?$AA@ 0000000180031c10     libucrt:lcidtoname_downlevel.obj
 0002:00005c20       ??_C@_1M@OEPGHFNH@?$AAa?$AAr?$AA?9?$AAq?$AAa?$AA?$AA@ 0000000180031c20     libucrt:lcidtoname_downlevel.obj
 0002:00005c30       ??_C@_1M@KJDONENM@?$AAa?$AAr?$AA?9?$AAs?$AAa?$AA?$AA@ 0000000180031c30     libucrt:lcidtoname_downlevel.obj
 0002:00005c40       ??_C@_1M@DMJDKLKM@?$AAa?$AAr?$AA?9?$AAs?$AAy?$AA?$AA@ 0000000180031c40     libucrt:lcidtoname_downlevel.obj
 0002:00005c50       ??_C@_1M@OMFIPEDC@?$AAa?$AAr?$AA?9?$AAt?$AAn?$AA?$AA@ 0000000180031c50     libucrt:lcidtoname_downlevel.obj
 0002:00005c60       ??_C@_1M@IHMHGAON@?$AAa?$AAr?$AA?9?$AAy?$AAe?$AA?$AA@ 0000000180031c60     libucrt:lcidtoname_downlevel.obj
 0002:00005c70       ??_C@_1BG@KDCPGJGB@?$AAa?$AAz?$AA?9?$AAa?$AAz?$AA?9?$AAc?$AAy?$AAr?$AAl?$AA?$AA@ 0000000180031c70     libucrt:lcidtoname_downlevel.obj
 0002:00005c88       ??_C@_1BG@IBCKDDOE@?$AAa?$AAz?$AA?9?$AAa?$AAz?$AA?9?$AAl?$AAa?$AAt?$AAn?$AA?$AA@ 0000000180031c88     libucrt:lcidtoname_downlevel.obj
 0002:00005ca0       ??_C@_1M@EGPFDCPD@?$AAb?$AAe?$AA?9?$AAb?$AAy?$AA?$AA@ 0000000180031ca0     libucrt:lcidtoname_downlevel.obj
 0002:00005cb0       ??_C@_1M@PCMGMCGC@?$AAb?$AAg?$AA?9?$AAb?$AAg?$AA?$AA@ 0000000180031cb0     libucrt:lcidtoname_downlevel.obj
 0002:00005cc0       ??_C@_1M@BJBMFGOB@?$AAb?$AAn?$AA?9?$AAi?$AAn?$AA?$AA@ 0000000180031cc0     libucrt:lcidtoname_downlevel.obj
 0002:00005cd0       ??_C@_1BG@EAKMMACD@?$AAb?$AAs?$AA?9?$AAb?$AAa?$AA?9?$AAl?$AAa?$AAt?$AAn?$AA?$AA@ 0000000180031cd0     libucrt:lcidtoname_downlevel.obj
 0002:00005ce8       ??_C@_1M@KGADAODK@?$AAc?$AAa?$AA?9?$AAe?$AAs?$AA?$AA@ 0000000180031ce8     libucrt:lcidtoname_downlevel.obj
 0002:00005cf8       ??_C@_1M@COAJPDHI@?$AAc?$AAs?$AA?9?$AAc?$AAz?$AA?$AA@ 0000000180031cf8     libucrt:lcidtoname_downlevel.obj
 0002:00005d08       ??_C@_1M@DHBHFONH@?$AAc?$AAy?$AA?9?$AAg?$AAb?$AA?$AA@ 0000000180031d08     libucrt:lcidtoname_downlevel.obj
 0002:00005d18       ??_C@_1M@IMGKELGA@?$AAd?$AAa?$AA?9?$AAd?$AAk?$AA?$AA@ 0000000180031d18     libucrt:lcidtoname_downlevel.obj
 0002:00005d28       ??_C@_1M@NNDGDNGA@?$AAd?$AAe?$AA?9?$AAa?$AAt?$AA?$AA@ 0000000180031d28     libucrt:lcidtoname_downlevel.obj
 0002:00005d38       ??_C@_1M@IKDBHEEM@?$AAd?$AAe?$AA?9?$AAc?$AAh?$AA?$AA@ 0000000180031d38     libucrt:lcidtoname_downlevel.obj
 0002:00005d48       ??_C@_1M@GFFOJMCJ@?$AAd?$AAe?$AA?9?$AAd?$AAe?$AA?$AA@ 0000000180031d48     libucrt:lcidtoname_downlevel.obj
 0002:00005d58       ??_C@_1M@MDNLKBPM@?$AAd?$AAe?$AA?9?$AAl?$AAi?$AA?$AA@ 0000000180031d58     libucrt:lcidtoname_downlevel.obj
 0002:00005d68       ??_C@_1M@NJBEEJNL@?$AAd?$AAe?$AA?9?$AAl?$AAu?$AA?$AA@ 0000000180031d68     libucrt:lcidtoname_downlevel.obj
 0002:00005d78       ??_C@_1O@GNNELBAP@?$AAd?$AAi?$AAv?$AA?9?$AAm?$AAv?$AA?$AA@ 0000000180031d78     libucrt:lcidtoname_downlevel.obj
 0002:00005d88       ??_C@_1M@EJLEOGAE@?$AAe?$AAl?$AA?9?$AAg?$AAr?$AA?$AA@ 0000000180031d88     libucrt:lcidtoname_downlevel.obj
 0002:00005d98       ??_C@_1M@GMPONJN@?$AAe?$AAn?$AA?9?$AAa?$AAu?$AA?$AA@ 0000000180031d98     libucrt:lcidtoname_downlevel.obj
 0002:00005da8       ??_C@_1M@NIDIIPGF@?$AAe?$AAn?$AA?9?$AAb?$AAz?$AA?$AA@ 0000000180031da8     libucrt:lcidtoname_downlevel.obj
 0002:00005db8       ??_C@_1M@JEHMIMFO@?$AAe?$AAn?$AA?9?$AAc?$AAa?$AA?$AA@ 0000000180031db8     libucrt:lcidtoname_downlevel.obj
 0002:00005dc8       ??_C@_1M@IGMJCDLA@?$AAe?$AAn?$AA?9?$AAc?$AAb?$AA?$AA@ 0000000180031dc8     libucrt:lcidtoname_downlevel.obj
 0002:00005dd8       ??_C@_1M@BNFIGBKG@?$AAe?$AAn?$AA?9?$AAg?$AAb?$AA?$AA@ 0000000180031dd8     libucrt:lcidtoname_downlevel.obj
 0002:00005de8       ??_C@_1M@LKIFDIGP@?$AAe?$AAn?$AA?9?$AAi?$AAe?$AA?$AA@ 0000000180031de8     libucrt:lcidtoname_downlevel.obj
 0002:00005df8       ??_C@_1M@PJKFGCCO@?$AAe?$AAn?$AA?9?$AAj?$AAm?$AA?$AA@ 0000000180031df8     libucrt:lcidtoname_downlevel.obj
 0002:00005e08       ??_C@_1M@KPPKEPBO@?$AAe?$AAn?$AA?9?$AAn?$AAz?$AA?$AA@ 0000000180031e08     libucrt:lcidtoname_downlevel.obj
 0002:00005e18       ??_C@_1M@GMDGLDOB@?$AAe?$AAn?$AA?9?$AAp?$AAh?$AA?$AA@ 0000000180031e18     libucrt:lcidtoname_downlevel.obj
 0002:00005e28       ??_C@_1M@ONGIBJNA@?$AAe?$AAn?$AA?9?$AAt?$AAt?$AA?$AA@ 0000000180031e28     libucrt:lcidtoname_downlevel.obj
 0002:00005e38       ??_C@_1M@LLODPCMM@?$AAe?$AAn?$AA?9?$AAu?$AAs?$AA?$AA@ 0000000180031e38     libucrt:lcidtoname_downlevel.obj
 0002:00005e48       ??_C@_1M@LAKFNPAN@?$AAe?$AAn?$AA?9?$AAz?$AAa?$AA?$AA@ 0000000180031e48     libucrt:lcidtoname_downlevel.obj
 0002:00005e58       ??_C@_1M@MFNHNHEO@?$AAe?$AAn?$AA?9?$AAz?$AAw?$AA?$AA@ 0000000180031e58     libucrt:lcidtoname_downlevel.obj
 0002:00005e68       ??_C@_1M@EJEINPHM@?$AAe?$AAs?$AA?9?$AAa?$AAr?$AA?$AA@ 0000000180031e68     libucrt:lcidtoname_downlevel.obj
 0002:00005e78       ??_C@_1M@GNKPCCJA@?$AAe?$AAs?$AA?9?$AAb?$AAo?$AA?$AA@ 0000000180031e78     libucrt:lcidtoname_downlevel.obj
 0002:00005e88       ??_C@_1M@LEEGFONL@?$AAe?$AAs?$AA?9?$AAc?$AAl?$AA?$AA@ 0000000180031e88     libucrt:lcidtoname_downlevel.obj
 0002:00005e98       ??_C@_1M@KGPDPBDF@?$AAe?$AAs?$AA?9?$AAc?$AAo?$AA?$AA@ 0000000180031e98     libucrt:lcidtoname_downlevel.obj
 0002:00005ea8       ??_C@_1M@EIAHOHH@?$AAe?$AAs?$AA?9?$AAc?$AAr?$AA?$AA@ 0000000180031ea8     libucrt:lcidtoname_downlevel.obj
 0002:00005eb8       ??_C@_1M@LLPGMBIN@?$AAe?$AAs?$AA?9?$AAd?$AAo?$AA?$AA@ 0000000180031eb8     libucrt:lcidtoname_downlevel.obj
 0002:00005ec8       ??_C@_1M@DKHMKNJA@?$AAe?$AAs?$AA?9?$AAe?$AAc?$AA?$AA@ 0000000180031ec8     libucrt:lcidtoname_downlevel.obj
 0002:00005ed8       ??_C@_1M@GKGFPKAP@?$AAe?$AAs?$AA?9?$AAe?$AAs?$AA?$AA@ 0000000180031ed8     libucrt:lcidtoname_downlevel.obj
 0002:00005ee8       ??_C@_1M@LKHKGDLN@?$AAe?$AAs?$AA?9?$AAg?$AAt?$AA?$AA@ 0000000180031ee8     libucrt:lcidtoname_downlevel.obj
 0002:00005ef8       ??_C@_1M@HEIIGGJD@?$AAe?$AAs?$AA?9?$AAh?$AAn?$AA?$AA@ 0000000180031ef8     libucrt:lcidtoname_downlevel.obj
 0002:00005f08       ??_C@_1M@FBDHPPGD@?$AAe?$AAs?$AA?9?$AAm?$AAx?$AA?$AA@ 0000000180031f08     libucrt:lcidtoname_downlevel.obj
 0002:00005f18       ??_C@_1M@DPAGLNDH@?$AAe?$AAs?$AA?9?$AAn?$AAi?$AA?$AA@ 0000000180031f18     libucrt:lcidtoname_downlevel.obj
 0002:00005f28       ??_C@_1M@MDGOPGDD@?$AAe?$AAs?$AA?9?$AAp?$AAa?$AA?$AA@ 0000000180031f28     libucrt:lcidtoname_downlevel.obj
 0002:00005f38       ??_C@_1M@EMAMGBGE@?$AAe?$AAs?$AA?9?$AAp?$AAe?$AA?$AA@ 0000000180031f38     libucrt:lcidtoname_downlevel.obj
 0002:00005f48       ??_C@_1M@IBMCAOEC@?$AAe?$AAs?$AA?9?$AAp?$AAr?$AA?$AA@ 0000000180031f48     libucrt:lcidtoname_downlevel.obj
 0002:00005f58       ??_C@_1M@FGMDIJED@?$AAe?$AAs?$AA?9?$AAp?$AAy?$AA?$AA@ 0000000180031f58     libucrt:lcidtoname_downlevel.obj
 0002:00005f68       ??_C@_1M@IIDEOLLL@?$AAe?$AAs?$AA?9?$AAs?$AAv?$AA?$AA@ 0000000180031f68     libucrt:lcidtoname_downlevel.obj
 0002:00005f78       ??_C@_1M@GAOBIPA@?$AAe?$AAs?$AA?9?$AAu?$AAy?$AA?$AA@ 0000000180031f78     libucrt:lcidtoname_downlevel.obj
 0002:00005f88       ??_C@_1M@JKFFICHJ@?$AAe?$AAs?$AA?9?$AAv?$AAe?$AA?$AA@ 0000000180031f88     libucrt:lcidtoname_downlevel.obj
 0002:00005f98       ??_C@_1M@PNMLOJDF@?$AAe?$AAt?$AA?9?$AAe?$AAe?$AA?$AA@ 0000000180031f98     libucrt:lcidtoname_downlevel.obj
 0002:00005fa8       ??_C@_1M@GHHLIKEI@?$AAe?$AAu?$AA?9?$AAe?$AAs?$AA?$AA@ 0000000180031fa8     libucrt:lcidtoname_downlevel.obj
 0002:00005fb8       ??_C@_1M@PBNONODE@?$AAf?$AAa?$AA?9?$AAi?$AAr?$AA?$AA@ 0000000180031fb8     libucrt:lcidtoname_downlevel.obj
 0002:00005fc8       ??_C@_1M@JEEHPMIL@?$AAf?$AAi?$AA?9?$AAf?$AAi?$AA?$AA@ 0000000180031fc8     libucrt:lcidtoname_downlevel.obj
 0002:00005fd8       ??_C@_1M@LMDCNDBA@?$AAf?$AAo?$AA?9?$AAf?$AAo?$AA?$AA@ 0000000180031fd8     libucrt:lcidtoname_downlevel.obj
 0002:00005fe8       ??_C@_1M@JKEOHLDK@?$AAf?$AAr?$AA?9?$AAb?$AAe?$AA?$AA@ 0000000180031fe8     libucrt:lcidtoname_downlevel.obj
 0002:00005ff8       ??_C@_1M@NOHADPMI@?$AAf?$AAr?$AA?9?$AAc?$AAa?$AA?$AA@ 0000000180031ff8     libucrt:lcidtoname_downlevel.obj
 0002:00006008       ??_C@_1M@KDHIHAEC@?$AAf?$AAr?$AA?9?$AAc?$AAh?$AA?$AA@ 0000000180032008     libucrt:lcidtoname_downlevel.obj
 0002:00006018       ??_C@_1M@MMBBFGAK@?$AAf?$AAr?$AA?9?$AAf?$AAr?$AA?$AA@ 0000000180032018     libucrt:lcidtoname_downlevel.obj
 0002:00006028       ??_C@_1M@PAFNENNF@?$AAf?$AAr?$AA?9?$AAl?$AAu?$AA?$AA@ 0000000180032028     libucrt:lcidtoname_downlevel.obj
 0002:00006038       ??_C@_1M@EOHDJGDD@?$AAf?$AAr?$AA?9?$AAm?$AAc?$AA?$AA@ 0000000180032038     libucrt:lcidtoname_downlevel.obj
 0002:00006048       ??_C@_1M@FAPLLOPF@?$AAg?$AAl?$AA?9?$AAe?$AAs?$AA?$AA@ 0000000180032048     libucrt:lcidtoname_downlevel.obj
 0002:00006058       ??_C@_1M@FOPBFLOO@?$AAg?$AAu?$AA?9?$AAi?$AAn?$AA?$AA@ 0000000180032058     libucrt:lcidtoname_downlevel.obj
 0002:00006068       ??_C@_1M@KBMCINPM@?$AAh?$AAe?$AA?9?$AAi?$AAl?$AA?$AA@ 0000000180032068     libucrt:lcidtoname_downlevel.obj
 0002:00006078       ??_C@_1M@BBPHKFPJ@?$AAh?$AAi?$AA?9?$AAi?$AAn?$AA?$AA@ 0000000180032078     libucrt:lcidtoname_downlevel.obj
 0002:00006088       ??_C@_1M@PMBNDPHD@?$AAh?$AAr?$AA?9?$AAb?$AAa?$AA?$AA@ 0000000180032088     libucrt:lcidtoname_downlevel.obj
 0002:00006098       ??_C@_1M@BPCKOEGE@?$AAh?$AAr?$AA?9?$AAh?$AAr?$AA?$AA@ 0000000180032098     libucrt:lcidtoname_downlevel.obj
 0002:000060a8       ??_C@_1M@GACBMHKE@?$AAh?$AAu?$AA?9?$AAh?$AAu?$AA?$AA@ 00000001800320a8     libucrt:lcidtoname_downlevel.obj
 0002:000060b8       ??_C@_1M@MILPAJJC@?$AAh?$AAy?$AA?9?$AAa?$AAm?$AA?$AA@ 00000001800320b8     libucrt:lcidtoname_downlevel.obj
 0002:000060c8       ??_C@_1M@BABBICEC@?$AAi?$AAd?$AA?9?$AAi?$AAd?$AA?$AA@ 00000001800320c8     libucrt:lcidtoname_downlevel.obj
 0002:000060d8       ??_C@_1M@BIKNHHPF@?$AAi?$AAs?$AA?9?$AAi?$AAs?$AA?$AA@ 00000001800320d8     libucrt:lcidtoname_downlevel.obj
 0002:000060e8       ??_C@_1M@NMPCJPHE@?$AAi?$AAt?$AA?9?$AAc?$AAh?$AA?$AA@ 00000001800320e8     libucrt:lcidtoname_downlevel.obj
 0002:000060f8       ??_C@_1M@GHKGFEDF@?$AAi?$AAt?$AA?9?$AAi?$AAt?$AA?$AA@ 00000001800320f8     libucrt:lcidtoname_downlevel.obj
 0002:00006108       ??_C@_1M@NIEJCJJA@?$AAj?$AAa?$AA?9?$AAj?$AAp?$AA?$AA@ 0000000180032108     libucrt:lcidtoname_downlevel.obj
 0002:00006118       ??_C@_1M@JILFNBIM@?$AAk?$AAa?$AA?9?$AAg?$AAe?$AA?$AA@ 0000000180032118     libucrt:lcidtoname_downlevel.obj
 0002:00006128       ??_C@_1M@PACPMGPH@?$AAk?$AAk?$AA?9?$AAk?$AAz?$AA?$AA@ 0000000180032128     libucrt:lcidtoname_downlevel.obj
 0002:00006138       ??_C@_1M@IELFGMHA@?$AAk?$AAn?$AA?9?$AAi?$AAn?$AA?$AA@ 0000000180032138     libucrt:lcidtoname_downlevel.obj
 0002:00006148       ??_C@_1O@IBBJHCH@?$AAk?$AAo?$AAk?$AA?9?$AAi?$AAn?$AA?$AA@ 0000000180032148     libucrt:lcidtoname_downlevel.obj
 0002:00006158       ??_C@_1M@DMHAEOGC@?$AAk?$AAo?$AA?9?$AAk?$AAr?$AA?$AA@ 0000000180032158     libucrt:lcidtoname_downlevel.obj
 0002:00006168       ??_C@_1M@HBAHBIGA@?$AAk?$AAy?$AA?9?$AAk?$AAg?$AA?$AA@ 0000000180032168     libucrt:lcidtoname_downlevel.obj
 0002:00006178       ??_C@_1M@KPMILCJG@?$AAl?$AAt?$AA?9?$AAl?$AAt?$AA?$AA@ 0000000180032178     libucrt:lcidtoname_downlevel.obj
 0002:00006188       ??_C@_1M@BDEKKCA@?$AAl?$AAv?$AA?9?$AAl?$AAv?$AA?$AA@ 0000000180032188     libucrt:lcidtoname_downlevel.obj
 0002:00006198       ??_C@_1M@ELCKCCJJ@?$AAm?$AAi?$AA?9?$AAn?$AAz?$AA?$AA@ 0000000180032198     libucrt:lcidtoname_downlevel.obj
 0002:000061a8       ??_C@_1M@CBOOLAPA@?$AAm?$AAk?$AA?9?$AAm?$AAk?$AA?$AA@ 00000001800321a8     libucrt:lcidtoname_downlevel.obj
 0002:000061b8       ??_C@_1M@GPHNBJKN@?$AAm?$AAl?$AA?9?$AAi?$AAn?$AA?$AA@ 00000001800321b8     libucrt:lcidtoname_downlevel.obj
 0002:000061c8       ??_C@_1M@PABJILIG@?$AAm?$AAn?$AA?9?$AAm?$AAn?$AA?$AA@ 00000001800321c8     libucrt:lcidtoname_downlevel.obj
 0002:000061d8       ??_C@_1M@FGBKKIPG@?$AAm?$AAr?$AA?9?$AAi?$AAn?$AA?$AA@ 00000001800321d8     libucrt:lcidtoname_downlevel.obj
 0002:000061e8       ??_C@_1M@NDBPDDAL@?$AAm?$AAs?$AA?9?$AAb?$AAn?$AA?$AA@ 00000001800321e8     libucrt:lcidtoname_downlevel.obj
 0002:000061f8       ??_C@_1M@OPIHOOPI@?$AAm?$AAs?$AA?9?$AAm?$AAy?$AA?$AA@ 00000001800321f8     libucrt:lcidtoname_downlevel.obj
 0002:00006208       ??_C@_1M@PPDBCNFM@?$AAm?$AAt?$AA?9?$AAm?$AAt?$AA?$AA@ 0000000180032208     libucrt:lcidtoname_downlevel.obj
 0002:00006218       ??_C@_1M@KDJDKMDD@?$AAn?$AAb?$AA?9?$AAn?$AAo?$AA?$AA@ 0000000180032218     libucrt:lcidtoname_downlevel.obj
 0002:00006228       ??_C@_1M@KFCFLMJP@?$AAn?$AAl?$AA?9?$AAb?$AAe?$AA?$AA@ 0000000180032228     libucrt:lcidtoname_downlevel.obj
 0002:00006238       ??_C@_1M@KPOPDDGO@?$AAn?$AAl?$AA?9?$AAn?$AAl?$AA?$AA@ 0000000180032238     libucrt:lcidtoname_downlevel.obj
 0002:00006248       ??_C@_1M@LJKPEMLN@?$AAn?$AAn?$AA?9?$AAn?$AAo?$AA?$AA@ 0000000180032248     libucrt:lcidtoname_downlevel.obj
 0002:00006258       ??_C@_1M@BDGHHBFL@?$AAn?$AAs?$AA?9?$AAz?$AAa?$AA?$AA@ 0000000180032258     libucrt:lcidtoname_downlevel.obj
 0002:00006268       ??_C@_1M@IDEHOAP@?$AAp?$AAa?$AA?9?$AAi?$AAn?$AA?$AA@ 0000000180032268     libucrt:lcidtoname_downlevel.obj
 0002:00006278       ??_C@_1M@HDBKGOGH@?$AAp?$AAl?$AA?9?$AAp?$AAl?$AA?$AA@ 0000000180032278     libucrt:lcidtoname_downlevel.obj
 0002:00006288       ??_C@_1M@LJLLCMEH@?$AAp?$AAt?$AA?9?$AAb?$AAr?$AA?$AA@ 0000000180032288     libucrt:lcidtoname_downlevel.obj
 0002:00006298       ??_C@_1M@NCMONAAL@?$AAp?$AAt?$AA?9?$AAp?$AAt?$AA?$AA@ 0000000180032298     libucrt:lcidtoname_downlevel.obj
 0002:000062a8       ??_C@_1O@EAKMAJDN@?$AAq?$AAu?$AAz?$AA?9?$AAb?$AAo?$AA?$AA@ 00000001800322a8     libucrt:lcidtoname_downlevel.obj
 0002:000062b8       ??_C@_1O@BHHPIGDN@?$AAq?$AAu?$AAz?$AA?9?$AAe?$AAc?$AA?$AA@ 00000001800322b8     libucrt:lcidtoname_downlevel.obj
 0002:000062c8       ??_C@_1O@GBAPEKMJ@?$AAq?$AAu?$AAz?$AA?9?$AAp?$AAe?$AA?$AA@ 00000001800322c8     libucrt:lcidtoname_downlevel.obj
 0002:000062d8       ??_C@_1M@CLGLEFBO@?$AAr?$AAo?$AA?9?$AAr?$AAo?$AA?$AA@ 00000001800322d8     libucrt:lcidtoname_downlevel.obj
 0002:000062e8       ??_C@_1M@CEEDODME@?$AAr?$AAu?$AA?9?$AAr?$AAu?$AA?$AA@ 00000001800322e8     libucrt:lcidtoname_downlevel.obj
 0002:000062f8       ??_C@_1M@HPKKKMPP@?$AAs?$AAa?$AA?9?$AAi?$AAn?$AA?$AA@ 00000001800322f8     libucrt:lcidtoname_downlevel.obj
 0002:00006308       ??_C@_1M@BKMAIGOJ@?$AAs?$AAe?$AA?9?$AAf?$AAi?$AA?$AA@ 0000000180032308     libucrt:lcidtoname_downlevel.obj
 0002:00006318       ??_C@_1M@NDPIFLFI@?$AAs?$AAe?$AA?9?$AAn?$AAo?$AA?$AA@ 0000000180032318     libucrt:lcidtoname_downlevel.obj
 0002:00006328       ??_C@_1M@DANKKHJ@?$AAs?$AAe?$AA?9?$AAs?$AAe?$AA?$AA@ 0000000180032328     libucrt:lcidtoname_downlevel.obj
 0002:00006338       ??_C@_1M@PNBLONPJ@?$AAs?$AAk?$AA?9?$AAs?$AAk?$AA?$AA@ 0000000180032338     libucrt:lcidtoname_downlevel.obj
 0002:00006348       ??_C@_1M@LFMODOAL@?$AAs?$AAl?$AA?9?$AAs?$AAi?$AA?$AA@ 0000000180032348     libucrt:lcidtoname_downlevel.obj
 0002:00006358       ??_C@_1O@DFKOMPG@?$AAs?$AAm?$AAa?$AA?9?$AAn?$AAo?$AA?$AA@ 0000000180032358     libucrt:lcidtoname_downlevel.obj
 0002:00006368       ??_C@_1O@NDKPBNNH@?$AAs?$AAm?$AAa?$AA?9?$AAs?$AAe?$AA?$AA@ 0000000180032368     libucrt:lcidtoname_downlevel.obj
 0002:00006378       ??_C@_1O@PLLKBHAB@?$AAs?$AAm?$AAj?$AA?9?$AAn?$AAo?$AA?$AA@ 0000000180032378     libucrt:lcidtoname_downlevel.obj
 0002:00006388       ??_C@_1O@CLEPOGCA@?$AAs?$AAm?$AAj?$AA?9?$AAs?$AAe?$AA?$AA@ 0000000180032388     libucrt:lcidtoname_downlevel.obj
 0002:00006398       ??_C@_1O@DLGJGKMK@?$AAs?$AAm?$AAn?$AA?9?$AAf?$AAi?$AA?$AA@ 0000000180032398     libucrt:lcidtoname_downlevel.obj
 0002:000063a8       ??_C@_1O@OJDJGAJC@?$AAs?$AAm?$AAs?$AA?9?$AAf?$AAi?$AA?$AA@ 00000001800323a8     libucrt:lcidtoname_downlevel.obj
 0002:000063b8       ??_C@_1M@BOFOGHPB@?$AAs?$AAq?$AA?9?$AAa?$AAl?$AA?$AA@ 00000001800323b8     libucrt:lcidtoname_downlevel.obj
 0002:000063c8       ??_C@_1BG@LJBBIPGB@?$AAs?$AAr?$AA?9?$AAb?$AAa?$AA?9?$AAc?$AAy?$AAr?$AAl?$AA?$AA@ 00000001800323c8     libucrt:lcidtoname_downlevel.obj
 0002:000063e0       ??_C@_1BG@JLBENFOE@?$AAs?$AAr?$AA?9?$AAb?$AAa?$AA?9?$AAl?$AAa?$AAt?$AAn?$AA?$AA@ 00000001800323e0     libucrt:lcidtoname_downlevel.obj
 0002:000063f8       ??_C@_1BG@KODPNHE@?$AAs?$AAr?$AA?9?$AAs?$AAp?$AA?9?$AAc?$AAy?$AAr?$AAl?$AA?$AA@ 00000001800323f8     libucrt:lcidtoname_downlevel.obj
 0002:00006410       ??_C@_1BG@CIOGKHPB@?$AAs?$AAr?$AA?9?$AAs?$AAp?$AA?9?$AAl?$AAa?$AAt?$AAn?$AA?$AA@ 0000000180032410     libucrt:lcidtoname_downlevel.obj
 0002:00006428       ??_C@_1M@NGFJLMAC@?$AAs?$AAv?$AA?9?$AAf?$AAi?$AA?$AA@ 0000000180032428     libucrt:lcidtoname_downlevel.obj
 0002:00006438       ??_C@_1M@MPJEJAJC@?$AAs?$AAv?$AA?9?$AAs?$AAe?$AA?$AA@ 0000000180032438     libucrt:lcidtoname_downlevel.obj
 0002:00006448       ??_C@_1M@MPNDHLFK@?$AAs?$AAw?$AA?9?$AAk?$AAe?$AA?$AA@ 0000000180032448     libucrt:lcidtoname_downlevel.obj
 0002:00006458       ??_C@_1O@KOHBJJI@?$AAs?$AAy?$AAr?$AA?9?$AAs?$AAy?$AA?$AA@ 0000000180032458     libucrt:lcidtoname_downlevel.obj
 0002:00006468       ??_C@_1M@LDCEFHA@?$AAt?$AAa?$AA?9?$AAi?$AAn?$AA?$AA@ 0000000180032468     libucrt:lcidtoname_downlevel.obj
 0002:00006478       ??_C@_1M@CNJOFAK@?$AAt?$AAe?$AA?9?$AAi?$AAn?$AA?$AA@ 0000000180032478     libucrt:lcidtoname_downlevel.obj
 0002:00006488       ??_C@_1M@GNAECACD@?$AAt?$AAh?$AA?9?$AAt?$AAh?$AA?$AA@ 0000000180032488     libucrt:lcidtoname_downlevel.obj
 0002:00006498       ??_C@_1M@CHBIHOJO@?$AAt?$AAn?$AA?9?$AAz?$AAa?$AA?$AA@ 0000000180032498     libucrt:lcidtoname_downlevel.obj
 0002:000064a8       ??_C@_1M@GCCMIGPJ@?$AAt?$AAr?$AA?9?$AAt?$AAr?$AA?$AA@ 00000001800324a8     libucrt:lcidtoname_downlevel.obj
 0002:000064b8       ??_C@_1M@CELMCNBK@?$AAt?$AAt?$AA?9?$AAr?$AAu?$AA?$AA@ 00000001800324b8     libucrt:lcidtoname_downlevel.obj
 0002:000064c8       ??_C@_1M@KLMCELGA@?$AAu?$AAk?$AA?9?$AAu?$AAa?$AA?$AA@ 00000001800324c8     libucrt:lcidtoname_downlevel.obj
 0002:000064d8       ??_C@_1M@EPAJJAJF@?$AAu?$AAr?$AA?9?$AAp?$AAk?$AA?$AA@ 00000001800324d8     libucrt:lcidtoname_downlevel.obj
 0002:000064e8       ??_C@_1BG@GEGPMCDJ@?$AAu?$AAz?$AA?9?$AAu?$AAz?$AA?9?$AAc?$AAy?$AAr?$AAl?$AA?$AA@ 00000001800324e8     libucrt:lcidtoname_downlevel.obj
 0002:00006500       ??_C@_1BG@EGGKJILM@?$AAu?$AAz?$AA?9?$AAu?$AAz?$AA?9?$AAl?$AAa?$AAt?$AAn?$AA?$AA@ 0000000180032500     libucrt:lcidtoname_downlevel.obj
 0002:00006518       ??_C@_1M@GFOCLFF@?$AAv?$AAi?$AA?9?$AAv?$AAn?$AA?$AA@ 0000000180032518     libucrt:lcidtoname_downlevel.obj
 0002:00006528       ??_C@_1M@CPAMEDFI@?$AAx?$AAh?$AA?9?$AAz?$AAa?$AA?$AA@ 0000000180032528     libucrt:lcidtoname_downlevel.obj
 0002:00006538       ??_C@_1O@EBKIFIGN@?$AAz?$AAh?$AA?9?$AAc?$AAh?$AAs?$AA?$AA@ 0000000180032538     libucrt:lcidtoname_downlevel.obj
 0002:00006548       ??_C@_1O@NMHPGANE@?$AAz?$AAh?$AA?9?$AAc?$AAh?$AAt?$AA?$AA@ 0000000180032548     libucrt:lcidtoname_downlevel.obj
 0002:00006558       ??_C@_1M@LPINJOMC@?$AAz?$AAh?$AA?9?$AAc?$AAn?$AA?$AA@ 0000000180032558     libucrt:lcidtoname_downlevel.obj
 0002:00006568       ??_C@_1M@OCJEJODD@?$AAz?$AAh?$AA?9?$AAh?$AAk?$AA?$AA@ 0000000180032568     libucrt:lcidtoname_downlevel.obj
 0002:00006578       ??_C@_1M@DNDLJINH@?$AAz?$AAh?$AA?9?$AAm?$AAo?$AA?$AA@ 0000000180032578     libucrt:lcidtoname_downlevel.obj
 0002:00006588       ??_C@_1M@MBFDNDND@?$AAz?$AAh?$AA?9?$AAs?$AAg?$AA?$AA@ 0000000180032588     libucrt:lcidtoname_downlevel.obj
 0002:00006598       ??_C@_1M@IMEPLEPE@?$AAz?$AAh?$AA?9?$AAt?$AAw?$AA?$AA@ 0000000180032598     libucrt:lcidtoname_downlevel.obj
 0002:000065a8       ??_C@_1M@BBGHNHJP@?$AAz?$AAu?$AA?9?$AAz?$AAa?$AA?$AA@ 00000001800325a8     libucrt:lcidtoname_downlevel.obj
 0002:000065c0       ?large_power_data@?1??multiply_by_power_of_ten@__crt_strtox@@YA_NAEAUbig_integer@2@I@Z@4QBIB 00000001800325c0     libucrt:cfout.obj
 0002:00006ed0       ?large_power_indices@?1??multiply_by_power_of_ten@__crt_strtox@@YA_NAEAUbig_integer@2@I@Z@4QBUunpack_index@?1??12@YA_N0I@Z@B 0000000180032ed0     libucrt:cfout.obj
 0002:00006f68       ?small_powers_of_ten@?6??multiply_by_power_of_ten@__crt_strtox@@YA_NAEAUbig_integer@2@I@Z@4QBIB 0000000180032f68     libucrt:cfout.obj
 0002:00006f8c       ??_C@_01GBGANLPD@0?$AA@    0000000180032f8c     libucrt:cfout.obj
 0002:00006f90       ??_C@_05DNEBIAHO@1?$CDINF?$AA@ 0000000180032f90     libucrt:cfout.obj
 0002:00006f98       ??_C@_06IMKFLFPG@1?$CDQNAN?$AA@ 0000000180032f98     libucrt:cfout.obj
 0002:00006fa0       ??_C@_06PGGFOGJG@1?$CDSNAN?$AA@ 0000000180032fa0     libucrt:cfout.obj
 0002:00006fa8       ??_C@_05PHHOCPM@1?$CDIND?$AA@ 0000000180032fa8     libucrt:cfout.obj
 0002:00007210       ??_C@_1BA@BALFACEM@?$AAC?$AAO?$AAN?$AAO?$AAU?$AAT?$AA$?$AA?$AA@ 0000000180033210     libucrt:initcon.obj
 0002:00007220       __log10_256_lead           0000000180033220     libucrt:log10_256_lead_tail_table.obj
 0002:00007a30       __log10_256_tail           0000000180033a30     libucrt:log10_256_lead_tail_table.obj
 0002:00008240       __log_F_inv_qword          0000000180034240     libucrt:log_f_inv_qword_table.obj
 0002:00008a50       ??_C@_05HGHHAHAP@log10?$AA@ 0000000180034a50     libucrt:log_special.obj
 0002:00008a58       ??_C@_0BC@BDKFLDHL@unknown?5exception?$AA@ 0000000180034a58     common.obj
 0002:00008a70       ??_C@_07CIFAGBMG@unknown?$AA@ 0000000180034a70     common.obj
 0002:00008a78       ??_C@_0BA@JFNIOLAK@string?5too?5long?$AA@ 0000000180034a78     common.obj
 0002:00008a90       ??_C@_1NC@FJJCJDKM@?$AAc?$AA?3?$AA?2?$AAu?$AAs?$AAe?$AAr?$AAs?$AA?2?$AAn?$AAa?$AAn?$AAt?$AAa?$AAs?$AA?2?$AAf?$AAi?$AAr?$AAe?$AAb?$AAa?$AAl?$AAl?$AA?9?$AAx?$AA?2?$AAf?$AAb?$AA_?$AA2?$AA1@ 0000000180034a90     common.obj
 0002:00008b70       ??_C@_1FK@CBGIJHDF@?$AAv?$AAa?$AAl?$AAu?$AAe?$AA?4?$AAs?$AAi?$AAz?$AAe?$AA?$CI?$AA?$CJ?$AA?5?$AA?$DM?$AA?$DN?$AA?5?$AAI?$AAN?$AAT?$AA_?$AAM?$AAA?$AAX?$AA?5?$AA?$CG?$AA?$CG?$AA?5?$AA?$CC?$AAs?$AAt?$AAr?$AAi@ 0000000180034b70     common.obj
 0002:00008bd0       ??_C@_1KG@MPCEHLMB@?$AAC?$AA?3?$AA?2?$AAU?$AAs?$AAe?$AAr?$AAs?$AA?2?$AAn?$AAa?$AAn?$AAt?$AAa?$AAs?$AA?2?$AAf?$AAi?$AAr?$AAe?$AAb?$AAa?$AAl?$AAl?$AA?9?$AAx?$AA?2?$AAf?$AAb?$AA_?$AA2?$AA1@ 0000000180034bd0     common.obj
 0002:00008c78       ??_C@_1BO@OPFMAOCA@?$AAl?$AAe?$AAn?$AA?5?$AA?$DM?$AA?$DN?$AA?5?$AAI?$AAN?$AAT?$AA_?$AAM?$AAA?$AAX?$AA?$AA@ 0000000180034c78     common.obj
 0002:00008c98       ??_C@_1BE@CKDJNAPC@?$AAs?$AAt?$AAr?$AA_?$AA?5?$AA?$CB?$AA?$DN?$AA?5?$AA0?$AA?$AA@ 0000000180034c98     common.obj
 0002:00008cac       ??_C@_04DAMGJPCA@file?$AA@ 0000000180034cac     common.obj
 0002:00008cb4       ??_C@_06HOHPNJLC@buffer?$AA@ 0000000180034cb4     common.obj
 0002:00008cc0       ??_C@_07HAFFKDBK@density?$AA@ 0000000180034cc0     common.obj
 0002:00008cc8       ??_C@_0M@FNJPIKDJ@rawChannels?$AA@ 0000000180034cc8     common.obj
 0002:00008cd8       ??_C@_08DNBMCCIG@rawWidth?$AA@ 0000000180034cd8     common.obj
 0002:00008ce8       ??_C@_09BDNNJGFJ@rawHeight?$AA@ 0000000180034ce8     common.obj
 0002:00008cf4       ??_C@_04GNPKBLNA@?4jpg?$AA@ 0000000180034cf4     common.obj
 0002:00008cfc       ??_C@_05KPIGABMB@?4jpeg?$AA@ 0000000180034cfc     common.obj
 0002:00008d04       ??_C@_04GAABNGKM@?4JPG?$AA@ 0000000180034d04     common.obj
 0002:00008d0c       ??_C@_05GDLMODLJ@?4JPEG?$AA@ 0000000180034d0c     common.obj
 0002:00008d14       ??_C@_04EEOGCCFB@?4png?$AA@ 0000000180034d14     common.obj
 0002:00008d1c       ??_C@_04EJBNOPCN@?4PNG?$AA@ 0000000180034d1c     common.obj
 0002:00008d24       ??_C@_05FAPNGHEM@?4webp?$AA@ 0000000180034d24     common.obj
 0002:00008d2c       ??_C@_05JMMHIFDE@?4WEBP?$AA@ 0000000180034d2c     common.obj
 0002:00008d34       ??_C@_04NHNAJCMC@?4tif?$AA@ 0000000180034d34     common.obj
 0002:00008d3c       ??_C@_05EGBKLPCP@?4tiff?$AA@ 0000000180034d3c     common.obj
 0002:00008d44       ??_C@_04NKCLFPLO@?4TIF?$AA@ 0000000180034d44     common.obj
 0002:00008d4c       ??_C@_05IKCAFNFH@?4TIFF?$AA@ 0000000180034d4c     common.obj
 0002:00008d54       ??_C@_04BODBMELL@?4dzi?$AA@ 0000000180034d54     common.obj
 0002:00008d5c       ??_C@_04BDMKAJMH@?4DZI?$AA@ 0000000180034d5c     common.obj
 0002:00008d64       ??_C@_04CLJHFACG@?4zip?$AA@ 0000000180034d64     common.obj
 0002:00008d6c       ??_C@_04CGGMJNFK@?4ZIP?$AA@ 0000000180034d6c     common.obj
 0002:00008d74       ??_C@_04NDPPKLJN@?4szi?$AA@ 0000000180034d74     common.obj
 0002:00008d7c       ??_C@_04NOAEGGOB@?4SZI?$AA@ 0000000180034d7c     common.obj
 0002:00008d84       ??_C@_02ELAIJDHH@?4v?$AA@  0000000180034d84     common.obj
 0002:00008d88       ??_C@_02NOIMLHNF@?4V?$AA@  0000000180034d88     common.obj
 0002:00008d8c       ??_C@_05BDMENFJJ@?4vips?$AA@ 0000000180034d8c     common.obj
 0002:00008d94       ??_C@_05NPPODHOB@?4VIPS?$AA@ 0000000180034d94     common.obj
 0002:00008d9c       ??_C@_04OFMADDDJ@jpeg?$AA@ 0000000180034d9c     common.obj
 0002:00008da4       ??_C@_03NNHBJLDF@png?$AA@  0000000180034da4     common.obj
 0002:00008da8       ??_C@_04BKLLFFLE@webp?$AA@ 0000000180034da8     common.obj
 0002:00008db0       ??_C@_04MFMINNH@tiff?$AA@  0000000180034db0     common.obj
 0002:00008db8       ??_C@_03MOLNDNH@gif?$AA@   0000000180034db8     common.obj
 0002:00008dbc       ??_C@_03NNPBMGBD@svg?$AA@  0000000180034dbc     common.obj
 0002:00008dc0       ??_C@_03MJPNCPKC@pdf?$AA@  0000000180034dc0     common.obj
 0002:00008dc4       ??_C@_06OKPOAFJK@magick?$AA@ 0000000180034dc4     common.obj
 0002:00008dd0       ??_C@_09EPLGDDHC@openslide?$AA@ 0000000180034dd0     common.obj
 0002:00008ddc       ??_C@_03DBCGPNMF@ppm?$AA@  0000000180034ddc     common.obj
 0002:00008de0       ??_C@_04DOGLNIDP@fits?$AA@ 0000000180034de0     common.obj
 0002:00008de8       ??_C@_01MHEDDDHA@v?$AA@    0000000180034de8     common.obj
 0002:00008dec       ??_C@_03DGOGAGNC@raw?$AA@  0000000180034dec     common.obj
 0002:00008df0       ??_C@_0L@EJFNCHAG@JpegBuffer?$AA@ 0000000180034df0     common.obj
 0002:00008e00       ??_C@_09DILPCCPK@PngBuffer?$AA@ 0000000180034e00     common.obj
 0002:00008e10       ??_C@_0L@PPKHLBJN@WebpBuffer?$AA@ 0000000180034e10     common.obj
 0002:00008e20       ??_C@_0L@JLEBFOLC@TiffBuffer?$AA@ 0000000180034e20     common.obj
 0002:00008e30       ??_C@_09FFAGNFDM@GifBuffer?$AA@ 0000000180034e30     common.obj
 0002:00008e40       ??_C@_09MEJAHJJA@SvgBuffer?$AA@ 0000000180034e40     common.obj
 0002:00008e50       ??_C@_09GBDLKIPK@PdfBuffer?$AA@ 0000000180034e50     common.obj
 0002:00008e60       ??_C@_0N@NGPOAFON@MagickBuffer?$AA@ 0000000180034e60     common.obj
 0002:00008e70       ??_C@_08PKLPBHDO@JpegFile?$AA@ 0000000180034e70     common.obj
 0002:00008e7c       ??_C@_03HNEDDEAL@Png?$AA@  0000000180034e7c     common.obj
 0002:00008e80       ??_C@_08EIBPIBPK@WebpFile?$AA@ 0000000180034e80     common.obj
 0002:00008e90       ??_C@_09OLDAKC@Openslide?$AA@ 0000000180034e90     common.obj
 0002:00008ea0       ??_C@_08HPNGNOF@TiffFile?$AA@ 0000000180034ea0     common.obj
 0002:00008eb0       ??_C@_07LBNMLGNF@GifFile?$AA@ 0000000180034eb0     common.obj
 0002:00008eb8       ??_C@_07BDOHLGIG@SvgFile?$AA@ 0000000180034eb8     common.obj
 0002:00008ec0       ??_C@_07KGHFOPCH@PdfFile?$AA@ 0000000180034ec0     common.obj
 0002:00008ec8       ??_C@_03JBBEFCPL@Ppm?$AA@  0000000180034ec8     common.obj
 0002:00008ecc       ??_C@_04PPKKPHDL@Fits?$AA@ 0000000180034ecc     common.obj
 0002:00008ed4       ??_C@_04JIEDMIGF@Vips?$AA@ 0000000180034ed4     common.obj
 0002:00008edc       ??_C@_06CFEDDMAG@Magick?$AA@ 0000000180034edc     common.obj
 0002:00008ee8       ??_C@_0L@FAJADDGP@MagickFile?$AA@ 0000000180034ee8     common.obj
 0002:00008ef4       ??_C@_06EBPNOMLE@access?$AA@ 0000000180034ef4     common.obj
 0002:00008efc       ??_C@_03IKDBPIAJ@dpi?$AA@  0000000180034efc     common.obj
 0002:00008f00       ??_C@_0CA@OIAJAHMJ@Input?5buffer?5has?5corrupt?5header?$AA@ 0000000180034f00     common.obj
 0002:00008f20       ??_C@_0CP@GJLHFOKI@Input?5buffer?5contains?5unsupporte@ 0000000180034f20     common.obj
 0002:00008f50       ??_C@_0BO@PAEMAFOF@Input?5file?5has?5corrupt?5header?$AA@ 0000000180034f50     common.obj
 0002:00008f70       ??_C@_0DI@LCOLEBMK@Input?5file?5is?5missing?5or?5of?5an?5u@ 0000000180034f70     common.obj
 0002:00008fa8       ??_C@_0BB@KFEJJKPL@icc?9profile?9data?$AA@ 0000000180034fa8     common.obj
 0002:00008fc0       ??_C@_0M@KPMDGEHG@orientation?$AA@ 0000000180034fc0     common.obj
 0002:00008fcc       ??_C@_04LKIGMHAB@Xres?$AA@ 0000000180034fcc     common.obj
 0002:00008fd4       ??_C@_04IHOGOOLB@Yres?$AA@ 0000000180034fd4     common.obj
 0002:00008fdc       ??_C@_02LMMGJAGL@in?$AA@   0000000180034fdc     common.obj
 0002:00008fe0       ??_C@_0BA@KHBHLNPN@resolution?9unit?$AA@ 0000000180034fe0     common.obj
 0002:00008ff0       ??_C@_05DPGGGHAJ@bands?$AA@ 0000000180034ff0     common.obj
 0002:00008ff8       ??_C@_0N@FNCHJOOH@source_space?$AA@ 0000000180034ff8     common.obj
 0002:00009008       ??_C@_0BD@OLBABOEK@vector?$DMT?$DO?5too?5long?$AA@ 0000000180035008     common.obj
 0002:00009020       ??_C@_0BI@CFPLBAOH@invalid?5string?5position?$AA@ 0000000180035020     common.obj
 0002:00009038       ??_7exception@stdext@@6B@  0000000180035038     common.obj
 0002:00009050       ??_C@_1GA@PFOOBIAG@?$AAl?$AAe?$AAn?$AAg?$AAt?$AAh?$AA?5?$AA?$DM?$AA?$DN?$AA?5?$AAi?$AAm?$AAp?$AA?3?$AA?3?$AAk?$AAM?$AAa?$AAx?$AAL?$AAe?$AAn?$AAg?$AAt?$AAh?$AA?5?$AA?$CG?$AA?$CG?$AA?5?$AA?$CC?$AAt?$AAo@ 0000000180035050     metadata.obj
 0002:000090b0       ??_C@_09DMAGDGFG@exif?9data?$AA@ 00000001800350b0     metadata.obj
 0002:000090bc       ??_C@_06DLEPGFEF@format?$AA@ 00000001800350bc     metadata.obj
 0002:000090c4       ??_C@_05IGKADHGO@width?$AA@ 00000001800350c4     metadata.obj
 0002:000090cc       ??_C@_06LNLHEAAG@height?$AA@ 00000001800350cc     metadata.obj
 0002:000090d4       ??_C@_05OLNILLAB@space?$AA@ 00000001800350d4     metadata.obj
 0002:000090e0       ??_C@_08PAMBCCJ@channels?$AA@ 00000001800350e0     metadata.obj
 0002:000090f0       ??_C@_0L@FHAMLBLJ@hasProfile?$AA@ 00000001800350f0     metadata.obj
 0002:00009100       ??_C@_08PGFHIBBJ@hasAlpha?$AA@ 0000000180035100     metadata.obj
 0002:0000910c       ??_C@_04LCCFEECC@exif?$AA@ 000000018003510c     metadata.obj
 0002:00009114       ??_C@_03JMNENFHH@icc?$AA@  0000000180035114     metadata.obj
 0002:00009118       ??_C@_05DFJCHPDH@input?$AA@ 0000000180035118     metadata.obj
 0002:00009120       ??_7AsyncWorker@Nan@@6B@   0000000180035120     metadata.obj
 0002:00009150       ??_7MetadataWorker@@6B@    0000000180035150     metadata.obj
 0002:00009180       ??_C@_06BPBOMFNI@extend?$AA@ 0000000180035180     operations.obj
 0002:00009188       ??_C@_0L@EGCKCJDC@background?$AA@ 0000000180035188     operations.obj
 0002:00009198       ??_C@_0CJ@GMMNIMCE@Overlay?5image?5must?5have?5an?5alpha@ 0000000180035198     operations.obj
 0002:000091c8       ??_C@_0DA@JDCCBCFP@Image?5to?5be?5overlaid?5must?5have?5a@ 00000001800351c8     operations.obj
 0002:000091f8       ??_C@_0DD@HGKGMJEI@Overlay?5image?5must?5have?5same?5dim@ 00000001800351f8     operations.obj
 0002:0000922c       ??_C@_01EFFIKLCJ@n?$AA@    000000018003522c     operations.obj
 0002:00009230       ??_C@_0DF@OKFIIGFK@Overlay?5image?5must?5have?5an?5alpha@ 0000000180035230     operations.obj
 0002:00009268       ??_C@_08EGJNFMPO@exponent?$AA@ 0000000180035268     operations.obj
 0002:00009274       ??_C@_05MHMEBBGO@scale?$AA@ 0000000180035274     operations.obj
 0002:0000927c       ??_C@_06KLHHMIGM@offset?$AA@ 000000018003527c     operations.obj
 0002:00009284       ??_C@_05MNLBPJCA@sigma?$AA@ 0000000180035284     operations.obj
 0002:0000928c       ??_C@_02IGOMHJCM@m1?$AA@   000000018003528c     operations.obj
 0002:00009290       ??_C@_02KNMBCKOP@m2?$AA@   0000000180035290     operations.obj
 0002:00009298       ??_C@_0L@MICNGMNL@tile_width?$AA@ 0000000180035298     operations.obj
 0002:000092a8       ??_C@_0M@GPCIKFO@tile_height?$AA@ 00000001800352a8     operations.obj
 0002:000092b8       ??_C@_09OGDDKPHL@max_tiles?$AA@ 00000001800352b8     operations.obj
 0002:000092c8       ??_C@_08MLOCAEKM@threaded?$AA@ 00000001800352c8     operations.obj
 0002:000092d8       ??_C@_0P@KOMFEOGE@interpretation?$AA@ 00000001800352d8     operations.obj
 0002:000092e8       ??_C@_0DM@EHHONNDC@Unexpected?5error?5while?5trimming?4@ 00000001800352e8     operations.obj
 0002:00009324       ??_C@_00CNPNBAHC@?$AA@     0000000180035324     pipeline.obj
 0002:00009328       ??_C@_05JGNPNNFP@4?32?30?$AA@ 0000000180035328     pipeline.obj
 0002:00009330       ??_C@_08DIHJGEJL@sRGB?4icc?$AA@ 0000000180035330     pipeline.obj
 0002:00009340       ??_C@_08IOCIMAEE@cmyk?4icm?$AA@ 0000000180035340     pipeline.obj
 0002:00009350       ??_C@_0CA@EEKNMMGH@Input?5image?5exceeds?5pixel?5limit?$AA@ 0000000180035350     pipeline.obj
 0002:00009370       ??_C@_06FKMIDIGA@shrink?$AA@ 0000000180035370     pipeline.obj
 0002:00009378       ??_C@_08JHIHEPEE@embedded?$AA@ 0000000180035378     pipeline.obj
 0002:00009384       ??_C@_06EHPDFMHL@intent?$AA@ 0000000180035384     pipeline.obj
 0002:00009390       ??_C@_0O@CGLCIOGA@input_profile?$AA@ 0000000180035390     pipeline.obj
 0002:000093a0       ??_C@_0P@EOHEPKJF@Unknown?5kernel?$AA@ 00000001800353a0     pipeline.obj
 0002:000093b0       ??_C@_06GMKELIII@kernel?$AA@ 00000001800353b0     pipeline.obj
 0002:000093b8       ??_C@_06NFEDFCL@centre?$AA@ 00000001800353b8     pipeline.obj
 0002:000093c0       ??_C@_0M@LFLAJNDD@interpolate?$AA@ 00000001800353c0     pipeline.obj
 0002:000093d0       ??_C@_0DO@PDNPJCDI@Cannot?5extract?5channel?5from?5imag@ 00000001800353d0     pipeline.obj
 0002:00009410       ??_C@_05GGNGIGHC@strip?$AA@ 0000000180035410     pipeline.obj
 0002:00009418       ??_C@_01BNIGIBBF@Q?$AA@    0000000180035418     pipeline.obj
 0002:00009420       ??_C@_09JPBLFCFG@interlace?$AA@ 0000000180035420     pipeline.obj
 0002:0000942c       ??_C@_05NHNIEHIH@4?34?34?$AA@ 000000018003542c     pipeline.obj
 0002:00009438       ??_C@_0N@MNGIACEA@no_subsample?$AA@ 0000000180035438     pipeline.obj
 0002:00009448       ??_C@_0O@FKIFMLAH@trellis_quant?$AA@ 0000000180035448     pipeline.obj
 0002:00009458       ??_C@_0BE@LIFHAJLE@overshoot_deringing?$AA@ 0000000180035458     pipeline.obj
 0002:00009470       ??_C@_0P@BDAPCNGM@optimize_scans?$AA@ 0000000180035470     pipeline.obj
 0002:00009480       ??_C@_0BA@DPHOAEGB@optimize_coding?$AA@ 0000000180035480     pipeline.obj
 0002:00009490       ??_C@_0M@DGJEMLOB@compression?$AA@ 0000000180035490     pipeline.obj
 0002:0000949c       ??_C@_06EOIELIPE@filter?$AA@ 000000018003549c     pipeline.obj
 0002:000094a8       ??_C@_0DA@OEPBKHDN@Could?5not?5allocate?5enough?5memory@ 00000001800354a8     pipeline.obj
 0002:000094d8       ??_C@_0BL@IBFNPJMG@Unsupported?5output?5format?5?$AA@ 00000001800354d8     pipeline.obj
 0002:000094f4       ??_C@_02JKLANEGN@dz?$AA@   00000001800354f4     pipeline.obj
 0002:000094f8       ??_C@_04HCDDPBNL@TRUE?$AA@ 00000001800354f8     pipeline.obj
 0002:00009500       ??_C@_05MAJJAKPI@FALSE?$AA@ 0000000180035500     pipeline.obj
 0002:00009508       ??_C@_03NFKEKGGK@all?$AA@  0000000180035508     pipeline.obj
 0002:0000950c       ??_C@_04CGFJFPFD@none?$AA@ 000000018003550c     pipeline.obj
 0002:00009518       ??_C@_09JLFLJPC@tile_size?$AA@ 0000000180035518     pipeline.obj
 0002:00009528       ??_C@_07NAFPMKIM@overlap?$AA@ 0000000180035528     pipeline.obj
 0002:00009530       ??_C@_09KHFPHLHC@container?$AA@ 0000000180035530     pipeline.obj
 0002:0000953c       ??_C@_06GDMDKJEN@layout?$AA@ 000000018003553c     pipeline.obj
 0002:00009544       ??_C@_06EMCDFPCG@suffix?$AA@ 0000000180035544     pipeline.obj
 0002:00009550       ??_C@_0N@BBHMIKHL@cropCalcLeft?$AA@ 0000000180035550     pipeline.obj
 0002:00009560       ??_C@_0M@KOELNNIP@cropCalcTop?$AA@ 0000000180035560     pipeline.obj
 0002:0000956c       ??_C@_04IAGNFIBA@size?$AA@ 000000018003556c     pipeline.obj
 0002:00009574       ??_C@_01IHBHIGKO@?0?$AA@   0000000180035574     pipeline.obj
 0002:00009578       ??_C@_01NEMOKFLO@?$DN?$AA@ 0000000180035578     pipeline.obj
 0002:0000957c       ??_C@_01LBDDMOBJ@?$FN?$AA@ 000000018003557c     pipeline.obj
 0002:00009580       ??_C@_01OHGJGJJP@?$FL?$AA@ 0000000180035580     pipeline.obj
 0002:00009588       ??_C@_0P@FEJLNJHN@iccProfilePath?$AA@ 0000000180035588     pipeline.obj
 0002:00009598       ??_C@_0P@DEOGMFMC@sequentialRead?$AA@ 0000000180035598     pipeline.obj
 0002:000095a8       ??_C@_0BB@JFIFEMIM@limitInputPixels?$AA@ 00000001800355a8     pipeline.obj
 0002:000095c0       ??_C@_0N@HFHHDNPE@topOffsetPre?$AA@ 00000001800355c0     pipeline.obj
 0002:000095d0       ??_C@_0O@EJHBCKPJ@leftOffsetPre?$AA@ 00000001800355d0     pipeline.obj
 0002:000095e0       ??_C@_08IAGKMJAO@widthPre?$AA@ 00000001800355e0     pipeline.obj
 0002:000095f0       ??_C@_09CFADDJFL@heightPre?$AA@ 00000001800355f0     pipeline.obj
 0002:00009600       ??_C@_0O@ELCOKNEK@topOffsetPost?$AA@ 0000000180035600     pipeline.obj
 0002:00009610       ??_C@_0P@DFKDNHOA@leftOffsetPost?$AA@ 0000000180035610     pipeline.obj
 0002:00009620       ??_C@_09BGLDKLLM@widthPost?$AA@ 0000000180035620     pipeline.obj
 0002:00009630       ??_C@_0L@NBHGHDH@heightPost?$AA@ 0000000180035630     pipeline.obj
 0002:0000963c       ??_C@_06DODEBHEI@canvas?$AA@ 000000018003563c     pipeline.obj
 0002:00009644       ??_C@_04EKMNJIID@crop?$AA@ 0000000180035644     pipeline.obj
 0002:0000964c       ??_C@_05KJAEOLKJ@embed?$AA@ 000000018003564c     pipeline.obj
 0002:00009654       ??_C@_03LJAEFNNE@max?$AA@  0000000180035654     pipeline.obj
 0002:00009658       ??_C@_03KLIPLJLL@min?$AA@  0000000180035658     pipeline.obj
 0002:00009660       ??_C@_0O@EBNBJBNA@ignore_aspect?$AA@ 0000000180035660     pipeline.obj
 0002:00009670       ??_C@_07BJNHBMF@overlay?$AA@ 0000000180035670     pipeline.obj
 0002:00009678       ??_C@_0P@MJMPJDFA@overlayGravity?$AA@ 0000000180035678     pipeline.obj
 0002:00009688       ??_C@_0P@EPOLNDIO@overlayXOffset?$AA@ 0000000180035688     pipeline.obj
 0002:00009698       ??_C@_0P@IDEBNDBA@overlayYOffset?$AA@ 0000000180035698     pipeline.obj
 0002:000096a8       ??_C@_0M@HFLCKELG@overlayTile?$AA@ 00000001800356a8     pipeline.obj
 0002:000096b8       ??_C@_0O@JDANFBLD@overlayCutout?$AA@ 00000001800356b8     pipeline.obj
 0002:000096c8       ??_C@_0BD@OBKKOCNN@withoutEnlargement?$AA@ 00000001800356c8     pipeline.obj
 0002:000096e0       ??_C@_0N@KPPLEPCJ@interpolator?$AA@ 00000001800356e0     pipeline.obj
 0002:000096f0       ??_C@_0P@PFAMLOFI@centreSampling?$AA@ 00000001800356f0     pipeline.obj
 0002:00009700       ??_C@_0O@CNGDBBAO@joinChannelIn?$AA@ 0000000180035700     pipeline.obj
 0002:00009710       ??_C@_06IJDLPEM@length?$AA@ 0000000180035710     pipeline.obj
 0002:00009718       ??_C@_07FOIKENOC@flatten?$AA@ 0000000180035718     pipeline.obj
 0002:00009720       ??_C@_06CNJONIF@negate?$AA@ 0000000180035720     pipeline.obj
 0002:00009728       ??_C@_09GIFHMNMI@blurSigma?$AA@ 0000000180035728     pipeline.obj
 0002:00009738       ??_C@_0N@INAMFHGE@sharpenSigma?$AA@ 0000000180035738     pipeline.obj
 0002:00009748       ??_C@_0M@DOLMPNLL@sharpenFlat?$AA@ 0000000180035748     pipeline.obj
 0002:00009758       ??_C@_0O@DNGCBEHN@sharpenJagged?$AA@ 0000000180035758     pipeline.obj
 0002:00009768       ??_C@_09DEHKFMCJ@threshold?$AA@ 0000000180035768     pipeline.obj
 0002:00009778       ??_C@_0BD@LFFDJFMK@thresholdGrayscale?$AA@ 0000000180035778     pipeline.obj
 0002:00009790       ??_C@_0O@CPCBNIGC@trimTolerance?$AA@ 0000000180035790     pipeline.obj
 0002:000097a0       ??_C@_05KDLBCAI@gamma?$AA@ 00000001800357a0     pipeline.obj
 0002:000097a8       ??_C@_09JJBJBHMG@greyscale?$AA@ 00000001800357a8     pipeline.obj
 0002:000097b8       ??_C@_09MDOMOBCG@normalise?$AA@ 00000001800357b8     pipeline.obj
 0002:000097c4       ??_C@_05FECBCJJD@angle?$AA@ 00000001800357c4     pipeline.obj
 0002:000097d0       ??_C@_0BH@LDFMOEDF@rotateBeforePreExtract?$AA@ 00000001800357d0     pipeline.obj
 0002:000097e8       ??_C@_04DGGGELON@flip?$AA@ 00000001800357e8     pipeline.obj
 0002:000097f0       ??_C@_04DCOLDHFP@flop?$AA@ 00000001800357f0     pipeline.obj
 0002:000097f8       ??_C@_09OHMDBHOB@extendTop?$AA@ 00000001800357f8     pipeline.obj
 0002:00009808       ??_C@_0N@CJMFAMOE@extendBottom?$AA@ 0000000180035808     pipeline.obj
 0002:00009818       ??_C@_0L@LLDPEOOO@extendLeft?$AA@ 0000000180035818     pipeline.obj
 0002:00009828       ??_C@_0M@FNPGPPFI@extendRight?$AA@ 0000000180035828     pipeline.obj
 0002:00009838       ??_C@_0P@JCBGLICH@extractChannel?$AA@ 0000000180035838     pipeline.obj
 0002:00009848       ??_C@_07GOBOHMJA@boolean?$AA@ 0000000180035848     pipeline.obj
 0002:00009850       ??_C@_09HMALGKBI@booleanOp?$AA@ 0000000180035850     pipeline.obj
 0002:00009860       ??_C@_0L@HGLIDICA@bandBoolOp?$AA@ 0000000180035860     pipeline.obj
 0002:00009870       ??_C@_0L@ECLGICGD@convKernel?$AA@ 0000000180035870     pipeline.obj
 0002:00009880       ??_C@_0M@GKGJPELG@colourspace?$AA@ 0000000180035880     pipeline.obj
 0002:00009890       ??_C@_09FCKGNCNB@formatOut?$AA@ 0000000180035890     pipeline.obj
 0002:000098a0       ??_C@_07GGINOJKC@fileOut?$AA@ 00000001800358a0     pipeline.obj
 0002:000098a8       ??_C@_0N@KCFDEJAE@withMetadata?$AA@ 00000001800358a8     pipeline.obj
 0002:000098b8       ??_C@_0BI@ECBJEELE@withMetadataOrientation?$AA@ 00000001800358b8     pipeline.obj
 0002:000098d0       ??_C@_0M@OEDMDMIO@jpegQuality?$AA@ 00000001800358d0     pipeline.obj
 0002:000098e0       ??_C@_0BA@CLCIEFBH@jpegProgressive?$AA@ 00000001800358e0     pipeline.obj
 0002:000098f0       ??_C@_0BG@LLJOOGEK@jpegChromaSubsampling?$AA@ 00000001800358f0     pipeline.obj
 0002:00009908       ??_C@_0BI@HMEGNPHB@jpegTrellisQuantisation?$AA@ 0000000180035908     pipeline.obj
 0002:00009920       ??_C@_0BH@GJOPAFDP@jpegOvershootDeringing?$AA@ 0000000180035920     pipeline.obj
 0002:00009938       ??_C@_0BC@IMPEKCHA@jpegOptimiseScans?$AA@ 0000000180035938     pipeline.obj
 0002:00009950       ??_C@_0P@JCIKABOD@pngProgressive?$AA@ 0000000180035950     pipeline.obj
 0002:00009960       ??_C@_0BE@PJPJKLFH@pngCompressionLevel?$AA@ 0000000180035960     pipeline.obj
 0002:00009978       ??_C@_0BF@NMJJOHJB@pngAdaptiveFiltering?$AA@ 0000000180035978     pipeline.obj
 0002:00009990       ??_C@_0M@IDFHIMNE@webpQuality?$AA@ 0000000180035990     pipeline.obj
 0002:000099a0       ??_C@_0M@CIOCFHGC@tiffQuality?$AA@ 00000001800359a0     pipeline.obj
 0002:000099b0       ??_C@_08BHEDAFJG@tileSize?$AA@ 00000001800359b0     pipeline.obj
 0002:000099c0       ??_C@_0M@OGCEIDPP@tileOverlap?$AA@ 00000001800359c0     pipeline.obj
 0002:000099d0       ??_C@_0O@KMENJOAI@tileContainer?$AA@ 00000001800359d0     pipeline.obj
 0002:000099e0       ??_C@_03LCAAOJEC@zip?$AA@  00000001800359e0     pipeline.obj
 0002:000099e8       ??_C@_0L@BLMACMOH@tileLayout?$AA@ 00000001800359e8     pipeline.obj
 0002:000099f4       ??_C@_06DBPEGNOF@google?$AA@ 00000001800359f4     pipeline.obj
 0002:00009a00       ??_C@_07LGDKFCBF@zoomify?$AA@ 0000000180035a00     pipeline.obj
 0002:00009a08       ??_C@_0L@EDEMOAOP@tileFormat?$AA@ 0000000180035a08     pipeline.obj
 0002:00009a18       ??_C@_0O@JFLKJFFB@queueListener?$AA@ 0000000180035a18     pipeline.obj
 0002:00009a28       ??_C@_0BE@JONHPENG@map?1set?$DMT?$DO?5too?5long?$AA@ 0000000180035a28     pipeline.obj
 0002:00009a40       ??_7?$_Func_impl@UEntropyStrategy@sharp@@V?$allocator@H@std@@NVVImage@vips@@@std@@6B@ 0000000180035a40     pipeline.obj
 0002:00009a70       ??_7?$_Func_base@NVVImage@vips@@@std@@6B@ 0000000180035a70     pipeline.obj
 0002:00009aa8       ??_7PipelineWorker@@6B@    0000000180035aa8     pipeline.obj
 0002:00009ad8       ??_7?$_Func_impl@UAttentionStrategy@sharp@@V?$allocator@H@std@@NVVImage@vips@@@std@@6B@ 0000000180035ad8     pipeline.obj
 0002:00009b08       ??_C@_05JBBJEIBB@sharp?$AA@ 0000000180035b08     sharp.obj
 0002:00009b10       ??_C@_08DHGINADL@metadata?$AA@ 0000000180035b10     sharp.obj
 0002:00009b20       ??_C@_08NCIPIGNL@pipeline?$AA@ 0000000180035b20     sharp.obj
 0002:00009b2c       ??_C@_05BDNCCAMC@cache?$AA@ 0000000180035b2c     sharp.obj
 0002:00009b38       ??_C@_0M@FFOAFBMD@concurrency?$AA@ 0000000180035b38     sharp.obj
 0002:00009b48       ??_C@_08KKLAKCLE@counters?$AA@ 0000000180035b48     sharp.obj
 0002:00009b54       ??_C@_04IABPNMKE@simd?$AA@ 0000000180035b54     sharp.obj
 0002:00009b60       ??_C@_0P@PAMOCECJ@libvipsVersion?$AA@ 0000000180035b60     sharp.obj
 0002:00009b70       ??_C@_0BD@OKKEIJGD@_maxColourDistance?$AA@ 0000000180035b70     sharp.obj
 0002:00009b88       ??_C@_0BA@PFJFAGKD@?4?4?2src?2sharp?4cc?$AA@ 0000000180035b88     sharp.obj
 0002:00009b98       ??_C@_07LKPDDKMO@current?$AA@ 0000000180035b98     utilities.obj
 0002:00009ba0       ??_C@_04DGANLAON@high?$AA@ 0000000180035ba0     utilities.obj
 0002:00009ba8       ??_C@_06HLKELJGF@memory?$AA@ 0000000180035ba8     utilities.obj
 0002:00009bb0       ??_C@_05DPEMMMGC@files?$AA@ 0000000180035bb0     utilities.obj
 0002:00009bb8       ??_C@_05CFHBDDLG@items?$AA@ 0000000180035bb8     utilities.obj
 0002:00009bc0       ??_C@_05PJDJNNOP@queue?$AA@ 0000000180035bc0     utilities.obj
 0002:00009bc8       ??_C@_07DEBHDLBL@process?$AA@ 0000000180035bc8     utilities.obj
 0002:00009bd0       ??_C@_08FOJKHHJA@?$CFd?4?$CFd?4?$CFd?$AA@ 0000000180035bd0     utilities.obj
 0002:00009bdc       ??_C@_02EGCJHIOB@id?$AA@   0000000180035bdc     utilities.obj
 0002:00009be0       ??_C@_06DKIGHACF@output?$AA@ 0000000180035be0     utilities.obj
 0002:00009be8       ??_C@_06DJAMKFID@stream?$AA@ 0000000180035be8     utilities.obj
 0002:00009bf0       ??_C@_04EONOHKEP@load?$AA@ 0000000180035bf0     utilities.obj
 0002:00009bf8       ??_C@_0O@HGKOHLML@VipsOperation?$AA@ 0000000180035bf8     utilities.obj
 0002:00009c08       ??_C@_0M@MFBONNFI@load_buffer?$AA@ 0000000180035c08     utilities.obj
 0002:00009c14       ??_C@_04EMMDIJJL@save?$AA@ 0000000180035c14     utilities.obj
 0002:00009c20       ??_C@_0M@DLONAKAB@save_buffer?$AA@ 0000000180035c20     utilities.obj
 0002:00009c30       ??_C@_0CA@DONHLNKM@Input?5file?51?5has?5corrupt?5header?$AA@ 0000000180035c30     utilities.obj
 0002:00009c50       ??_C@_0CP@BLBKEBMA@Input?5file?51?5is?5of?5an?5unsupporte@ 0000000180035c50     utilities.obj
 0002:00009c80       ??_C@_0CA@EFMJDPEP@Input?5file?52?5has?5corrupt?5header?$AA@ 0000000180035c80     utilities.obj
 0002:00009ca0       ??_C@_0CP@HPPKDKDO@Input?5file?52?5is?5of?5an?5unsupporte@ 0000000180035ca0     utilities.obj
 0002:00009cd0       ??_C@_0BA@HJLAGCNF@mismatchedBands?$AA@ 0000000180035cd0     utilities.obj
 0002:00009ce0       ??_C@_0BF@NPFPPJPF@mismatchedDimensions?$AA@ 0000000180035ce0     utilities.obj
 0002:0000a108       __real@3f70101010101010    0000000180036108     operations.obj
 0002:0000a110       __real@3fb27bb2fec56d5d    0000000180036110     pipeline.obj
 0002:0000a118       __real@3fc0000000000000    0000000180036118     operations.obj
 0002:0000a120       __real@3fcb367a0f9096bc    0000000180036120     pipeline.obj
 0002:0000a128       __real@3fe6e2eb1c432ca5    0000000180036128     pipeline.obj
 0002:0000a130       __real@3ff0000000000000    0000000180036130     operations.obj
 0002:0000a138       __real@3ff3333333333333    0000000180036138     operations.obj
 0002:0000a140       __real@4000000000000000    0000000180036140     operations.obj
 0002:0000a148       __real@4008000000000000    0000000180036148     operations.obj
 0002:0000a150       __real@4010000000000000    0000000180036150     operations.obj
 0002:0000a158       __real@4022000000000000    0000000180036158     operations.obj
 0002:0000a160       __real@4024000000000000    0000000180036160     operations.obj
 0002:0000a168       __real@4036000000000000    0000000180036168     operations.obj
 0002:0000a170       __real@4038000000000000    0000000180036170     operations.obj
 0002:0000a178       __real@4039666666666666    0000000180036178     common.obj
 0002:0000a180       __real@403f000000000000    0000000180036180     operations.obj
 0002:0000a188       __real@4040000000000000    0000000180036188     operations.obj
 0002:0000a190       __real@404e000000000000    0000000180036190     operations.obj
 0002:0000a198       __real@4059000000000000    0000000180036198     operations.obj
 0002:0000a1a0       __real@4060000000000000    00000001800361a0     operations.obj
 0002:0000a1a8       __real@406fe00000000000    00000001800361a8     operations.obj
 0002:0000a1b0       __real@4070000000000000    00000001800361b0     pipeline.obj
 0002:0000a1b8       __real@40e0000000000000    00000001800361b8     operations.obj
 0002:0000a1c0       __real@40efffe000000000    00000001800361c0     common.obj
 0002:0000a1c8       __real@43f0000000000000    00000001800361c8     utilities.obj
 0002:0000a1d0       __real@bff0000000000000    00000001800361d0     operations.obj
 0002:0000a1d8       __real@c000000000000000    00000001800361d8     operations.obj
 0002:0000a1e0       __xmm@00000000000000003ff0000000000000 00000001800361e0     pipeline.obj
 0002:0000a1f0       __xmm@3ff00000000000003ff0000000000000 00000001800361f0     operations.obj
 0002:0000a200       __xmm@80000000000000008000000000000000 0000000180036200     operations.obj
 0002:0000a210       __xmm@bff0000000000000bff0000000000000 0000000180036210     operations.obj
 0002:0000ad00       _load_config_used          0000000180036d00     LIBCMT:loadcfg.obj
 0002:0000ad98       ??_R4exception@std@@6B@    0000000180036d98     libcpmt:xthrow.obj
 0002:0000adc0       ??_R3exception@std@@8      0000000180036dc0     libcpmt:xthrow.obj
 0002:0000add8       ??_R2exception@std@@8      0000000180036dd8     libcpmt:xthrow.obj
 0002:0000ade8       ??_R1A@?0A@EA@exception@std@@8 0000000180036de8     libcpmt:xthrow.obj
 0002:0000ae10       ??_R4bad_alloc@std@@6B@    0000000180036e10     libcpmt:xthrow.obj
 0002:0000ae38       ??_R3bad_alloc@std@@8      0000000180036e38     libcpmt:xthrow.obj
 0002:0000ae50       ??_R2bad_alloc@std@@8      0000000180036e50     libcpmt:xthrow.obj
 0002:0000ae68       ??_R1A@?0A@EA@bad_alloc@std@@8 0000000180036e68     libcpmt:xthrow.obj
 0002:0000ae90       ??_R4logic_error@std@@6B@  0000000180036e90     libcpmt:xthrow.obj
 0002:0000aeb8       ??_R3logic_error@std@@8    0000000180036eb8     libcpmt:xthrow.obj
 0002:0000aed0       ??_R2logic_error@std@@8    0000000180036ed0     libcpmt:xthrow.obj
 0002:0000aee8       ??_R1A@?0A@EA@logic_error@std@@8 0000000180036ee8     libcpmt:xthrow.obj
 0002:0000af10       ??_R4length_error@std@@6B@ 0000000180036f10     libcpmt:xthrow.obj
 0002:0000af38       ??_R3length_error@std@@8   0000000180036f38     libcpmt:xthrow.obj
 0002:0000af50       ??_R2length_error@std@@8   0000000180036f50     libcpmt:xthrow.obj
 0002:0000af70       ??_R1A@?0A@EA@length_error@std@@8 0000000180036f70     libcpmt:xthrow.obj
 0002:0000af98       ??_R4out_of_range@std@@6B@ 0000000180036f98     libcpmt:xthrow.obj
 0002:0000afc0       ??_R3out_of_range@std@@8   0000000180036fc0     libcpmt:xthrow.obj
 0002:0000afd8       ??_R2out_of_range@std@@8   0000000180036fd8     libcpmt:xthrow.obj
 0002:0000aff8       ??_R1A@?0A@EA@out_of_range@std@@8 0000000180036ff8     libcpmt:xthrow.obj
 0002:0000b020       ??_R4bad_function_call@std@@6B@ 0000000180037020     libcpmt:xthrow.obj
 0002:0000b048       ??_R3bad_function_call@std@@8 0000000180037048     libcpmt:xthrow.obj
 0002:0000b060       ??_R2bad_function_call@std@@8 0000000180037060     libcpmt:xthrow.obj
 0002:0000b078       ??_R1A@?0A@EA@bad_function_call@std@@8 0000000180037078     libcpmt:xthrow.obj
 0002:0000b0a0       ??_R4type_info@@6B@        00000001800370a0     LIBCMT:std_type_info_static.obj
 0002:0000b0c8       ??_R3type_info@@8          00000001800370c8     LIBCMT:std_type_info_static.obj
 0002:0000b0e0       ??_R2type_info@@8          00000001800370e0     LIBCMT:std_type_info_static.obj
 0002:0000b0f0       ??_R1A@?0A@EA@type_info@@8 00000001800370f0     LIBCMT:std_type_info_static.obj
 0002:0000b118       ??_R4bad_array_new_length@std@@6B@ 0000000180037118     LIBCMT:throw_bad_alloc.obj
 0002:0000b140       ??_R3bad_array_new_length@std@@8 0000000180037140     LIBCMT:throw_bad_alloc.obj
 0002:0000b158       ??_R2bad_array_new_length@std@@8 0000000180037158     LIBCMT:throw_bad_alloc.obj
 0002:0000b178       ??_R1A@?0A@EA@bad_array_new_length@std@@8 0000000180037178     LIBCMT:throw_bad_alloc.obj
 0002:0000b1a0       ??_R4bad_exception@std@@6B@ 00000001800371a0     libvcruntime:frame.obj
 0002:0000b1c8       ??_R3bad_exception@std@@8  00000001800371c8     libvcruntime:frame.obj
 0002:0000b1e0       ??_R2bad_exception@std@@8  00000001800371e0     libvcruntime:frame.obj
 0002:0000b1f8       ??_R1A@?0A@EA@bad_exception@std@@8 00000001800371f8     libvcruntime:frame.obj
 0002:0000b5c8       __rtc_iaa                  00000001800375c8     LIBCMT:_initsect_.obj
 0002:0000b5d0       __rtc_izz                  00000001800375d0     LIBCMT:_initsect_.obj
 0002:0000b5d8       __rtc_taa                  00000001800375d8     LIBCMT:_initsect_.obj
 0002:0000b5e0       __rtc_tzz                  00000001800375e0     LIBCMT:_initsect_.obj
 0002:00010230       _TI2?AVbad_alloc@std@@     000000018003c230     libcpmt:xthrow.obj
 0002:00010250       _CTA2?AVbad_alloc@std@@    000000018003c250     libcpmt:xthrow.obj
 0002:00010268       _CT??_R0?AVbad_alloc@std@@@8??0bad_alloc@std@@QEAA@AEBV01@@Z24 000000018003c268     libcpmt:xthrow.obj
 0002:00010290       _CT??_R0?AVexception@std@@@8??0exception@std@@QEAA@AEBV01@@Z24 000000018003c290     libcpmt:xthrow.obj
 0002:000102b8       _CT??_R0?AVlogic_error@std@@@8??0logic_error@std@@QEAA@AEBV01@@Z24 000000018003c2b8     libcpmt:xthrow.obj
 0002:000102e0       _TI3?AVlength_error@std@@  000000018003c2e0     libcpmt:xthrow.obj
 0002:00010300       _CTA3?AVlength_error@std@@ 000000018003c300     libcpmt:xthrow.obj
 0002:00010320       _CT??_R0?AVlength_error@std@@@8??0length_error@std@@QEAA@AEBV01@@Z24 000000018003c320     libcpmt:xthrow.obj
 0002:00010348       _TI3?AVout_of_range@std@@  000000018003c348     libcpmt:xthrow.obj
 0002:00010368       _CTA3?AVout_of_range@std@@ 000000018003c368     libcpmt:xthrow.obj
 0002:00010388       _CT??_R0?AVout_of_range@std@@@8??0out_of_range@std@@QEAA@AEBV01@@Z24 000000018003c388     libcpmt:xthrow.obj
 0002:000103b0       _TI2?AVbad_function_call@std@@ 000000018003c3b0     libcpmt:xthrow.obj
 0002:000103d0       _CTA2?AVbad_function_call@std@@ 000000018003c3d0     libcpmt:xthrow.obj
 0002:000103e8       _CT??_R0?AVbad_function_call@std@@@8??0bad_function_call@std@@QEAA@AEBV01@@Z24 000000018003c3e8     libcpmt:xthrow.obj
 0002:00010410       _TI3?AVbad_array_new_length@std@@ 000000018003c410     LIBCMT:throw_bad_alloc.obj
 0002:00010430       _CTA3?AVbad_array_new_length@std@@ 000000018003c430     LIBCMT:throw_bad_alloc.obj
 0002:00010450       _CT??_R0?AVbad_array_new_length@std@@@8??0bad_array_new_length@std@@QEAA@AEBV01@@Z24 000000018003c450     LIBCMT:throw_bad_alloc.obj
 0002:00010478       _TI2?AVbad_exception@std@@ 000000018003c478     libvcruntime:frame.obj
 0002:00010498       _CTA2?AVbad_exception@std@@ 000000018003c498     libvcruntime:frame.obj
 0002:000104b0       _CT??_R0?AVbad_exception@std@@@8??0bad_exception@std@@QEAA@AEBV01@@Z24 000000018003c4b0     libvcruntime:frame.obj
 0002:000104d8       _CTA2?AVVError@vips@@      000000018003c4d8     common.obj
 0002:000104f0       _CT??_R0?AVVError@vips@@@848 000000018003c4f0     common.obj
 0002:00010518       _TI2?AVVError@vips@@       000000018003c518     common.obj
 0002:00010538       _CT??_R0?AVexception@stdext@@@816 000000018003c538     common.obj
 0002:000105b0       __IMPORT_DESCRIPTOR_KERNEL32 000000018003c5b0     kernel32:KERNEL32.dll
 0002:000105c4       __IMPORT_DESCRIPTOR_node   000000018003c5c4     iojs:node.dll
 0002:000105d8       _head_lib_libvips_lib      000000018003c5d8     libvips:dmrkh.o
 0002:000105ec       _head_lib_libglib_2_0_lib  000000018003c5ec     libglib-2.0:dgokh.o
 0002:00010600       __IMPORT_DESCRIPTOR_libvips-cpp 000000018003c600     libvips-cpp:libvips-cpp.dll
 0002:00010614       __NULL_IMPORT_DESCRIPTOR   000000018003c614     kernel32:KERNEL32.dll
 0002:00013a98       __lib_libvips_lib_iname    000000018003fa98     libvips:dmrkt.o
 0002:00013ac0       __lib_libglib_2_0_lib_iname 000000018003fac0     libglib-2.0:dgokt.o
 0003:00000000       __security_cookie          0000000180040000     LIBCMT:gs_cookie.obj
 0003:00000008       __security_cookie_complement 0000000180040008     LIBCMT:gs_cookie.obj
 0003:00000010       __scrt_native_dllmain_reason 0000000180040010     LIBCMT:utility.obj
 0003:00000018       __isa_available            0000000180040018     LIBCMT:_cpu_disp_.obj
 0003:0000001c       __isa_enabled              000000018004001c     LIBCMT:_cpu_disp_.obj
 0003:00000020       __memcpy_nt_iters          0000000180040020     LIBCMT:_cpu_disp_.obj
 0003:00000040       __abort_behavior           0000000180040040     libucrt:abort.obj
 0003:00000050       _iob                       0000000180040050     libucrt:_file.obj
 0003:00000160       __acrt_initial_locale_data 0000000180040160     libucrt:nlsdata.obj
 0003:000002b8       __acrt_initial_locale_pointers 00000001800402b8     libucrt:nlsdata.obj
 0003:000002c8       __acrt_wide_c_locale_string 00000001800402c8     libucrt:nlsdata.obj
 0003:000002d0       __acrt_initial_multibyte_data 00000001800402d0     libucrt:mbctype.obj
 0003:000004f8       __acrt_current_multibyte_data 00000001800404f8     libucrt:mbctype.obj
 0003:00000600       _mbctype                   0000000180040600     libucrt:mbctype.obj
 0003:00000710       _mbcasemap                 0000000180040710     libucrt:mbctype.obj
 0003:00000810       __badioinfo                0000000180040810     libucrt:ioinit.obj
 0003:00000850       _pwctype                   0000000180040850     libucrt:ctype.obj
 0003:00000858       __globallocalestatus       0000000180040858     libucrt:glstatus.obj
 0003:00000860       __acrt_lconv_c             0000000180040860     libucrt:localeconv.obj
 0003:000008f8       __acrt_lconv_static_decimal 00000001800408f8     libucrt:localeconv.obj
 0003:000008fc       __acrt_lconv_static_W_decimal 00000001800408fc     libucrt:localeconv.obj
 0003:00000910       __dcrt_lowio_console_output_handle 0000000180040910     libucrt:initcon.obj
 0003:00000924       _fltused                   0000000180040924     LIBCMT:fltused.obj
 0003:00000970       ??_R0?AVbad_alloc@std@@@8  0000000180040970     libcpmt:xthrow.obj
 0003:00000998       ??_R0?AVexception@std@@@8  0000000180040998     libcpmt:xthrow.obj
 0003:000009c0       ??_R0?AVlogic_error@std@@@8 00000001800409c0     libcpmt:xthrow.obj
 0003:000009e8       ??_R0?AVlength_error@std@@@8 00000001800409e8     libcpmt:xthrow.obj
 0003:00000a10       ??_R0?AVout_of_range@std@@@8 0000000180040a10     libcpmt:xthrow.obj
 0003:00000a38       ??_R0?AVbad_function_call@std@@@8 0000000180040a38     libcpmt:xthrow.obj
 0003:00000a68       ??_R0?AVtype_info@@@8      0000000180040a68     LIBCMT:std_type_info_static.obj
 0003:00000a88       ??_R0?AVbad_array_new_length@std@@@8 0000000180040a88     LIBCMT:throw_bad_alloc.obj
 0003:00000ab8       ??_R0?AVbad_exception@std@@@8 0000000180040ab8     libvcruntime:frame.obj
 0003:00000ae0       ??_R0?AVexception@stdext@@@8 0000000180040ae0     common.obj
 0003:00000b08       ??_R0?AVVError@vips@@@8    0000000180040b08     common.obj
 0003:00000b30       ??_R0?AUAttentionStrategy@sharp@@@8 0000000180040b30     pipeline.obj
 0003:00000b60       ??_R0?AUEntropyStrategy@sharp@@@8 0000000180040b60     pipeline.obj
 0003:00001110       __scrt_current_native_startup_state 0000000180041110     LIBCMT:utility.obj
 0003:00001118       __scrt_native_startup_lock 0000000180041118     LIBCMT:utility.obj
 0003:00001160       ?__type_info_root_node@@3U__type_info_node@@A 0000000180041160     LIBCMT:tncleanup.obj
 0003:00001170       ?_OptionsStorage@?1??__local_stdio_printf_options@@9@4_KA 0000000180041170     LIBCMT:default_local_stdio_options.obj
 0003:00001178       ?_OptionsStorage@?1??__local_stdio_scanf_options@@9@4_KA 0000000180041178     LIBCMT:default_local_stdio_options.obj
 0003:00001180       __scrt_debugger_hook_flag  0000000180041180     LIBCMT:utility_desktop.obj
 0003:00001184       __favor                    0000000180041184     LIBCMT:_cpu_disp_.obj
 0003:00001188       ?g_OutOfMemoryExceptionCallback@@3P6APEAXXZEA 0000000180041188     libvcruntime:frame.obj
 0003:00001208       __pPurecall                0000000180041208     libvcruntime:purevirt_data.obj
 0003:000012a8       ?pArgList@UnDecorator@@0PEAVReplicator@@EA 00000001800412a8     libvcruntime:undname.obj
 0003:000012b0       ?pZNameList@UnDecorator@@0PEAVReplicator@@EA 00000001800412b0     libvcruntime:undname.obj
 0003:000012b8       ?pTemplateArgList@UnDecorator@@0PEAVReplicator@@EA 00000001800412b8     libvcruntime:undname.obj
 0003:000012c0       ?gName@UnDecorator@@0PEBDEB 00000001800412c0     libvcruntime:undname.obj
 0003:000012c8       ?name@UnDecorator@@0PEBDEB 00000001800412c8     libvcruntime:undname.obj
 0003:000012d0       ?outputString@UnDecorator@@0PEADEA 00000001800412d0     libvcruntime:undname.obj
 0003:000012d8       ?maxStringLength@UnDecorator@@0HA 00000001800412d8     libvcruntime:undname.obj
 0003:000012dc       ?disableFlags@UnDecorator@@0KA 00000001800412dc     libvcruntime:undname.obj
 0003:000012e0       ?fExplicitTemplateParams@UnDecorator@@0_NA 00000001800412e0     libvcruntime:undname.obj
 0003:000012e1       ?fGetTemplateArgumentList@UnDecorator@@0_NA 00000001800412e1     libvcruntime:undname.obj
 0003:000012e8       ?m_pGetParameter@UnDecorator@@0P6APEADJ@ZEA 00000001800412e8     libvcruntime:undname.obj
 0003:00001448       _environ_table             0000000180041448     libucrt:environment_initialization.obj
 0003:00001450       _wenviron_table            0000000180041450     libucrt:environment_initialization.obj
 0003:00001458       __dcrt_initial_wide_environment 0000000180041458     libucrt:environment_initialization.obj
 0003:00001460       __dcrt_initial_narrow_environment 0000000180041460     libucrt:environment_initialization.obj
 0003:00001468       __acrt_atexit_table        0000000180041468     libucrt:onexit.obj
 0003:00001480       __acrt_at_quick_exit_table 0000000180041480     libucrt:onexit.obj
 0003:000014a0       _nstream                   00000001800414a0     libucrt:_file.obj
 0003:000014a8       __piob                     00000001800414a8     libucrt:_file.obj
 0003:000014b0       _cflush                    00000001800414b0     libucrt:_file.obj
 0003:000014d8       __acrt_locale_changed_data 00000001800414d8     libucrt:wsetlocale.obj
 0003:000014e0       __acrt_current_locale_data 00000001800414e0     libucrt:nlsdata.obj
 0003:000018a4       __mbcodepage               00000001800418a4     libucrt:mbctype.obj
 0003:000018a8       __ismbcodepage             00000001800418a8     libucrt:mbctype.obj
 0003:000018b0       __mbulinfo                 00000001800418b0     libucrt:mbctype.obj
 0003:000018c0       __mblocalename             00000001800418c0     libucrt:mbctype.obj
 0003:000018cc       __argc                     00000001800418cc     libucrt:argv_data.obj
 0003:000018d0       __argv                     00000001800418d0     libucrt:argv_data.obj
 0003:000018d8       __wargv                    00000001800418d8     libucrt:argv_data.obj
 0003:000018e0       _acmdln                    00000001800418e0     libucrt:argv_data.obj
 0003:000018e8       _wcmdln                    00000001800418e8     libucrt:argv_data.obj
 0003:000018f0       _pgmptr                    00000001800418f0     libucrt:argv_data.obj
 0003:000018f8       __acrt_heap                00000001800418f8     libucrt:heap_handle.obj
 0003:00001900       __pioinfo                  0000000180041900     libucrt:ioinit.obj
 0003:00001d00       _nhandle                   0000000180041d00     libucrt:ioinit.obj
 0003:00001d10       __acrt_stdout_buffer       0000000180041d10     libucrt:_sftbuf.obj
 0003:00001d18       __acrt_stderr_buffer       0000000180041d18     libucrt:_sftbuf.obj
 0003:00001d30       __acrt_lconv_static_null   0000000180041d30     libucrt:localeconv.obj
 0003:00001d34       __acrt_lconv_static_W_null 0000000180041d34     libucrt:localeconv.obj
 0003:00001d38       __fma3_is_available        0000000180041d38     libucrt:fma3_available.obj
 0003:00001d3c       __use_fma3_lib             0000000180041d3c     libucrt:fma3_available.obj
 0003:00001d40       ?counterQueue@sharp@@3HC   0000000180041d40     common.obj
 0003:00001d44       ?counterProcess@sharp@@3HC 0000000180041d44     common.obj
 0003:00001d48       __scrt_ucrt_dll_is_in_use  0000000180041d48     <common>
 0003:00001d50       __dyn_tls_init_callback    0000000180041d50     <common>

 entry point at        0001:000156b0

 Static symbols

 0000:fffb9000       .debug$S                   0000000180000000     libvips-cpp:libvips-cpp.dll
 0000:fffb9000       .debug$S                   0000000180000000     kernel32:KERNEL32.dll
 0000:fffb9000       .debug$S                   0000000180000000     libvips-cpp:libvips-cpp.dll
 0000:fffb9000       .debug$S                   0000000180000000     libvips-cpp:libvips-cpp.dll
 0000:fffb9000       .debug$S                   0000000180000000     libvips-cpp:libvips-cpp.dll
 0000:fffb9000       .debug$S                   0000000180000000     libvips-cpp:libvips-cpp.dll
 0000:fffb9000       .debug$S                   0000000180000000     libvips-cpp:libvips-cpp.dll
 0000:fffb9000       .debug$S                   0000000180000000     libvips-cpp:libvips-cpp.dll
 0000:fffb9000       .debug$S                   0000000180000000     libvips-cpp:libvips-cpp.dll
 0000:fffb9000       .debug$S                   0000000180000000     libvips-cpp:libvips-cpp.dll
 0000:fffb9000       .debug$S                   0000000180000000     libvips-cpp:libvips-cpp.dll
 0000:fffb9000       .debug$S                   0000000180000000     libvips-cpp:libvips-cpp.dll
 0000:fffb9000       .debug$S                   0000000180000000     libvips-cpp:libvips-cpp.dll
 0000:fffb9000       .debug$S                   0000000180000000     libvips-cpp:libvips-cpp.dll
 0000:fffb9000       .debug$S                   0000000180000000     libvips-cpp:libvips-cpp.dll
 0000:fffb9000       .debug$S                   0000000180000000     libvips-cpp:libvips-cpp.dll
 0000:fffb9000       .debug$S                   0000000180000000     libvips-cpp:libvips-cpp.dll
 0000:fffb9000       .debug$S                   0000000180000000     libvips-cpp:libvips-cpp.dll
 0000:fffb9000       .debug$S                   0000000180000000     libvips-cpp:libvips-cpp.dll
 0000:fffb9000       .debug$S                   0000000180000000     libvips-cpp:libvips-cpp.dll
 0000:fffb9000       .debug$S                   0000000180000000     libvips-cpp:libvips-cpp.dll
 0000:fffb9000       .debug$S                   0000000180000000     libvips-cpp:libvips-cpp.dll
 0000:fffb9000       .debug$S                   0000000180000000     libvips-cpp:libvips-cpp.dll
 0000:fffb9000       .debug$S                   0000000180000000     libvips-cpp:libvips-cpp.dll
 0000:fffb9000       .debug$S                   0000000180000000     libvips-cpp:libvips-cpp.dll
 0000:fffb9000       .debug$S                   0000000180000000     libvips-cpp:libvips-cpp.dll
 0000:fffb9000       .debug$S                   0000000180000000     libvips-cpp:libvips-cpp.dll
 0000:fffb9000       .debug$S                   0000000180000000     libvips-cpp:libvips-cpp.dll
 0000:fffb9000       .debug$S                   0000000180000000     libvips-cpp:libvips-cpp.dll
 0000:fffb9000       .debug$S                   0000000180000000     libvips-cpp:libvips-cpp.dll
 0000:fffb9000       .debug$S                   0000000180000000     libvips-cpp:libvips-cpp.dll
 0000:fffb9000       .debug$S                   0000000180000000     libvips-cpp:libvips-cpp.dll
 0000:fffb9000       .debug$S                   0000000180000000     libvips-cpp:libvips-cpp.dll
 0000:fffb9000       .debug$S                   0000000180000000     libvips-cpp:libvips-cpp.dll
 0000:fffb9000       .debug$S                   0000000180000000     libvips-cpp:libvips-cpp.dll
 0000:fffb9000       .debug$S                   0000000180000000     libvips-cpp:libvips-cpp.dll
 0000:fffb9000       .debug$S                   0000000180000000     libvips-cpp:libvips-cpp.dll
 0000:fffb9000       .debug$S                   0000000180000000     libvips-cpp:libvips-cpp.dll
 0000:fffb9000       .debug$S                   0000000180000000     libvips-cpp:libvips-cpp.dll
 0000:fffb9000       .debug$S                   0000000180000000     libvips-cpp:libvips-cpp.dll
 0000:fffb9000       .debug$S                   0000000180000000     libvips-cpp:libvips-cpp.dll
 0000:fffb9000       .debug$S                   0000000180000000     libvips-cpp:libvips-cpp.dll
 0000:fffb9000       .debug$S                   0000000180000000     libvips-cpp:libvips-cpp.dll
 0000:fffb9000       .debug$S                   0000000180000000     libvips-cpp:libvips-cpp.dll
 0000:fffb9000       .debug$S                   0000000180000000     libvips-cpp:libvips-cpp.dll
 0000:fffb9000       .debug$S                   0000000180000000     libvips-cpp:libvips-cpp.dll
 0000:fffb9000       .debug$S                   0000000180000000     libvips-cpp:libvips-cpp.dll
 0000:fffb9000       .debug$S                   0000000180000000     libvips-cpp:libvips-cpp.dll
 0000:fffb9000       .debug$S                   0000000180000000     libvips-cpp:libvips-cpp.dll
 0000:fffb9000       .debug$S                   0000000180000000     libvips-cpp:libvips-cpp.dll
 0000:fffb9000       .debug$S                   0000000180000000     libvips-cpp:libvips-cpp.dll
 0000:fffb9000       .debug$S                   0000000180000000     libvips-cpp:libvips-cpp.dll
 0000:fffb9000       .debug$S                   0000000180000000     libvips-cpp:libvips-cpp.dll
 0000:fffb9000       .debug$S                   0000000180000000     libvips-cpp:libvips-cpp.dll
 0000:fffb9000       .debug$S                   0000000180000000     libvips-cpp:libvips-cpp.dll
 0000:fffb9000       .debug$S                   0000000180000000     libvips-cpp:libvips-cpp.dll
 0000:fffb9000       .debug$S                   0000000180000000     libvips-cpp:libvips-cpp.dll
 0000:fffb9000       .debug$S                   0000000180000000     libvips-cpp:libvips-cpp.dll
 0000:fffb9000       .debug$S                   0000000180000000     libvips-cpp:libvips-cpp.dll
 0000:fffb9000       .debug$S                   0000000180000000     libvips-cpp:libvips-cpp.dll
 0000:fffb9000       .debug$S                   0000000180000000     libvips-cpp:libvips-cpp.dll
 0000:fffb9000       .debug$S                   0000000180000000     libvips-cpp:libvips-cpp.dll
 0000:fffb9000       .debug$S                   0000000180000000     libvips-cpp:libvips-cpp.dll
 0000:fffb9000       .debug$S                   0000000180000000     libvips-cpp:libvips-cpp.dll
 0000:fffb9000       .debug$S                   0000000180000000     libvips-cpp:libvips-cpp.dll
 0000:fffb9000       .debug$S                   0000000180000000     libvips-cpp:libvips-cpp.dll
 0000:fffb9000       .debug$S                   0000000180000000     libvips-cpp:libvips-cpp.dll
 0000:fffb9000       .debug$S                   0000000180000000     libvips-cpp:libvips-cpp.dll
 0000:fffb9000       .debug$S                   0000000180000000     libvips-cpp:libvips-cpp.dll
 0000:fffb9000       .debug$S                   0000000180000000     kernel32:KERNEL32.dll
 0000:fffb9000       .debug$S                   0000000180000000     libvips-cpp:libvips-cpp.dll
 0000:fffb9000       .debug$S                   0000000180000000     libvips-cpp:libvips-cpp.dll
 0000:fffb9000       .debug$S                   0000000180000000     libvips-cpp:libvips-cpp.dll
 0000:fffb9000       .debug$S                   0000000180000000     libvips-cpp:libvips-cpp.dll
 0000:fffb9000       .debug$S                   0000000180000000     libvips-cpp:libvips-cpp.dll
 0000:fffb9000       .debug$S                   0000000180000000     libvips-cpp:libvips-cpp.dll
 0000:fffb9000       .debug$S                   0000000180000000     libvips-cpp:libvips-cpp.dll
 0000:fffb9000       .debug$S                   0000000180000000     libvips-cpp:libvips-cpp.dll
 0000:fffb9000       .debug$S                   0000000180000000     libvips-cpp:libvips-cpp.dll
 0000:fffb9000       .debug$S                   0000000180000000     libvips-cpp:libvips-cpp.dll
 0000:fffb9000       .debug$S                   0000000180000000     libvips-cpp:libvips-cpp.dll
 0000:fffb9000       .debug$S                   0000000180000000     libvips-cpp:libvips-cpp.dll
 0000:fffb9000       .debug$S                   0000000180000000     libvips-cpp:libvips-cpp.dll
 0000:fffb9000       .debug$S                   0000000180000000     libvips-cpp:libvips-cpp.dll
 0000:fffb9000       .debug$S                   0000000180000000     kernel32:KERNEL32.dll
 0000:fffb9000       .debug$S                   0000000180000000     libvips-cpp:libvips-cpp.dll
 0000:fffb9000       .debug$S                   0000000180000000     libvips-cpp:libvips-cpp.dll
 0000:fffb9000       .debug$S                   0000000180000000     libvips-cpp:libvips-cpp.dll
 0000:fffb9000       .debug$S                   0000000180000000     libvips-cpp:libvips-cpp.dll
 0000:fffb9000       .debug$S                   0000000180000000     kernel32:KERNEL32.dll
 0000:fffb9000       .debug$S                   0000000180000000     libvips-cpp:libvips-cpp.dll
 0000:fffb9000       .debug$S                   0000000180000000     libvips-cpp:libvips-cpp.dll
 0000:fffb9000       .debug$S                   0000000180000000     kernel32:KERNEL32.dll
 0000:fffb9000       .debug$S                   0000000180000000     libvips-cpp:libvips-cpp.dll
 0000:fffb9000       .debug$S                   0000000180000000     libvips-cpp:libvips-cpp.dll
 0000:fffb9000       .debug$S                   0000000180000000     kernel32:KERNEL32.dll
 0000:fffb9000       .debug$S                   0000000180000000     libvips-cpp:libvips-cpp.dll
 0000:fffb9000       .debug$S                   0000000180000000     kernel32:KERNEL32.dll
 0000:fffb9000       .debug$S                   0000000180000000     libvips-cpp:libvips-cpp.dll
 0000:fffb9000       .debug$S                   0000000180000000     kernel32:KERNEL32.dll
 0000:fffb9000       .debug$S                   0000000180000000     libvips-cpp:libvips-cpp.dll
 0000:fffb9000       .debug$S                   0000000180000000     libvips-cpp:libvips-cpp.dll
 0000:fffb9000       .debug$S                   0000000180000000     kernel32:KERNEL32.dll
 0000:fffb9000       .debug$S                   0000000180000000     libvips-cpp:libvips-cpp.dll
 0000:fffb9000       .debug$S                   0000000180000000     sharp.exp
 0000:fffb9000       .debug$S                   0000000180000000     libvips-cpp:libvips-cpp.dll
 0000:fffb9000       .debug$S                   0000000180000000     libvips-cpp:libvips-cpp.dll
 0000:fffb9000       .debug$S                   0000000180000000     libvips-cpp:libvips-cpp.dll
 0000:fffb9000       .debug$S                   0000000180000000     libvips-cpp:libvips-cpp.dll
 0000:fffb9000       .debug$S                   0000000180000000     libvips-cpp:libvips-cpp.dll
 0000:fffb9000       .debug$S                   0000000180000000     kernel32:KERNEL32.dll
 0000:fffb9000       .debug$S                   0000000180000000     kernel32:KERNEL32.dll
 0000:fffb9000       .debug$S                   0000000180000000     kernel32:KERNEL32.dll
 0000:fffb9000       .debug$S                   0000000180000000     kernel32:KERNEL32.dll
 0000:fffb9000       .debug$S                   0000000180000000     kernel32:KERNEL32.dll
 0000:fffb9000       .debug$S                   0000000180000000     kernel32:KERNEL32.dll
 0000:fffb9000       .debug$S                   0000000180000000     kernel32:KERNEL32.dll
 0000:fffb9000       .debug$S                   0000000180000000     kernel32:KERNEL32.dll
 0000:fffb9000       .debug$S                   0000000180000000     kernel32:KERNEL32.dll
 0000:fffb9000       .debug$S                   0000000180000000     kernel32:KERNEL32.dll
 0000:fffb9000       .debug$S                   0000000180000000     kernel32:KERNEL32.dll
 0000:fffb9000       .debug$S                   0000000180000000     kernel32:KERNEL32.dll
 0000:fffb9000       .debug$S                   0000000180000000     kernel32:KERNEL32.dll
 0000:fffb9000       .debug$S                   0000000180000000     kernel32:KERNEL32.dll
 0000:fffb9000       .debug$S                   0000000180000000     kernel32:KERNEL32.dll
 0000:fffb9000       .debug$S                   0000000180000000     kernel32:KERNEL32.dll
 0000:fffb9000       .debug$S                   0000000180000000     kernel32:KERNEL32.dll
 0000:fffb9000       .debug$S                   0000000180000000     kernel32:KERNEL32.dll
 0000:fffb9000       .debug$S                   0000000180000000     kernel32:KERNEL32.dll
 0000:fffb9000       .debug$S                   0000000180000000     libvips-cpp:libvips-cpp.dll
 0000:fffb9000       .debug$S                   0000000180000000     libvips-cpp:libvips-cpp.dll
 0000:fffb9000       .debug$S                   0000000180000000     kernel32:KERNEL32.dll
 0000:fffb9000       .debug$S                   0000000180000000     libvips-cpp:libvips-cpp.dll
 0000:fffb9000       .debug$S                   0000000180000000     libvips-cpp:libvips-cpp.dll
 0000:fffb9000       .debug$S                   0000000180000000     kernel32:KERNEL32.dll
 0000:fffb9000       .debug$S                   0000000180000000     libvips-cpp:libvips-cpp.dll
 0000:fffb9000       .debug$S                   0000000180000000     iojs:node.dll
 0000:fffb9000       .debug$S                   0000000180000000     iojs:node.dll
 0000:fffb9000       .debug$S                   0000000180000000     iojs:node.dll
 0000:fffb9000       .debug$S                   0000000180000000     iojs:node.dll
 0000:fffb9000       .debug$S                   0000000180000000     iojs:node.dll
 0000:fffb9000       .debug$S                   0000000180000000     iojs:node.dll
 0000:fffb9000       .debug$S                   0000000180000000     iojs:node.dll
 0000:fffb9000       .debug$S                   0000000180000000     kernel32:KERNEL32.dll
 0000:fffb9000       .debug$S                   0000000180000000     iojs:node.dll
 0000:fffb9000       .debug$S                   0000000180000000     iojs:node.dll
 0000:fffb9000       .debug$S                   0000000180000000     iojs:node.dll
 0000:fffb9000       .debug$S                   0000000180000000     iojs:node.dll
 0000:fffb9000       .debug$S                   0000000180000000     iojs:node.dll
 0000:fffb9000       .debug$S                   0000000180000000     iojs:node.dll
 0000:fffb9000       .debug$S                   0000000180000000     iojs:node.dll
 0000:fffb9000       .debug$S                   0000000180000000     iojs:node.dll
 0000:fffb9000       .debug$S                   0000000180000000     iojs:node.dll
 0000:fffb9000       .debug$S                   0000000180000000     iojs:node.dll
 0000:fffb9000       .debug$S                   0000000180000000     iojs:node.dll
 0000:fffb9000       .debug$S                   0000000180000000     iojs:node.dll
 0000:fffb9000       .debug$S                   0000000180000000     iojs:node.dll
 0000:fffb9000       .debug$S                   0000000180000000     iojs:node.dll
 0000:fffb9000       .debug$S                   0000000180000000     iojs:node.dll
 0000:fffb9000       .debug$S                   0000000180000000     iojs:node.dll
 0000:fffb9000       .debug$S                   0000000180000000     iojs:node.dll
 0000:fffb9000       .debug$S                   0000000180000000     kernel32:KERNEL32.dll
 0000:fffb9000       .debug$S                   0000000180000000     iojs:node.dll
 0000:fffb9000       .debug$S                   0000000180000000     iojs:node.dll
 0000:fffb9000       .debug$S                   0000000180000000     iojs:node.dll
 0000:fffb9000       .debug$S                   0000000180000000     iojs:node.dll
 0000:fffb9000       .debug$S                   0000000180000000     kernel32:KERNEL32.dll
 0000:fffb9000       .debug$S                   0000000180000000     iojs:node.dll
 0000:fffb9000       .debug$S                   0000000180000000     iojs:node.dll
 0000:fffb9000       .debug$S                   0000000180000000     iojs:node.dll
 0000:fffb9000       .debug$S                   0000000180000000     iojs:node.dll
 0000:fffb9000       .debug$S                   0000000180000000     iojs:node.dll
 0000:fffb9000       .debug$S                   0000000180000000     iojs:node.dll
 0000:fffb9000       .debug$S                   0000000180000000     iojs:node.dll
 0000:fffb9000       .debug$S                   0000000180000000     iojs:node.dll
 0000:fffb9000       .debug$S                   0000000180000000     iojs:node.dll
 0000:fffb9000       .debug$S                   0000000180000000     iojs:node.dll
 0000:fffb9000       .debug$S                   0000000180000000     iojs:node.dll
 0000:fffb9000       .debug$S                   0000000180000000     iojs:node.dll
 0000:fffb9000       .debug$S                   0000000180000000     iojs:node.dll
 0000:fffb9000       .debug$S                   0000000180000000     iojs:node.dll
 0000:fffb9000       .debug$S                   0000000180000000     iojs:node.dll
 0000:fffb9000       .debug$S                   0000000180000000     iojs:node.dll
 0000:fffb9000       .debug$S                   0000000180000000     iojs:node.dll
 0000:fffb9000       .debug$S                   0000000180000000     iojs:node.dll
 0000:fffb9000       .debug$S                   0000000180000000     iojs:node.dll
 0000:fffb9000       .debug$S                   0000000180000000     iojs:node.dll
 0000:fffb9000       .debug$S                   0000000180000000     iojs:node.dll
 0000:fffb9000       .debug$S                   0000000180000000     iojs:node.dll
 0000:fffb9000       .debug$S                   0000000180000000     iojs:node.dll
 0000:fffb9000       .debug$S                   0000000180000000     iojs:node.dll
 0000:fffb9000       .debug$S                   0000000180000000     iojs:node.dll
 0000:fffb9000       .debug$S                   0000000180000000     iojs:node.dll
 0000:fffb9000       .debug$S                   0000000180000000     iojs:node.dll
 0000:fffb9000       .debug$S                   0000000180000000     iojs:node.dll
 0000:fffb9000       .debug$S                   0000000180000000     iojs:node.dll
 0000:fffb9000       .debug$S                   0000000180000000     iojs:node.dll
 0000:fffb9000       .debug$S                   0000000180000000     libvips-cpp:libvips-cpp.dll
 0000:fffb9000       .debug$S                   0000000180000000     kernel32:KERNEL32.dll
 0000:fffb9000       .debug$S                   0000000180000000     kernel32:KERNEL32.dll
 0000:fffb9000       .debug$S                   0000000180000000     kernel32:KERNEL32.dll
 0000:fffb9000       .debug$S                   0000000180000000     kernel32:KERNEL32.dll
 0000:fffb9000       .debug$S                   0000000180000000     kernel32:KERNEL32.dll
 0000:fffb9000       .debug$S                   0000000180000000     kernel32:KERNEL32.dll
 0000:fffb9000       .debug$S                   0000000180000000     kernel32:KERNEL32.dll
 0000:fffb9000       .debug$S                   0000000180000000     kernel32:KERNEL32.dll
 0000:fffb9000       .debug$S                   0000000180000000     kernel32:KERNEL32.dll
 0000:fffb9000       .debug$S                   0000000180000000     kernel32:KERNEL32.dll
 0000:fffb9000       .debug$S                   0000000180000000     kernel32:KERNEL32.dll
 0000:fffb9000       .debug$S                   0000000180000000     kernel32:KERNEL32.dll
 0000:fffb9000       .debug$S                   0000000180000000     kernel32:KERNEL32.dll
 0000:fffb9000       .debug$S                   0000000180000000     kernel32:KERNEL32.dll
 0000:fffb9000       .debug$S                   0000000180000000     kernel32:KERNEL32.dll
 0000:fffb9000       .debug$S                   0000000180000000     kernel32:KERNEL32.dll
 0000:fffb9000       .debug$S                   0000000180000000     kernel32:KERNEL32.dll
 0000:fffb9000       .debug$S                   0000000180000000     kernel32:KERNEL32.dll
 0000:fffb9000       .debug$S                   0000000180000000     kernel32:KERNEL32.dll
 0000:fffb9000       .debug$S                   0000000180000000     kernel32:KERNEL32.dll
 0000:fffb9000       .debug$S                   0000000180000000     kernel32:KERNEL32.dll
 0000:fffb9000       .debug$S                   0000000180000000     kernel32:KERNEL32.dll
 0000:fffb9000       .debug$S                   0000000180000000     kernel32:KERNEL32.dll
 0000:fffb9000       .debug$S                   0000000180000000     kernel32:KERNEL32.dll
 0000:fffb9000       .debug$S                   0000000180000000     kernel32:KERNEL32.dll
 0000:fffb9000       .debug$S                   0000000180000000     kernel32:KERNEL32.dll
 0000:fffb9000       .debug$S                   0000000180000000     kernel32:KERNEL32.dll
 0000:fffb9000       .debug$S                   0000000180000000     kernel32:KERNEL32.dll
 0000:fffb9000       .debug$S                   0000000180000000     kernel32:KERNEL32.dll
 0000:fffb9000       .debug$S                   0000000180000000     kernel32:KERNEL32.dll
 0000:fffb9000       .debug$S                   0000000180000000     kernel32:KERNEL32.dll
 0000:fffb9000       .debug$S                   0000000180000000     kernel32:KERNEL32.dll
 0000:fffb9000       .debug$S                   0000000180000000     kernel32:KERNEL32.dll
 0000:fffb9000       .debug$S                   0000000180000000     kernel32:KERNEL32.dll
 0000:fffb9000       .debug$S                   0000000180000000     kernel32:KERNEL32.dll
 0000:fffb9000       .debug$S                   0000000180000000     kernel32:KERNEL32.dll
 0000:fffb9000       .debug$S                   0000000180000000     kernel32:KERNEL32.dll
 0000:fffb9000       .debug$S                   0000000180000000     kernel32:KERNEL32.dll
 0000:fffb9000       .debug$S                   0000000180000000     kernel32:KERNEL32.dll
 0000:fffb9000       .debug$S                   0000000180000000     kernel32:KERNEL32.dll
 0000:fffb9000       .debug$S                   0000000180000000     kernel32:KERNEL32.dll
 0000:fffb9000       .debug$S                   0000000180000000     kernel32:KERNEL32.dll
 0000:fffb9000       .debug$S                   0000000180000000     kernel32:KERNEL32.dll
 0000:fffb9000       .debug$S                   0000000180000000     kernel32:KERNEL32.dll
 0000:fffb9000       .debug$S                   0000000180000000     kernel32:KERNEL32.dll
 0000:fffb9000       .debug$S                   0000000180000000     kernel32:KERNEL32.dll
 0000:fffb9000       .debug$S                   0000000180000000     kernel32:KERNEL32.dll
 0000:fffb9000       .debug$S                   0000000180000000     kernel32:KERNEL32.dll
 0000:fffb9000       .debug$S                   0000000180000000     kernel32:KERNEL32.dll
 0000:fffb9000       .debug$S                   0000000180000000     kernel32:KERNEL32.dll
 0000:fffb9000       .debug$S                   0000000180000000     kernel32:KERNEL32.dll
 0000:fffb9000       .debug$S                   0000000180000000     kernel32:KERNEL32.dll
 0000:fffb9000       .debug$S                   0000000180000000     kernel32:KERNEL32.dll
 0000:fffb9000       .debug$S                   0000000180000000     kernel32:KERNEL32.dll
 0000:fffb9000       .debug$S                   0000000180000000     kernel32:KERNEL32.dll
 0001:00000000       .text                      0000000180001000     libvips:dmrks01465.o
 0001:00000008       .text                      0000000180001008     libvips:dmrks01230.o
 0001:00000010       .text                      0000000180001010     libvips:dmrks01662.o
 0001:00000018       .text                      0000000180001018     libvips:dmrks01175.o
 0001:00000020       .text                      0000000180001020     libvips:dmrks01506.o
 0001:00000028       .text                      0000000180001028     libvips:dmrks01229.o
 0001:00000030       .text                      0000000180001030     libvips:dmrks00939.o
 0001:00000038       .text                      0000000180001038     libvips:dmrks01186.o
 0001:00000040       .text                      0000000180001040     libvips:dmrks01176.o
 0001:00000048       .text                      0000000180001048     libvips:dmrks01887.o
 0001:00000050       .text                      0000000180001050     libvips:dmrks01338.o
 0001:00000058       .text                      0000000180001058     libvips:dmrks00940.o
 0001:00000060       .text                      0000000180001060     libvips:dmrks01524.o
 0001:00000068       .text                      0000000180001068     libvips:dmrks00870.o
 0001:00000070       .text                      0000000180001070     libvips:dmrks01486.o
 0001:00000078       .text                      0000000180001078     libvips:dmrks00987.o
 0001:00000080       .text                      0000000180001080     libvips:dmrks01957.o
 0001:00000088       .text                      0000000180001088     libvips:dmrks00988.o
 0001:00000090       .text                      0000000180001090     libvips:dmrks01950.o
 0001:00000098       .text                      0000000180001098     libvips:dmrks00985.o
 0001:000000a0       .text                      00000001800010a0     libvips:dmrks00996.o
 0001:000000a8       .text                      00000001800010a8     libvips:dmrks00986.o
 0001:000000b0       .text                      00000001800010b0     libvips:dmrks00998.o
 0001:000000b8       .text                      00000001800010b8     libvips:dmrks01102.o
 0001:000000c0       .text                      00000001800010c0     libvips:dmrks00997.o
 0001:000000c8       .text                      00000001800010c8     libvips:dmrks01909.o
 0001:000000d0       .text                      00000001800010d0     libvips:dmrks01103.o
 0001:000000d8       .text                      00000001800010d8     libvips:dmrks01946.o
 0001:000000e0       .text                      00000001800010e0     libvips:dmrks01905.o
 0001:000000e8       .text                      00000001800010e8     libvips:dmrks01904.o
 0001:000000f0       .text                      00000001800010f0     libvips:dmrks01903.o
 0001:00000100       .text                      0000000180001100     libglib-2.0:dgoks00380.o
 0001:00000108       .text                      0000000180001108     libglib-2.0:dgoks00077.o
 0001:00000110       .text                      0000000180001110     libglib-2.0:dgoks00074.o
 0001:00000118       .text                      0000000180001118     libglib-2.0:dgoks00673.o
 0001:00000120       .text                      0000000180001120     libglib-2.0:dgoks01122.o
 0001:00000128       .text                      0000000180001128     libglib-2.0:dgoks01081.o
 0001:00000ae0       ?EndsWith@sharp@@YA_NAEBV?$basic_string@DU?$char_traits@D@std@@V?$allocator@D@2@@std@@0@Z 0000000180001ae0 f   common.obj
 0001:00002594       $LN230                     0000000180003594     common.obj
 0001:00003ab4       $LN40                      0000000180004ab4     common.obj
 0001:0000e504       $LN65                      000000018000f504     pipeline.obj
 0001:00012d20       ?FunctionCallbackWrapper@imp@Nan@@YAXAEBV?$FunctionCallbackInfo@VValue@v8@@@v8@@@Z 0000000180013d20 f   sharp.obj
 0001:00013500       _register_sharp            0000000180014500 f   sharp.obj
 0001:000151e0       $$000000                   00000001800161e0     LIBCMT:_amdsecgs_.obj
 0001:00015364       ?dllmain_crt_dispatch@@YAHQEAUHINSTANCE__@@KQEAX@Z 0000000180016364 f   LIBCMT:dll_dllmain.obj
 0001:000153b4       ?dllmain_crt_process_attach@@YAHQEAUHINSTANCE__@@QEAX@Z 00000001800163b4 f   LIBCMT:dll_dllmain.obj
 0001:000154e0       ?dllmain_crt_process_detach@@YAH_N@Z 00000001800164e0 f   LIBCMT:dll_dllmain.obj
 0001:00015564       ?dllmain_dispatch@@YAHQEAUHINSTANCE__@@KQEAX@Z 0000000180016564 f   LIBCMT:dll_dllmain.obj
 0001:0001565c       ?dllmain_raw@@YAHQEAUHINSTANCE__@@KQEAX@Z 000000018001665c f   LIBCMT:dll_dllmain.obj
 0001:000158a8       capture_current_context    00000001800168a8 f   LIBCMT:gs_report.obj
 0001:00015918       capture_previous_context   0000000180016918 f   LIBCMT:gs_report.obj
 0001:000162d0       $$000000                   00000001800172d0     libvcruntime:memcpy.obj
 0001:00016377       MoveSmall                  0000000180017377     libvcruntime:memcpy.obj
 0001:00016800       ?CatchIt@@YAXPEAUEHExceptionRecord@@PEA_KPEAU_CONTEXT@@PEAU_xDISPATCHER_CONTEXT@@PEBU_s_FuncInfo@@PEBU_s_HandlerType@@PEBU_s_CatchableType@@PEBU_s_TryBlockMapEntry@@H1EE@Z 0000000180017800 f   libvcruntime:frame.obj
 0001:000168c4       ?ExFilterRethrow@@YAHPEAU_EXCEPTION_POINTERS@@PEAUEHExceptionRecord@@PEAH@Z 00000001800178c4 f   libvcruntime:frame.obj
 0001:0001694c       ?FindHandler@@YAXPEAUEHExceptionRecord@@PEA_KPEAU_CONTEXT@@PEAU_xDISPATCHER_CONTEXT@@PEBU_s_FuncInfo@@EH1@Z 000000018001794c f   libvcruntime:frame.obj
 0001:00016e1c       ?FindHandlerForForeignException@@YAXPEAUEHExceptionRecord@@PEA_KPEAU_CONTEXT@@PEAU_xDISPATCHER_CONTEXT@@PEBU_s_FuncInfo@@HH1@Z 0000000180017e1c f   libvcruntime:frame.obj
 0001:00017088       ?IsInExceptionSpec@@YAEPEAUEHExceptionRecord@@PEBU_s_ESTypeList@@@Z 0000000180018088 f   libvcruntime:frame.obj
 0001:00018060       $$000000                   0000000180019060     libvcruntime:memset.obj
 0001:0001814c       MsetTab                    000000018001914c     libvcruntime:memset.obj
 0001:000184d0       $$000000                   00000001800194d0     libvcruntime:handlers.obj
 0001:00018bd0       $$000000                   0000000180019bd0     libvcruntime:_jmpuwind_.obj
 0001:00018ce8       ?try_get_function@@YAPEAXW4function_id@?A0x679b24ab@@QEBDQEBW4module_id@2@2@Z 0000000180019ce8 f   libvcruntime:winapi_downlevel.obj
 0001:00019188       ??$common_assert_to_message_box@_W@@YAXQEB_W0IQEAX@Z 000000018001a188 f   libucrt:assert.obj
 0001:0001924c       ??$common_assert_to_message_box_build_string@_W@@YAXQEA_W_KQEB_W2IQEAX@Z 000000018001a24c f   libucrt:assert.obj
 0001:00019a20       ??$common_assert_to_stderr@_W@@YAXQEB_W0I@Z 000000018001aa20 f   libucrt:assert.obj
 0001:00019b90       ?get_assert_format@@YAPEB_W_W@Z 000000018001ab90 f   libucrt:assert.obj
 0001:0001a2fc       ?atexit_exception_filter@@YAHK@Z 000000018001b2fc f   libucrt:exit.obj
 0001:0001a308       ?common_exit@@YAXHW4_crt_exit_cleanup_mode@@W4_crt_exit_return_mode@@@Z 000000018001b308 f   libucrt:exit.obj
 0001:0001a474       ?exit_or_terminate_process@@YAXI@Z 000000018001b474 f   libucrt:exit.obj
 0001:0001a4c0       ?try_cor_exit_process@@YAXI@Z 000000018001b4c0 f   libucrt:exit.obj
 0001:0001a558       ??$parse_command_line@D@@YAXPEADPEAPEAD0PEA_K2@Z 000000018001b558 f   libucrt:argv_parsing.obj
 0001:0001a8f0       ??$common_initialize_environment_nolock@D@@YAHXZ 000000018001b8f0 f   libucrt:environment_initialization.obj
 0001:0001a95c       ??$create_environment@D@@YAQEAPEADQEAD@Z 000000018001b95c f   libucrt:environment_initialization.obj
 0001:0001aa58       ??$free_environment@_W@@YAXQEAPEA_W@Z 000000018001ba58 f   libucrt:environment_initialization.obj
 0001:0001aa58       ??$free_environment@D@@YAXQEAPEAD@Z 000000018001ba58 f   libucrt:environment_initialization.obj
 0001:0001aa9c       ??$uninitialize_environment_internal@D@@YAXAEAPEAPEAD@Z 000000018001ba9c f   libucrt:environment_initialization.obj
 0001:0001aab8       ??$uninitialize_environment_internal@_W@@YAXAEAPEAPEA_W@Z 000000018001bab8 f   libucrt:environment_initialization.obj
 0001:0001acf0       ??R<lambda_4e60a939b0d047cfe11ddc22648dfba9>@@QEBAHXZ 000000018001bcf0 f   libucrt:onexit.obj
 0001:0001afa0       initialize_global_variables 000000018001bfa0 f   libucrt:initialization.obj
 0001:0001afb4       initialize_c               000000018001bfb4 f   libucrt:initialization.obj
 0001:0001afd8       uninitialize_global_state_isolation 000000018001bfd8 f   libucrt:initialization.obj
 0001:0001afd8       initialize_environment     000000018001bfd8 f   libucrt:initialization.obj
 0001:0001afd8       report_memory_leaks        000000018001bfd8 f   libucrt:initialization.obj
 0001:0001afd8       initialize_global_state_isolation 000000018001bfd8 f   libucrt:initialization.obj
 0001:0001afd8       uninitialize_c             000000018001bfd8 f   libucrt:initialization.obj
 0001:0001afdc       uninitialize_environment   000000018001bfdc f   libucrt:initialization.obj
 0001:0001afec       initialize_pointers        000000018001bfec f   libucrt:initialization.obj
 0001:0001b040       uninitialize_vcruntime     000000018001c040 f   libucrt:initialization.obj
 0001:0001b048       uninitialize_allocated_memory 000000018001c048 f   libucrt:initialization.obj
 0001:0001b6ec       ??R<lambda_dd75445284c072d0bd3768540cc698fa>@@QEBAHXZ 000000018001c6ec f   libucrt:output.obj
 0001:0001dcb4       ??$common_xtox@K_W@@YAHKQEA_W_KI_N@Z 000000018001ecb4 f   libucrt:xtoa.obj
 0001:0001dd60       ??$common_xtox_s@K_W@@YAHKQEA_W_KI_N@Z 000000018001ed60 f   libucrt:xtoa.obj
 0001:0001e024       ??$message_box_wait_thread@_W@@YAKQEAX@Z 000000018001f024 f   libucrt:crtmbox.obj
 0001:0001e3e0       common_flush_all           000000018001f3e0 f   libucrt:fflush.obj
 0001:0001e548       ??R<lambda_b721fa326cdb32351d23dfa67958c160>@@QEBAHXZ 000000018001f548 f   libucrt:setvbuf.obj
 0001:0001eb34       ?construct_ptd_array@@YAXQEAU__acrt_ptd@@@Z 000000018001fb34 f   libucrt:per_thread_data.obj
 0001:0001ec04       ?destroy_fls@@YAXPEAX@Z    000000018001fc04 f   libucrt:per_thread_data.obj
 0001:0001ec24       ?destroy_ptd_array@@YAXQEAU__acrt_ptd@@@Z 000000018001fc24 f   libucrt:per_thread_data.obj
 0001:0001ed1c       ?replace_current_thread_locale_nolock@@YAXQEAU__acrt_ptd@@QEAU__crt_locale_data@@@Z 000000018001fd1c f   libucrt:per_thread_data.obj
 0001:0001ef5c       ?internal_isupper_l@@YA_NHQEAU__crt_locale_pointers@@@Z 000000018001ff5c f   libucrt:tolower_toupper.obj
 0001:0001f28c       ?try_get_function@@YAPEAXW4function_id@?A0x63058377@@QEBDQEBW4module_id@2@2@Z 000000018002028c f   libucrt:winapi_thunks.obj
 0001:0001fab8       ?<helper_func_cdecl>@<lambda_2feae5270eb4d0d5532525f423405775>@@CAHPEBX0@Z 0000000180020ab8 f   libucrt:argv_wildcards.obj
 0001:0001facc       ??$common_expand_argv_wildcards@D@@YAHQEAPEADQEAPEAPEAD@Z 0000000180020acc f   libucrt:argv_wildcards.obj
 0001:0001fcd8       ??$copy_and_add_argument_to_buffer@D@@YAHQEBD0_KAEAV?$argument_list@D@?A0xca0879c4@@@Z 0000000180020cd8 f   libucrt:argv_wildcards.obj
 0001:0001fde8       ??$expand_argument_wildcards@D@@YAHQEAD0AEAV?$argument_list@D@?A0xca0879c4@@@Z 0000000180020de8 f   libucrt:argv_wildcards.obj
 0001:0002009c       ??R<lambda_ad1ced32f4ac17aa236e5ef05d6b3b7c>@@QEBAXXZ 000000018002109c f   libucrt:mbctype.obj
 0001:000202b4       ?getSystemCP@@YAHH@Z       00000001800212b4 f   libucrt:mbctype.obj
 0001:00020334       ?setSBCS@@YAXPEAU__crt_multibyte_data@@@Z 0000000180021334 f   libucrt:mbctype.obj
 0001:000203c4       ?setSBUpLow@@YAXPEAU__crt_multibyte_data@@@Z 00000001800213c4 f   libucrt:mbctype.obj
 0001:000205a8       ?setmbcp_internal@@YAHH_N@Z 00000001800215a8 f   libucrt:mbctype.obj
 0001:00020af0       ?x_ismbbtype_l@@YAHPEAU__crt_locale_pointers@@IHH@Z 0000000180021af0 f   libucrt:ismbbyte.obj
 0001:00020d70       ?initialize_inherited_file_handles_nolock@@YAXXZ 0000000180021d70 f   libucrt:ioinit.obj
 0001:00020e5c       ?initialize_stdio_handles_nolock@@YAXXZ 0000000180021e5c f   libucrt:ioinit.obj
 0001:00021834       ?fp_format_a@@YAHQEBNPEAD_KQEAD2H_NIQEAU__crt_locale_pointers@@@Z 0000000180022834 f   libucrt:cvt.obj
 0001:00021b94       ?fp_format_e@@YAHQEBNQEAD_K12H_NIQEAU__crt_locale_pointers@@@Z 0000000180022b94 f   libucrt:cvt.obj
 0001:00021c64       ?fp_format_e_internal@@YAHQEAD_KH_NIQEAU_strflt@@2QEAU__crt_locale_pointers@@@Z 0000000180022c64 f   libucrt:cvt.obj
 0001:00021e40       ?fp_format_f_internal@@YAHQEAD_KHQEAU_strflt@@_NQEAU__crt_locale_pointers@@@Z 0000000180022e40 f   libucrt:cvt.obj
 0001:00021f88       ?fp_format_g@@YAHQEBNQEAD_K12H_NIQEAU__crt_locale_pointers@@@Z 0000000180022f88 f   libucrt:cvt.obj
 0001:000220c0       ?fp_format_nan_or_infinity@@YAHW4__acrt_fp_class@@_NPEAD_K1@Z 00000001800230c0 f   libucrt:cvt.obj
 0001:00022a68       ?write_double_translated_ansi_nolock@@YA?AUwrite_result@?A0x9c548279@@HQEBDI@Z 0000000180023a68 f   libucrt:write.obj
 0001:00022c70       ?write_text_ansi_nolock@@YA?AUwrite_result@?A0x9c548279@@HQEBDI@Z 0000000180023c70 f   libucrt:write.obj
 0001:00022d78       ?write_text_utf16le_nolock@@YA?AUwrite_result@?A0x9c548279@@HQEBDI@Z 0000000180023d78 f   libucrt:write.obj
 0001:00022e94       ?write_text_utf8_nolock@@YA?AUwrite_result@?A0x9c548279@@HQEBDI@Z 0000000180023e94 f   libucrt:write.obj
 0001:00023824       ?__acrt_LCMapStringA_stat@@YAHPEAU__crt_locale_pointers@@PEB_WKPEBDHPEADHHH@Z 0000000180024824 f   libucrt:lcmapstringa.obj
 0001:00023d90       ?free_crt_array_internal@@YAXQEAPEBX_K@Z 0000000180024d90 f   libucrt:inittime.obj
 0001:000240a4       ?GetTableIndexFromLocaleName@@YAHPEB_W@Z 00000001800250a4 f   libucrt:lcidtoname_downlevel.obj
 0001:000241a0       ?shortsort@@YAXPEAD0_KP6AHPEBX2@Z@Z 00000001800251a0 f   libucrt:qsort.obj
 0001:000247b8       ?initialize_multibyte@@YAHXZ 00000001800257b8 f   libucrt:multibyte_initializer.obj
 0001:0002650c       memcpy_s                   000000018002750c f   libucrt:cfout.obj
 0001:00026594       ??$write_buffer_nolock@D@@YA_NDV__crt_stdio_stream@@@Z 0000000180027594 f   libucrt:_flsbuf.obj
 0001:00026698       ??$write_buffer_nolock@_W@@YA_N_WV__crt_stdio_stream@@@Z 0000000180027698 f   libucrt:_flsbuf.obj
 0001:00026a20       common_control87           0000000180027a20 f   libucrt:ieee.obj
 0001:00026cc0       $$000000                   0000000180027cc0     libucrt:fpsr.obj
 0001:00026e10       ??$common_lseek@_J@@YA_JH_JH@Z 0000000180027e10 f   libucrt:lseek.obj
 0001:00026f00       ??$common_lseek_nolock@_J@@YA_JH_JH@Z 0000000180027f00 f   libucrt:lseek.obj
 0001:000271a0       $$000000                   00000001800281a0     libucrt:log10.obj
 0001:00027a24       _call_matherr              0000000180028a24 f   libucrt:libm_error.obj
 0001:00027a8c       _exception_enabled         0000000180028a8c f   libucrt:libm_error.obj
 0001:00027d20       _log_special_common        0000000180028d20 f   libucrt:log_special.obj
 0001:00028350       $$000000                   0000000180029350     LIBCMT:_chkstk_.obj
 0001:000283c0       $$000000                   00000001800293c0     libvcruntime:memcmp.obj
 0001:00028710       $$000000                   0000000180029710     LIBCMT:_guard_dispatch_.obj
 0001:00028730       ?dtor$0@?0??convert@?$ToFactory@VUint32@v8@@@imp@Nan@@SA?AV?$MaybeLocal@VUint32@v8@@@v8@@V?$Local@VValue@v8@@@5@@Z@4HA 0000000180029730 f   metadata.obj
 0001:00028730       ?dtor$0@?0??Get@Nan@@YA?AV?$MaybeLocal@VValue@v8@@@v8@@V?$Local@VObject@v8@@@3@I@Z@4HA 0000000180029730 f   metadata.obj
 0001:00028730       ?dtor$0@?0??NewInstance@Nan@@YA?AV?$MaybeLocal@VObject@v8@@@v8@@V?$Local@VObjectTemplate@v8@@@3@@Z@4HA 0000000180029730 f   sharp.obj
 0001:00028730       ?dtor$0@?0??GetFunction@Nan@@YA?AV?$MaybeLocal@VFunction@v8@@@v8@@V?$Local@VFunctionTemplate@v8@@@3@@Z@4HA 0000000180029730 f   sharp.obj
 0001:00028730       ?dtor$0@?0??convert@?$ToFactory@VInteger@v8@@@imp@Nan@@SA?AV?$MaybeLocal@VInteger@v8@@@v8@@V?$Local@VValue@v8@@@5@@Z@4HA 0000000180029730 f   utilities.obj
 0001:00028730       ?dtor$0@?0??Get@Nan@@YA?AV?$MaybeLocal@VValue@v8@@@v8@@V?$Local@VObject@v8@@@3@V?$Local@VValue@v8@@@3@@Z@4HA 0000000180029730 f   common.obj
 0001:00028740       ?dtor$0@?0??convert@?$ToFactory@_N@imp@Nan@@SA?AV?$Maybe@_N@3@V?$Local@VValue@v8@@@v8@@@Z@4HA 0000000180029740 f   pipeline.obj
 0001:00028740       ?dtor$0@?0??convert@?$ToFactory@I@imp@Nan@@SA?AV?$Maybe@I@3@V?$Local@VValue@v8@@@v8@@@Z@4HA 0000000180029740 f   common.obj
 0001:00028740       ?dtor$0@?0??convert@?$ToFactory@H@imp@Nan@@SA?AV?$Maybe@H@3@V?$Local@VValue@v8@@@v8@@@Z@4HA 0000000180029740 f   pipeline.obj
 0001:00028740       ?dtor$0@?0??Has@Nan@@YA?AV?$Maybe@_N@1@V?$Local@VObject@v8@@@v8@@V?$Local@VString@v8@@@4@@Z@4HA 0000000180029740 f   common.obj
 0001:00028750       ?dtor$0@?0??Error@Nan@@YA?AV?$Local@VValue@v8@@@v8@@PEBD@Z@4HA 0000000180029750 f   metadata.obj
 0001:00028750       ?dtor$0@?0??HandleOKCallback@AsyncWorker@Nan@@MEAAXXZ@4HA 0000000180029750 f   metadata.obj
 0001:00028750       ?dtor$0@?0??HandleErrorCallback@AsyncWorker@Nan@@MEAAXXZ@4HA 0000000180029750 f   metadata.obj
 0001:00028750       ?dtor$0@?0??ThrowError@Nan@@YAXPEBD@Z@4HA 0000000180029750 f   utilities.obj
 0001:00028750       ?dtor$0@?0??Call_@Callback@Nan@@AEBA?AV?$Local@VValue@v8@@@v8@@PEAVIsolate@4@V?$Local@VObject@v8@@@4@HQEAV34@@Z@4HA 0000000180029750 f   metadata.obj
 0001:00028750       ?dtor$0@?0???0Utf8String@Nan@@QEAA@V?$Local@VValue@v8@@@v8@@@Z@4HA 0000000180029750 f   common.obj
 0001:00028760       ?dtor$0@?0???$New@VString@v8@@V?$basic_string@DU?$char_traits@D@std@@V?$allocator@D@2@@std@@@Nan@@YA?AV?$MaybeLocal@VString@v8@@@v8@@V?$basic_string@DU?$char_traits@D@std@@V?$allocator@D@2@@std@@@Z@4HA 0000000180029760 f   common.obj
 0001:00028760       ?dtor$0@?0???$AttrAs@VFunction@v8@@@sharp@@YA?AV?$Local@VFunction@v8@@@v8@@V?$Local@VObject@v8@@@2@V?$basic_string@DU?$char_traits@D@std@@V?$allocator@D@2@@std@@@Z@4HA 0000000180029760 f   pipeline.obj
 0001:00028760       ?dtor$0@?0???$AttrAs@VObject@v8@@@sharp@@YA?AV?$Local@VObject@v8@@@v8@@V12@V?$basic_string@DU?$char_traits@D@std@@V?$allocator@D@2@@std@@@Z@4HA 0000000180029760 f   common.obj
 0001:00028760       ?dtor$0@?0??HasAttr@sharp@@YA_NV?$Local@VObject@v8@@@v8@@V?$basic_string@DU?$char_traits@D@std@@V?$allocator@D@2@@std@@@Z@4HA 0000000180029760 f   common.obj
 0001:00028760       ?dtor$0@?0???$AttrAs@VArray@v8@@@sharp@@YA?AV?$Local@VArray@v8@@@v8@@V?$Local@VObject@v8@@@2@V?$basic_string@DU?$char_traits@D@std@@V?$allocator@D@2@@std@@@Z@4HA 0000000180029760 f   pipeline.obj
 0001:00028770       ?dtor$0@?0??AttrAsStr@sharp@@YA?AV?$basic_string@DU?$char_traits@D@std@@V?$allocator@D@2@@std@@V?$Local@VObject@v8@@@v8@@V23@@Z@4HA 0000000180029770 f   common.obj
 0001:0002877c       ?dtor$1@?0??AttrAsStr@sharp@@YA?AV?$basic_string@DU?$char_traits@D@std@@V?$allocator@D@2@@std@@V?$Local@VObject@v8@@@v8@@V23@@Z@4HA 000000018002977c f   common.obj
 0001:00028790       ?dtor$0@?0??CreateInputDescriptor@sharp@@YAPEAUInputDescriptor@1@V?$Local@VObject@v8@@@v8@@V?$vector@V?$Local@VObject@v8@@@v8@@V?$allocator@V?$Local@VObject@v8@@@v8@@@std@@@std@@@Z@4HA 0000000180029790 f   common.obj
 0001:0002879c       ?dtor$5@?0??CreateInputDescriptor@sharp@@YAPEAUInputDescriptor@1@V?$Local@VObject@v8@@@v8@@V?$vector@V?$Local@VObject@v8@@@v8@@V?$allocator@V?$Local@VObject@v8@@@v8@@@std@@@std@@@Z@4HA 000000018002979c f   common.obj
 0001:000287b0       ?dtor$0@?0??IsV@sharp@@YA_NAEBV?$basic_string@DU?$char_traits@D@std@@V?$allocator@D@2@@std@@@Z@4HA 00000001800297b0 f   common.obj
 0001:000287b0       ?dtor$0@?0??IsJpeg@sharp@@YA_NAEBV?$basic_string@DU?$char_traits@D@std@@V?$allocator@D@2@@std@@@Z@4HA 00000001800297b0 f   common.obj
 0001:000287b0       ?dtor$0@?0??IsDzZip@sharp@@YA_NAEBV?$basic_string@DU?$char_traits@D@std@@V?$allocator@D@2@@std@@@Z@4HA 00000001800297b0 f   common.obj
 0001:000287b0       ?dtor$0@?0??IsTiff@sharp@@YA_NAEBV?$basic_string@DU?$char_traits@D@std@@V?$allocator@D@2@@std@@@Z@4HA 00000001800297b0 f   common.obj
 0001:000287d6       ?dtor$1@?0??IsDzZip@sharp@@YA_NAEBV?$basic_string@DU?$char_traits@D@std@@V?$allocator@D@2@@std@@@Z@4HA 00000001800297d6 f   common.obj
 0001:000287d6       ?dtor$1@?0??IsJpeg@sharp@@YA_NAEBV?$basic_string@DU?$char_traits@D@std@@V?$allocator@D@2@@std@@@Z@4HA 00000001800297d6 f   common.obj
 0001:000287d6       ?dtor$1@?0??IsV@sharp@@YA_NAEBV?$basic_string@DU?$char_traits@D@std@@V?$allocator@D@2@@std@@@Z@4HA 00000001800297d6 f   common.obj
 0001:000287d6       ?dtor$1@?0??IsTiff@sharp@@YA_NAEBV?$basic_string@DU?$char_traits@D@std@@V?$allocator@D@2@@std@@@Z@4HA 00000001800297d6 f   common.obj
 0001:000287fc       ?dtor$2@?0??IsTiff@sharp@@YA_NAEBV?$basic_string@DU?$char_traits@D@std@@V?$allocator@D@2@@std@@@Z@4HA 00000001800297fc f   common.obj
 0001:000287fc       ?dtor$2@?0??IsJpeg@sharp@@YA_NAEBV?$basic_string@DU?$char_traits@D@std@@V?$allocator@D@2@@std@@@Z@4HA 00000001800297fc f   common.obj
 0001:000287fc       ?dtor$2@?0??IsDzZip@sharp@@YA_NAEBV?$basic_string@DU?$char_traits@D@std@@V?$allocator@D@2@@std@@@Z@4HA 00000001800297fc f   common.obj
 0001:000287fc       ?dtor$2@?0??IsV@sharp@@YA_NAEBV?$basic_string@DU?$char_traits@D@std@@V?$allocator@D@2@@std@@@Z@4HA 00000001800297fc f   common.obj
 0001:00028822       ?dtor$3@?0??IsV@sharp@@YA_NAEBV?$basic_string@DU?$char_traits@D@std@@V?$allocator@D@2@@std@@@Z@4HA 0000000180029822 f   common.obj
 0001:00028822       ?dtor$3@?0??IsTiff@sharp@@YA_NAEBV?$basic_string@DU?$char_traits@D@std@@V?$allocator@D@2@@std@@@Z@4HA 0000000180029822 f   common.obj
 0001:00028822       ?dtor$3@?0??IsJpeg@sharp@@YA_NAEBV?$basic_string@DU?$char_traits@D@std@@V?$allocator@D@2@@std@@@Z@4HA 0000000180029822 f   common.obj
 0001:00028822       ?dtor$3@?0??IsDzZip@sharp@@YA_NAEBV?$basic_string@DU?$char_traits@D@std@@V?$allocator@D@2@@std@@@Z@4HA 0000000180029822 f   common.obj
 0001:00028850       ?dtor$0@?0??IsPng@sharp@@YA_NAEBV?$basic_string@DU?$char_traits@D@std@@V?$allocator@D@2@@std@@@Z@4HA 0000000180029850 f   common.obj
 0001:00028850       ?dtor$0@?0??IsDz@sharp@@YA_NAEBV?$basic_string@DU?$char_traits@D@std@@V?$allocator@D@2@@std@@@Z@4HA 0000000180029850 f   common.obj
 0001:00028850       ?dtor$0@?0??IsWebp@sharp@@YA_NAEBV?$basic_string@DU?$char_traits@D@std@@V?$allocator@D@2@@std@@@Z@4HA 0000000180029850 f   common.obj
 0001:00028876       ?dtor$1@?0??IsWebp@sharp@@YA_NAEBV?$basic_string@DU?$char_traits@D@std@@V?$allocator@D@2@@std@@@Z@4HA 0000000180029876 f   common.obj
 0001:00028876       ?dtor$1@?0??IsDz@sharp@@YA_NAEBV?$basic_string@DU?$char_traits@D@std@@V?$allocator@D@2@@std@@@Z@4HA 0000000180029876 f   common.obj
 0001:00028876       ?dtor$1@?0??IsPng@sharp@@YA_NAEBV?$basic_string@DU?$char_traits@D@std@@V?$allocator@D@2@@std@@@Z@4HA 0000000180029876 f   common.obj
 0001:000288a0       ?dtor$0@?0???$?HDU?$char_traits@D@std@@V?$allocator@D@1@@std@@YA?AV?$basic_string@DU?$char_traits@D@std@@V?$allocator@D@2@@0@PEBDAEBV10@@Z@4HA 00000001800298a0 f   pipeline.obj
 0001:000288a0       ?dtor$0@?0???$?HDU?$char_traits@D@std@@V?$allocator@D@1@@std@@YA?AV?$basic_string@DU?$char_traits@D@std@@V?$allocator@D@2@@0@AEBV10@PEBD@Z@4HA 00000001800298a0 f   pipeline.obj
 0001:000288a0       ?dtor$0@?0??ImageTypeId@sharp@@YA?AV?$basic_string@DU?$char_traits@D@std@@V?$allocator@D@2@@std@@W4ImageType@1@@Z@4HA 00000001800298a0 f   common.obj
 0001:000288d0       ?dtor$0@?0??DetermineImageType@sharp@@YA?AW4ImageType@1@PEAX_K@Z@4HA 00000001800298d0 f   common.obj
 0001:000288dc       ?dtor$1@?0??DetermineImageType@sharp@@YA?AW4ImageType@1@PEAX_K@Z@4HA 00000001800298dc f   common.obj
 0001:000288e8       ?dtor$2@?0??DetermineImageType@sharp@@YA?AW4ImageType@1@PEAX_K@Z@4HA 00000001800298e8 f   common.obj
 0001:000288f4       ?dtor$3@?0??DetermineImageType@sharp@@YA?AW4ImageType@1@PEAX_K@Z@4HA 00000001800298f4 f   common.obj
 0001:00028900       ?dtor$4@?0??DetermineImageType@sharp@@YA?AW4ImageType@1@PEAX_K@Z@4HA 0000000180029900 f   common.obj
 0001:0002890c       ?dtor$5@?0??DetermineImageType@sharp@@YA?AW4ImageType@1@PEAX_K@Z@4HA 000000018002990c f   common.obj
 0001:00028918       ?dtor$6@?0??DetermineImageType@sharp@@YA?AW4ImageType@1@PEAX_K@Z@4HA 0000000180029918 f   common.obj
 0001:00028924       ?dtor$7@?0??DetermineImageType@sharp@@YA?AW4ImageType@1@PEAX_K@Z@4HA 0000000180029924 f   common.obj
 0001:00028930       ?dtor$8@?0??DetermineImageType@sharp@@YA?AW4ImageType@1@PEAX_K@Z@4HA 0000000180029930 f   common.obj
 0001:00028940       ?dtor$0@?0??DetermineImageType@sharp@@YA?AW4ImageType@1@PEBD@Z@4HA 0000000180029940 f   common.obj
 0001:0002894c       ?dtor$1@?0??DetermineImageType@sharp@@YA?AW4ImageType@1@PEBD@Z@4HA 000000018002994c f   common.obj
 0001:00028958       ?dtor$2@?0??DetermineImageType@sharp@@YA?AW4ImageType@1@PEBD@Z@4HA 0000000180029958 f   common.obj
 0001:00028964       ?dtor$3@?0??DetermineImageType@sharp@@YA?AW4ImageType@1@PEBD@Z@4HA 0000000180029964 f   common.obj
 0001:00028970       ?dtor$4@?0??DetermineImageType@sharp@@YA?AW4ImageType@1@PEBD@Z@4HA 0000000180029970 f   common.obj
 0001:0002897c       ?dtor$5@?0??DetermineImageType@sharp@@YA?AW4ImageType@1@PEBD@Z@4HA 000000018002997c f   common.obj
 0001:00028988       ?dtor$6@?0??DetermineImageType@sharp@@YA?AW4ImageType@1@PEBD@Z@4HA 0000000180029988 f   common.obj
 0001:00028994       ?dtor$7@?0??DetermineImageType@sharp@@YA?AW4ImageType@1@PEBD@Z@4HA 0000000180029994 f   common.obj
 0001:000289a0       ?dtor$8@?0??DetermineImageType@sharp@@YA?AW4ImageType@1@PEBD@Z@4HA 00000001800299a0 f   common.obj
 0001:000289ac       ?dtor$9@?0??DetermineImageType@sharp@@YA?AW4ImageType@1@PEBD@Z@4HA 00000001800299ac f   common.obj
 0001:000289b8       ?dtor$10@?0??DetermineImageType@sharp@@YA?AW4ImageType@1@PEBD@Z@4HA 00000001800299b8 f   common.obj
 0001:000289c4       ?dtor$11@?0??DetermineImageType@sharp@@YA?AW4ImageType@1@PEBD@Z@4HA 00000001800299c4 f   common.obj
 0001:000289d0       ?dtor$12@?0??DetermineImageType@sharp@@YA?AW4ImageType@1@PEBD@Z@4HA 00000001800299d0 f   common.obj
 0001:000289f6       ?dtor$13@?0??DetermineImageType@sharp@@YA?AW4ImageType@1@PEBD@Z@4HA 00000001800299f6 f   common.obj
 0001:00028a20       ?dtor$0@?0??OpenInput@sharp@@YA?AV?$tuple@VVImage@vips@@W4ImageType@sharp@@@std@@PEAUInputDescriptor@1@W4VipsAccess@@@Z@4HA 0000000180029a20 f   common.obj
 0001:00028a2e       ?dtor$1@?0??OpenInput@sharp@@YA?AV?$tuple@VVImage@vips@@W4ImageType@sharp@@@std@@PEAUInputDescriptor@1@W4VipsAccess@@@Z@4HA 0000000180029a2e f   common.obj
 0001:00028a3c       ?dtor$2@?0??OpenInput@sharp@@YA?AV?$tuple@VVImage@vips@@W4ImageType@sharp@@@std@@PEAUInputDescriptor@1@W4VipsAccess@@@Z@4HA 0000000180029a3c f   common.obj
 0001:00028a48       ?dtor$3@?0??OpenInput@sharp@@YA?AV?$tuple@VVImage@vips@@W4ImageType@sharp@@@std@@PEAUInputDescriptor@1@W4VipsAccess@@@Z@4HA 0000000180029a48 f   common.obj
 0001:00028a56       ?catch$13@?0??OpenInput@sharp@@YA?AV?$tuple@VVImage@vips@@W4ImageType@sharp@@@std@@PEAUInputDescriptor@1@W4VipsAccess@@@Z@4HA 0000000180029a56 f   common.obj
 0001:00028a63       __catch$?OpenInput@sharp@@YA?AV?$tuple@VVImage@vips@@W4ImageType@sharp@@@std@@PEAUInputDescriptor@1@W4VipsAccess@@@Z$0 0000000180029a63 f   common.obj
 0001:00028ab5       ?dtor$7@?0??OpenInput@sharp@@YA?AV?$tuple@VVImage@vips@@W4ImageType@sharp@@@std@@PEAUInputDescriptor@1@W4VipsAccess@@@Z@4HA 0000000180029ab5 f   common.obj
 0001:00028ac1       ?dtor$8@?0??OpenInput@sharp@@YA?AV?$tuple@VVImage@vips@@W4ImageType@sharp@@@std@@PEAUInputDescriptor@1@W4VipsAccess@@@Z@4HA 0000000180029ac1 f   common.obj
 0001:00028acf       ?catch$14@?0??OpenInput@sharp@@YA?AV?$tuple@VVImage@vips@@W4ImageType@sharp@@@std@@PEAUInputDescriptor@1@W4VipsAccess@@@Z@4HA 0000000180029acf f   common.obj
 0001:00028adc       __catch$?OpenInput@sharp@@YA?AV?$tuple@VVImage@vips@@W4ImageType@sharp@@@std@@PEAUInputDescriptor@1@W4VipsAccess@@@Z$2 0000000180029adc f   common.obj
 0001:00028b30       ?dtor$0@?0??HasAlpha@sharp@@YA_NVVImage@vips@@@Z@4HA 0000000180029b30 f   common.obj
 0001:00028b30       ?dtor$0@?0??RemoveExifOrientation@sharp@@YAXVVImage@vips@@@Z@4HA 0000000180029b30 f   common.obj
 0001:00028b30       ?dtor$0@?0??HasProfile@sharp@@YA_NVVImage@vips@@@Z@4HA 0000000180029b30 f   common.obj
 0001:00028b40       ?dtor$0@?0??SetDensity@sharp@@YAXVVImage@vips@@H@Z@4HA 0000000180029b40 f   common.obj
 0001:00028b50       ?dtor$0@?0??GetRgbaAsColourspace@sharp@@YA?AV?$vector@NV?$allocator@N@std@@@std@@V23@W4VipsInterpretation@@@Z@4HA 0000000180029b50 f   common.obj
 0001:00028b5c       ?dtor$2@?0??GetRgbaAsColourspace@sharp@@YA?AV?$vector@NV?$allocator@N@std@@@std@@V23@W4VipsInterpretation@@@Z@4HA 0000000180029b5c f   common.obj
 0001:00028b6a       ?dtor$4@?0??GetRgbaAsColourspace@sharp@@YA?AV?$vector@NV?$allocator@N@std@@@std@@V23@W4VipsInterpretation@@@Z@4HA 0000000180029b6a f   common.obj
 0001:00028b78       ?dtor$5@?0??GetRgbaAsColourspace@sharp@@YA?AV?$vector@NV?$allocator@N@std@@@std@@V23@W4VipsInterpretation@@@Z@4HA 0000000180029b78 f   common.obj
 0001:00028b90       ?dtor$0@?0???$?0AEAY0P@$$CBDPEBDX$0A@@?$pair@V?$basic_string@DU?$char_traits@D@std@@V?$allocator@D@2@@std@@V12@@std@@QEAA@AEAY0P@$$CBD$$QEAPEBD@Z@4HA 0000000180029b90 f   pipeline.obj
 0001:00028b90       ?dtor$0@?0???$AttrTo@H@sharp@@YAHV?$Local@VObject@v8@@@v8@@V?$basic_string@DU?$char_traits@D@std@@V?$allocator@D@2@@std@@@Z@4HA 0000000180029b90 f   pipeline.obj
 0001:00028b90       ?dtor$0@?0???$?0AEAY0N@$$CBDPEBDX$0A@@?$pair@V?$basic_string@DU?$char_traits@D@std@@V?$allocator@D@2@@std@@V12@@std@@QEAA@AEAY0N@$$CBD$$QEAPEBD@Z@4HA 0000000180029b90 f   pipeline.obj
 0001:00028b90       ?dtor$0@?0???$AttrTo@I@sharp@@YAIV?$Local@VObject@v8@@@v8@@V?$basic_string@DU?$char_traits@D@std@@V?$allocator@D@2@@std@@@Z@4HA 0000000180029b90 f   common.obj
 0001:00028b90       ?dtor$0@?0???$?0AEAY06$$CBDPEBDX$0A@@?$pair@V?$basic_string@DU?$char_traits@D@std@@V?$allocator@D@2@@std@@V12@@std@@QEAA@AEAY06$$CBD$$QEAPEBD@Z@4HA 0000000180029b90 f   pipeline.obj
 0001:00028b90       ?dtor$0@?0???$?0AEAY0O@$$CBDPEBDX$0A@@?$pair@V?$basic_string@DU?$char_traits@D@std@@V?$allocator@D@2@@std@@V12@@std@@QEAA@AEAY0O@$$CBD$$QEAPEBD@Z@4HA 0000000180029b90 f   pipeline.obj
 0001:00028b90       ?dtor$0@?0???$?0AEAY09$$CBDPEBDX$0A@@?$pair@V?$basic_string@DU?$char_traits@D@std@@V?$allocator@D@2@@std@@V12@@std@@QEAA@AEAY09$$CBD$$QEAPEBD@Z@4HA 0000000180029b90 f   pipeline.obj
 0001:00028b90       ?dtor$0@?0???$?0AEAY0BA@$$CBDAEAY04$$CBDX$0A@@?$pair@V?$basic_string@DU?$char_traits@D@std@@V?$allocator@D@2@@std@@V12@@std@@QEAA@AEAY0BA@$$CBDAEAY04$$CBD@Z@4HA 0000000180029b90 f   pipeline.obj
 0001:00028b90       ?dtor$0@?0???$?0AEAY0BE@$$CBDPEBDX$0A@@?$pair@V?$basic_string@DU?$char_traits@D@std@@V?$allocator@D@2@@std@@V12@@std@@QEAA@AEAY0BE@$$CBD$$QEAPEBD@Z@4HA 0000000180029b90 f   pipeline.obj
 0001:00028b90       ?dtor$0@?0???$AttrTo@_N@sharp@@YA_NV?$Local@VObject@v8@@@v8@@V?$basic_string@DU?$char_traits@D@std@@V?$allocator@D@2@@std@@@Z@4HA 0000000180029b90 f   pipeline.obj
 0001:00028ba0       ?dtor$0@?0??Set@Nan@@YA?AV?$Maybe@_N@1@V?$Local@VObject@v8@@@v8@@V?$Local@VValue@v8@@@4@1@Z@4HA 0000000180029ba0 f   metadata.obj
 0001:00028ba0       ?dtor$0@?0??Set@Nan@@YA?AV?$Maybe@_N@1@V?$Local@VObject@v8@@@v8@@IV?$Local@VValue@v8@@@4@@Z@4HA 0000000180029ba0 f   metadata.obj
 0001:00028bb0       ?dtor$0@?0??Call@Callback@Nan@@QEBA?AV?$Local@VValue@v8@@@v8@@HQEAV34@@Z@4HA 0000000180029bb0 f   metadata.obj
 0001:00028bc0       ?dtor$0@?0??Call@Callback@Nan@@QEBA?AV?$MaybeLocal@VValue@v8@@@v8@@HQEAV?$Local@VValue@v8@@@4@PEAVAsyncResource@2@@Z@4HA 0000000180029bc0 f   metadata.obj
 0001:00028bd0       ?dtor$0@?0???0AsyncWorker@Nan@@QEAA@PEAVCallback@1@PEBD@Z@4HA 0000000180029bd0 f   metadata.obj
 0001:00028be3       ?dtor$1@?0???0AsyncWorker@Nan@@QEAA@PEAVCallback@1@PEBD@Z@4HA 0000000180029be3 f   metadata.obj
 0001:00028bf0       ?dtor$0@?0??GetFromPersistent@AsyncWorker@Nan@@QEBA?AV?$Local@VValue@v8@@@v8@@I@Z@4HA 0000000180029bf0 f   metadata.obj
 0001:00028bf0       ?dtor$0@?0???$_Accumulate_unchecked@PEBV?$Local@VObject@v8@@@v8@@HV<lambda_9252aa89fe9814f85e2a072fe573e6da>@@@std@@YAHPEBV?$Local@VObject@v8@@@v8@@0HAEAV<lambda_9252aa89fe9814f85e2a072fe573e6da>@@@Z@4HA 0000000180029bf0 f   metadata.obj
 0001:00028bf0       ?dtor$0@?0??WorkComplete@AsyncWorker@Nan@@UEAAXXZ@4HA 0000000180029bf0 f   metadata.obj
 0001:00028bf0       ?dtor$0@?0???$_Accumulate_unchecked@PEBV?$Local@VObject@v8@@@v8@@HV<lambda_1cf14cbc5c28648f7ac9038b3f6db2a5>@@@std@@YAHPEBV?$Local@VObject@v8@@@v8@@0HAEAV<lambda_1cf14cbc5c28648f7ac9038b3f6db2a5>@@@Z@4HA 0000000180029bf0 f   pipeline.obj
 0001:00028c00       ?dtor$0@?0???0MetadataWorker@@QEAA@PEAVCallback@Nan@@PEAUMetadataBaton@@V?$vector@V?$Local@VObject@v8@@@v8@@V?$allocator@V?$Local@VObject@v8@@@v8@@@std@@@std@@@Z@4HA 0000000180029c00 f   metadata.obj
 0001:00028c0c       ?dtor$1@?0???0MetadataWorker@@QEAA@PEAVCallback@Nan@@PEAUMetadataBaton@@V?$vector@V?$Local@VObject@v8@@@v8@@V?$allocator@V?$Local@VObject@v8@@@v8@@@std@@@std@@@Z@4HA 0000000180029c0c f   metadata.obj
 0001:00028c18       ?dtor$2@?0???0MetadataWorker@@QEAA@PEAVCallback@Nan@@PEAUMetadataBaton@@V?$vector@V?$Local@VObject@v8@@@v8@@V?$allocator@V?$Local@VObject@v8@@@v8@@@std@@@std@@@Z@4HA 0000000180029c18 f   metadata.obj
 0001:00028c30       ?dtor$0@?0??Execute@MetadataWorker@@UEAAXXZ@4HA 0000000180029c30 f   metadata.obj
 0001:00028c3e       ?dtor$1@?0??Execute@MetadataWorker@@UEAAXXZ@4HA 0000000180029c3e f   metadata.obj
 0001:00028c4a       ?catch$14@?0??Execute@MetadataWorker@@UEAAXXZ@4HA 0000000180029c4a f   metadata.obj
 0001:00028c57       __catch$?Execute@MetadataWorker@@UEAAXXZ$0 0000000180029c57 f   metadata.obj
 0001:00028ca1       ?dtor$2@?0??Execute@MetadataWorker@@UEAAXXZ@4HA 0000000180029ca1 f   metadata.obj
 0001:00028cad       ?dtor$10@?0??Execute@MetadataWorker@@UEAAXXZ@4HA 0000000180029cad f   metadata.obj
 0001:00028cbb       ?dtor$11@?0??Execute@MetadataWorker@@UEAAXXZ@4HA 0000000180029cbb f   metadata.obj
 0001:00028cc9       ?dtor$12@?0??Execute@MetadataWorker@@UEAAXXZ@4HA 0000000180029cc9 f   metadata.obj
 0001:00028cd7       ?dtor$13@?0??Execute@MetadataWorker@@UEAAXXZ@4HA 0000000180029cd7 f   metadata.obj
 0001:00028cf0       ?dtor$0@?0??metadata@@YAXAEBV?$FunctionCallbackInfo@VValue@v8@@@Nan@@@Z@4HA 0000000180029cf0 f   metadata.obj
 0001:00028cfc       ?dtor$2@?0??metadata@@YAXAEBV?$FunctionCallbackInfo@VValue@v8@@@Nan@@@Z@4HA 0000000180029cfc f   metadata.obj
 0001:00028d08       ?dtor$4@?0??metadata@@YAXAEBV?$FunctionCallbackInfo@VValue@v8@@@Nan@@@Z@4HA 0000000180029d08 f   metadata.obj
 0001:00028d28       ?dtor$5@?0??metadata@@YAXAEBV?$FunctionCallbackInfo@VValue@v8@@@Nan@@@Z@4HA 0000000180029d28 f   metadata.obj
 0001:00028d50       ?dtor$0@?0??Composite@sharp@@YA?AVVImage@vips@@V23@0HH@Z@4HA 0000000180029d50 f   operations.obj
 0001:00028d50       ?dtor$0@?0??Composite@sharp@@YA?AVVImage@vips@@V23@0H@Z@4HA 0000000180029d50 f   operations.obj
 0001:00028d5e       ?dtor$1@?0??Composite@sharp@@YA?AVVImage@vips@@V23@0H@Z@4HA 0000000180029d5e f   operations.obj
 0001:00028d5e       ?dtor$1@?0??Composite@sharp@@YA?AVVImage@vips@@V23@0HH@Z@4HA 0000000180029d5e f   operations.obj
 0001:00028d6c       ?dtor$2@?0??Composite@sharp@@YA?AVVImage@vips@@V23@0H@Z@4HA 0000000180029d6c f   operations.obj
 0001:00028d6c       ?dtor$2@?0??Composite@sharp@@YA?AVVImage@vips@@V23@0HH@Z@4HA 0000000180029d6c f   operations.obj
 0001:00028d7a       ?dtor$4@?0??Composite@sharp@@YA?AVVImage@vips@@V23@0H@Z@4HA 0000000180029d7a f   operations.obj
 0001:00028d7a       ?dtor$4@?0??Composite@sharp@@YA?AVVImage@vips@@V23@0HH@Z@4HA 0000000180029d7a f   operations.obj
 0001:00028d86       ?dtor$5@?0??Composite@sharp@@YA?AVVImage@vips@@V23@0H@Z@4HA 0000000180029d86 f   operations.obj
 0001:00028d86       ?dtor$5@?0??Composite@sharp@@YA?AVVImage@vips@@V23@0HH@Z@4HA 0000000180029d86 f   operations.obj
 0001:00028d92       ?dtor$6@?0??Composite@sharp@@YA?AVVImage@vips@@V23@0HH@Z@4HA 0000000180029d92 f   operations.obj
 0001:00028d92       ?dtor$6@?0??Composite@sharp@@YA?AVVImage@vips@@V23@0H@Z@4HA 0000000180029d92 f   operations.obj
 0001:00028da0       ?dtor$7@?0??Composite@sharp@@YA?AVVImage@vips@@V23@0H@Z@4HA 0000000180029da0 f   operations.obj
 0001:00028da0       ?dtor$7@?0??Composite@sharp@@YA?AVVImage@vips@@V23@0HH@Z@4HA 0000000180029da0 f   operations.obj
 0001:00028db0       ?dtor$0@?0??IsInputValidForComposition@sharp@@YA_NVVImage@vips@@0@Z@4HA 0000000180029db0 f   operations.obj
 0001:00028dbe       ?dtor$1@?0??IsInputValidForComposition@sharp@@YA_NVVImage@vips@@0@Z@4HA 0000000180029dbe f   operations.obj
 0001:00028dcc       ?dtor$7@?0??IsInputValidForComposition@sharp@@YA_NVVImage@vips@@0@Z@4HA 0000000180029dcc f   operations.obj
 0001:00028de0       ?dtor$0@?0??CompositeImage@sharp@@YA?AVVImage@vips@@V23@0@Z@4HA 0000000180029de0 f   operations.obj
 0001:00028dee       ?dtor$1@?0??CompositeImage@sharp@@YA?AVVImage@vips@@V23@0@Z@4HA 0000000180029dee f   operations.obj
 0001:00028dfc       ?dtor$2@?0??CompositeImage@sharp@@YA?AVVImage@vips@@V23@0@Z@4HA 0000000180029dfc f   operations.obj
 0001:00028e0a       ?dtor$4@?0??CompositeImage@sharp@@YA?AVVImage@vips@@V23@0@Z@4HA 0000000180029e0a f   operations.obj
 0001:00028e18       ?dtor$5@?0??CompositeImage@sharp@@YA?AVVImage@vips@@V23@0@Z@4HA 0000000180029e18 f   operations.obj
 0001:00028e26       ?dtor$7@?0??CompositeImage@sharp@@YA?AVVImage@vips@@V23@0@Z@4HA 0000000180029e26 f   operations.obj
 0001:00028e34       ?dtor$8@?0??CompositeImage@sharp@@YA?AVVImage@vips@@V23@0@Z@4HA 0000000180029e34 f   operations.obj
 0001:00028e42       ?dtor$9@?0??CompositeImage@sharp@@YA?AVVImage@vips@@V23@0@Z@4HA 0000000180029e42 f   operations.obj
 0001:00028e50       ?dtor$11@?0??CompositeImage@sharp@@YA?AVVImage@vips@@V23@0@Z@4HA 0000000180029e50 f   operations.obj
 0001:00028e5e       ?dtor$13@?0??CompositeImage@sharp@@YA?AVVImage@vips@@V23@0@Z@4HA 0000000180029e5e f   operations.obj
 0001:00028e6c       ?dtor$14@?0??CompositeImage@sharp@@YA?AVVImage@vips@@V23@0@Z@4HA 0000000180029e6c f   operations.obj
 0001:00028e7a       ?dtor$16@?0??CompositeImage@sharp@@YA?AVVImage@vips@@V23@0@Z@4HA 0000000180029e7a f   operations.obj
 0001:00028e88       ?dtor$18@?0??CompositeImage@sharp@@YA?AVVImage@vips@@V23@0@Z@4HA 0000000180029e88 f   operations.obj
 0001:00028ea0       ?dtor$0@?0??Cutout@sharp@@YA?AVVImage@vips@@V23@0H@Z@4HA 0000000180029ea0 f   operations.obj
 0001:00028eae       ?dtor$1@?0??Cutout@sharp@@YA?AVVImage@vips@@V23@0H@Z@4HA 0000000180029eae f   operations.obj
 0001:00028ebc       ?dtor$21@?0??Cutout@sharp@@YA?AVVImage@vips@@V23@0H@Z@4HA 0000000180029ebc f   operations.obj
 0001:00028eca       ?dtor$22@?0??Cutout@sharp@@YA?AVVImage@vips@@V23@0H@Z@4HA 0000000180029eca f   operations.obj
 0001:00028ed8       ?dtor$7@?0??Cutout@sharp@@YA?AVVImage@vips@@V23@0H@Z@4HA 0000000180029ed8 f   operations.obj
 0001:00028ee4       ?dtor$8@?0??Cutout@sharp@@YA?AVVImage@vips@@V23@0H@Z@4HA 0000000180029ee4 f   operations.obj
 0001:00028ef0       ?dtor$9@?0??Cutout@sharp@@YA?AVVImage@vips@@V23@0H@Z@4HA 0000000180029ef0 f   operations.obj
 0001:00028efe       ?dtor$10@?0??Cutout@sharp@@YA?AVVImage@vips@@V23@0H@Z@4HA 0000000180029efe f   operations.obj
 0001:00028f0c       ?dtor$11@?0??Cutout@sharp@@YA?AVVImage@vips@@V23@0H@Z@4HA 0000000180029f0c f   operations.obj
 0001:00028f1a       ?dtor$12@?0??Cutout@sharp@@YA?AVVImage@vips@@V23@0H@Z@4HA 0000000180029f1a f   operations.obj
 0001:00028f28       ?dtor$14@?0??Cutout@sharp@@YA?AVVImage@vips@@V23@0H@Z@4HA 0000000180029f28 f   operations.obj
 0001:00028f36       ?dtor$18@?0??Cutout@sharp@@YA?AVVImage@vips@@V23@0H@Z@4HA 0000000180029f36 f   operations.obj
 0001:00028f50       ?dtor$0@?0??Normalise@sharp@@YA?AVVImage@vips@@V23@@Z@4HA 0000000180029f50 f   operations.obj
 0001:00028f5e       ?dtor$1@?0??Normalise@sharp@@YA?AVVImage@vips@@V23@@Z@4HA 0000000180029f5e f   operations.obj
 0001:00028f6c       ?dtor$2@?0??Normalise@sharp@@YA?AVVImage@vips@@V23@@Z@4HA 0000000180029f6c f   operations.obj
 0001:00028f7a       ?dtor$3@?0??Normalise@sharp@@YA?AVVImage@vips@@V23@@Z@4HA 0000000180029f7a f   operations.obj
 0001:00028f88       ?dtor$6@?0??Normalise@sharp@@YA?AVVImage@vips@@V23@@Z@4HA 0000000180029f88 f   operations.obj
 0001:00028f96       ?dtor$7@?0??Normalise@sharp@@YA?AVVImage@vips@@V23@@Z@4HA 0000000180029f96 f   operations.obj
 0001:00028fa4       ?dtor$8@?0??Normalise@sharp@@YA?AVVImage@vips@@V23@@Z@4HA 0000000180029fa4 f   operations.obj
 0001:00028fb2       ?dtor$9@?0??Normalise@sharp@@YA?AVVImage@vips@@V23@@Z@4HA 0000000180029fb2 f   operations.obj
 0001:00028fc0       ?dtor$10@?0??Normalise@sharp@@YA?AVVImage@vips@@V23@@Z@4HA 0000000180029fc0 f   operations.obj
 0001:00028fce       ?dtor$12@?0??Normalise@sharp@@YA?AVVImage@vips@@V23@@Z@4HA 0000000180029fce f   operations.obj
 0001:00028fe0       ?dtor$0@?0??Gamma@sharp@@YA?AVVImage@vips@@V23@N@Z@4HA 0000000180029fe0 f   operations.obj
 0001:00028fee       ?dtor$7@?0??Gamma@sharp@@YA?AVVImage@vips@@V23@N@Z@4HA 0000000180029fee f   operations.obj
 0001:00028ffc       ?dtor$2@?0??Gamma@sharp@@YA?AVVImage@vips@@V23@N@Z@4HA 0000000180029ffc f   operations.obj
 0001:0002900a       ?dtor$3@?0??Gamma@sharp@@YA?AVVImage@vips@@V23@N@Z@4HA 000000018002a00a f   operations.obj
 0001:00029018       ?dtor$4@?0??Gamma@sharp@@YA?AVVImage@vips@@V23@N@Z@4HA 000000018002a018 f   operations.obj
 0001:00029026       ?dtor$5@?0??Gamma@sharp@@YA?AVVImage@vips@@V23@N@Z@4HA 000000018002a026 f   operations.obj
 0001:00029040       ?dtor$0@?0??Blur@sharp@@YA?AVVImage@vips@@V23@N@Z@4HA 000000018002a040 f   operations.obj
 0001:0002904e       ?dtor$1@?0??Blur@sharp@@YA?AVVImage@vips@@V23@N@Z@4HA 000000018002a04e f   operations.obj
 0001:00029060       ?dtor$0@?0??Convolve@sharp@@YA?AVVImage@vips@@V23@HHNNAEBV?$unique_ptr@$$BY0A@NU?$default_delete@$$BY0A@N@std@@@std@@@Z@4HA 000000018002a060 f   operations.obj
 0001:0002906e       ?dtor$1@?0??Convolve@sharp@@YA?AVVImage@vips@@V23@HHNNAEBV?$unique_ptr@$$BY0A@NU?$default_delete@$$BY0A@N@std@@@std@@@Z@4HA 000000018002a06e f   operations.obj
 0001:00029080       ?dtor$0@?0??Sharpen@sharp@@YA?AVVImage@vips@@V23@NNN@Z@4HA 000000018002a080 f   operations.obj
 0001:0002908e       ?dtor$1@?0??Sharpen@sharp@@YA?AVVImage@vips@@V23@NNN@Z@4HA 000000018002a08e f   operations.obj
 0001:0002909c       ?dtor$4@?0??Sharpen@sharp@@YA?AVVImage@vips@@V23@NNN@Z@4HA 000000018002a09c f   operations.obj
 0001:000290b0       ?dtor$0@?0???RAttentionStrategy@sharp@@QEAANVVImage@vips@@@Z@4HA 000000018002a0b0 f   operations.obj
 0001:000290be       ?dtor$2@?0???RAttentionStrategy@sharp@@QEAANVVImage@vips@@@Z@4HA 000000018002a0be f   operations.obj
 0001:000290ca       ?dtor$3@?0???RAttentionStrategy@sharp@@QEAANVVImage@vips@@@Z@4HA 000000018002a0ca f   operations.obj
 0001:000290d6       ?dtor$4@?0???RAttentionStrategy@sharp@@QEAANVVImage@vips@@@Z@4HA 000000018002a0d6 f   operations.obj
 0001:000290e4       ?dtor$5@?0???RAttentionStrategy@sharp@@QEAANVVImage@vips@@@Z@4HA 000000018002a0e4 f   operations.obj
 0001:000290f2       ?dtor$6@?0???RAttentionStrategy@sharp@@QEAANVVImage@vips@@@Z@4HA 000000018002a0f2 f   operations.obj
 0001:00029100       ?dtor$7@?0???RAttentionStrategy@sharp@@QEAANVVImage@vips@@@Z@4HA 000000018002a100 f   operations.obj
 0001:0002910e       ?dtor$8@?0???RAttentionStrategy@sharp@@QEAANVVImage@vips@@@Z@4HA 000000018002a10e f   operations.obj
 0001:0002911c       ?dtor$9@?0???RAttentionStrategy@sharp@@QEAANVVImage@vips@@@Z@4HA 000000018002a11c f   operations.obj
 0001:0002912a       ?dtor$11@?0???RAttentionStrategy@sharp@@QEAANVVImage@vips@@@Z@4HA 000000018002a12a f   operations.obj
 0001:00029138       ?dtor$12@?0???RAttentionStrategy@sharp@@QEAANVVImage@vips@@@Z@4HA 000000018002a138 f   operations.obj
 0001:00029146       ?dtor$14@?0???RAttentionStrategy@sharp@@QEAANVVImage@vips@@@Z@4HA 000000018002a146 f   operations.obj
 0001:00029154       ?dtor$16@?0???RAttentionStrategy@sharp@@QEAANVVImage@vips@@@Z@4HA 000000018002a154 f   operations.obj
 0001:00029162       ?dtor$18@?0???RAttentionStrategy@sharp@@QEAANVVImage@vips@@@Z@4HA 000000018002a162 f   operations.obj
 0001:00029170       ?dtor$20@?0???RAttentionStrategy@sharp@@QEAANVVImage@vips@@@Z@4HA 000000018002a170 f   operations.obj
 0001:0002917e       ?dtor$22@?0???RAttentionStrategy@sharp@@QEAANVVImage@vips@@@Z@4HA 000000018002a17e f   operations.obj
 0001:0002918c       ?dtor$27@?0???RAttentionStrategy@sharp@@QEAANVVImage@vips@@@Z@4HA 000000018002a18c f   operations.obj
 0001:0002919a       ?dtor$28@?0???RAttentionStrategy@sharp@@QEAANVVImage@vips@@@Z@4HA 000000018002a19a f   operations.obj
 0001:000291a8       ?dtor$29@?0???RAttentionStrategy@sharp@@QEAANVVImage@vips@@@Z@4HA 000000018002a1a8 f   operations.obj
 0001:000291b6       ?dtor$31@?0???RAttentionStrategy@sharp@@QEAANVVImage@vips@@@Z@4HA 000000018002a1b6 f   operations.obj
 0001:000291c4       ?dtor$32@?0???RAttentionStrategy@sharp@@QEAANVVImage@vips@@@Z@4HA 000000018002a1c4 f   operations.obj
 0001:000291d2       ?dtor$33@?0???RAttentionStrategy@sharp@@QEAANVVImage@vips@@@Z@4HA 000000018002a1d2 f   operations.obj
 0001:000291e0       ?dtor$36@?0???RAttentionStrategy@sharp@@QEAANVVImage@vips@@@Z@4HA 000000018002a1e0 f   operations.obj
 0001:000291f0       ?dtor$0@?0??Crop@sharp@@YA?AV?$tuple@HH@std@@VVImage@vips@@HHV?$function@$$A6ANVVImage@vips@@@Z@3@@Z@4HA 000000018002a1f0 f   operations.obj
 0001:000291fc       ?dtor$1@?0??Crop@sharp@@YA?AV?$tuple@HH@std@@VVImage@vips@@HHV?$function@$$A6ANVVImage@vips@@@Z@3@@Z@4HA 000000018002a1fc f   operations.obj
 0001:0002920a       ?dtor$6@?0??Crop@sharp@@YA?AV?$tuple@HH@std@@VVImage@vips@@HHV?$function@$$A6ANVVImage@vips@@@Z@3@@Z@4HA 000000018002a20a f   operations.obj
 0001:00029218       ?dtor$7@?0??Crop@sharp@@YA?AV?$tuple@HH@std@@VVImage@vips@@HHV?$function@$$A6ANVVImage@vips@@@Z@3@@Z@4HA 000000018002a218 f   operations.obj
 0001:00029226       ?dtor$8@?0??Crop@sharp@@YA?AV?$tuple@HH@std@@VVImage@vips@@HHV?$function@$$A6ANVVImage@vips@@@Z@3@@Z@4HA 000000018002a226 f   operations.obj
 0001:00029234       ?dtor$9@?0??Crop@sharp@@YA?AV?$tuple@HH@std@@VVImage@vips@@HHV?$function@$$A6ANVVImage@vips@@@Z@3@@Z@4HA 000000018002a234 f   operations.obj
 0001:00029250       ?dtor$0@?0??TileCache@sharp@@YA?AVVImage@vips@@V23@N@Z@4HA 000000018002a250 f   operations.obj
 0001:00029260       ?dtor$0@?0??Threshold@sharp@@YA?AVVImage@vips@@V23@N_N@Z@4HA 000000018002a260 f   operations.obj
 0001:00029270       ?dtor$0@?0??Bandbool@sharp@@YA?AVVImage@vips@@V23@W4VipsOperationBoolean@@@Z@4HA 000000018002a270 f   operations.obj
 0001:0002927e       ?dtor$1@?0??Bandbool@sharp@@YA?AVVImage@vips@@V23@W4VipsOperationBoolean@@@Z@4HA 000000018002a27e f   operations.obj
 0001:00029290       ?dtor$0@?0??Boolean@sharp@@YA?AVVImage@vips@@V23@0W4VipsOperationBoolean@@@Z@4HA 000000018002a290 f   operations.obj
 0001:0002929e       ?dtor$1@?0??Boolean@sharp@@YA?AVVImage@vips@@V23@0W4VipsOperationBoolean@@@Z@4HA 000000018002a29e f   operations.obj
 0001:000292b0       ?dtor$0@?0??Trim@sharp@@YA?AVVImage@vips@@V23@H@Z@4HA 000000018002a2b0 f   operations.obj
 0001:000292be       ?dtor$1@?0??Trim@sharp@@YA?AVVImage@vips@@V23@H@Z@4HA 000000018002a2be f   operations.obj
 0001:000292ca       ?dtor$2@?0??Trim@sharp@@YA?AVVImage@vips@@V23@H@Z@4HA 000000018002a2ca f   operations.obj
 0001:000292d6       ?dtor$4@?0??Trim@sharp@@YA?AVVImage@vips@@V23@H@Z@4HA 000000018002a2d6 f   operations.obj
 0001:000292e4       ?dtor$6@?0??Trim@sharp@@YA?AVVImage@vips@@V23@H@Z@4HA 000000018002a2e4 f   operations.obj
 0001:000292f2       ?dtor$7@?0??Trim@sharp@@YA?AVVImage@vips@@V23@H@Z@4HA 000000018002a2f2 f   operations.obj
 0001:00029300       ?dtor$8@?0??Trim@sharp@@YA?AVVImage@vips@@V23@H@Z@4HA 000000018002a300 f   operations.obj
 0001:0002930e       ?dtor$9@?0??Trim@sharp@@YA?AVVImage@vips@@V23@H@Z@4HA 000000018002a30e f   operations.obj
 0001:0002931c       ?dtor$10@?0??Trim@sharp@@YA?AVVImage@vips@@V23@H@Z@4HA 000000018002a31c f   operations.obj
 0001:0002932a       ?dtor$11@?0??Trim@sharp@@YA?AVVImage@vips@@V23@H@Z@4HA 000000018002a32a f   operations.obj
 0001:00029338       ?dtor$12@?0??Trim@sharp@@YA?AVVImage@vips@@V23@H@Z@4HA 000000018002a338 f   operations.obj
 0001:00029346       ?dtor$13@?0??Trim@sharp@@YA?AVVImage@vips@@V23@H@Z@4HA 000000018002a346 f   operations.obj
 0001:00029354       ?dtor$14@?0??Trim@sharp@@YA?AVVImage@vips@@V23@H@Z@4HA 000000018002a354 f   operations.obj
 0001:00029362       ?dtor$15@?0??Trim@sharp@@YA?AVVImage@vips@@V23@H@Z@4HA 000000018002a362 f   operations.obj
 0001:00029370       ?dtor$16@?0??Trim@sharp@@YA?AVVImage@vips@@V23@H@Z@4HA 000000018002a370 f   operations.obj
 0001:0002937e       ?dtor$17@?0??Trim@sharp@@YA?AVVImage@vips@@V23@H@Z@4HA 000000018002a37e f   operations.obj
 0001:0002938c       ?dtor$18@?0??Trim@sharp@@YA?AVVImage@vips@@V23@H@Z@4HA 000000018002a38c f   operations.obj
 0001:000293a0       ?dtor$0@?0??convert@?$ToFactory@N@imp@Nan@@SA?AV?$Maybe@N@3@V?$Local@VValue@v8@@@v8@@@Z@4HA 000000018002a3a0 f   pipeline.obj
 0001:000293b0       ?dtor$0@?0???0PipelineBaton@@QEAA@XZ@4HA 000000018002a3b0 f   pipeline.obj
 0001:000293c0       ?dtor$1@?0???0PipelineBaton@@QEAA@XZ@4HA 000000018002a3c0 f   pipeline.obj
 0001:000293d0       ?dtor$2@?0???0PipelineBaton@@QEAA@XZ@4HA 000000018002a3d0 f   pipeline.obj
 0001:000293e0       ?dtor$3@?0???0PipelineBaton@@QEAA@XZ@4HA 000000018002a3e0 f   pipeline.obj
 0001:000293f3       ?dtor$4@?0???0PipelineBaton@@QEAA@XZ@4HA 000000018002a3f3 f   pipeline.obj
 0001:00029406       ?dtor$5@?0???0PipelineBaton@@QEAA@XZ@4HA 000000018002a406 f   pipeline.obj
 0001:00029420       ?dtor$0@?0???0PipelineWorker@@QEAA@PEAVCallback@Nan@@PEAUPipelineBaton@@0V?$vector@V?$Local@VObject@v8@@@v8@@V?$allocator@V?$Local@VObject@v8@@@v8@@@std@@@std@@@Z@4HA 000000018002a420 f   pipeline.obj
 0001:0002942c       ?dtor$1@?0???0PipelineWorker@@QEAA@PEAVCallback@Nan@@PEAUPipelineBaton@@0V?$vector@V?$Local@VObject@v8@@@v8@@V?$allocator@V?$Local@VObject@v8@@@v8@@@std@@@std@@@Z@4HA 000000018002a42c f   pipeline.obj
 0001:00029438       ?dtor$2@?0???0PipelineWorker@@QEAA@PEAVCallback@Nan@@PEAUPipelineBaton@@0V?$vector@V?$Local@VObject@v8@@@v8@@V?$allocator@V?$Local@VObject@v8@@@v8@@@std@@@std@@@Z@4HA 000000018002a438 f   pipeline.obj
 0001:00029450       ?dtor$0@?0??Execute@PipelineWorker@@UEAAXXZ@4HA 000000018002a450 f   pipeline.obj
 0001:0002945c       ?dtor$1@?0??Execute@PipelineWorker@@UEAAXXZ@4HA 000000018002a45c f   pipeline.obj
 0001:00029468       ?dtor$2@?0??Execute@PipelineWorker@@UEAAXXZ@4HA 000000018002a468 f   pipeline.obj
 0001:00029474       ?dtor$3@?0??Execute@PipelineWorker@@UEAAXXZ@4HA 000000018002a474 f   pipeline.obj
 0001:00029480       ?dtor$4@?0??Execute@PipelineWorker@@UEAAXXZ@4HA 000000018002a480 f   pipeline.obj
 0001:0002948c       ?dtor$5@?0??Execute@PipelineWorker@@UEAAXXZ@4HA 000000018002a48c f   pipeline.obj
 0001:0002949a       ?dtor$6@?0??Execute@PipelineWorker@@UEAAXXZ@4HA 000000018002a49a f   pipeline.obj
 0001:000294a6       ?dtor$8@?0??Execute@PipelineWorker@@UEAAXXZ@4HA 000000018002a4a6 f   pipeline.obj
 0001:000294b4       ?dtor$11@?0??Execute@PipelineWorker@@UEAAXXZ@4HA 000000018002a4b4 f   pipeline.obj
 0001:000294c2       ?dtor$12@?0??Execute@PipelineWorker@@UEAAXXZ@4HA 000000018002a4c2 f   pipeline.obj
 0001:000294d0       ?dtor$13@?0??Execute@PipelineWorker@@UEAAXXZ@4HA 000000018002a4d0 f   pipeline.obj
 0001:000294de       ?dtor$14@?0??Execute@PipelineWorker@@UEAAXXZ@4HA 000000018002a4de f   pipeline.obj
 0001:000294ec       ?dtor$15@?0??Execute@PipelineWorker@@UEAAXXZ@4HA 000000018002a4ec f   pipeline.obj
 0001:000294fa       ?dtor$16@?0??Execute@PipelineWorker@@UEAAXXZ@4HA 000000018002a4fa f   pipeline.obj
 0001:00029508       ?dtor$18@?0??Execute@PipelineWorker@@UEAAXXZ@4HA 000000018002a508 f   pipeline.obj
 0001:00029516       ?catch$191@?0??Execute@PipelineWorker@@UEAAXXZ@4HA 000000018002a516 f   pipeline.obj
 0001:00029523       __catch$?Execute@PipelineWorker@@UEAAXXZ$0 000000018002a523 f   pipeline.obj
 0001:00029531       ?dtor$19@?0??Execute@PipelineWorker@@UEAAXXZ@4HA 000000018002a531 f   pipeline.obj
 0001:0002953f       ?dtor$21@?0??Execute@PipelineWorker@@UEAAXXZ@4HA 000000018002a53f f   pipeline.obj
 0001:0002954b       ?dtor$22@?0??Execute@PipelineWorker@@UEAAXXZ@4HA 000000018002a54b f   pipeline.obj
 0001:00029557       ?dtor$23@?0??Execute@PipelineWorker@@UEAAXXZ@4HA 000000018002a557 f   pipeline.obj
 0001:00029565       ?dtor$24@?0??Execute@PipelineWorker@@UEAAXXZ@4HA 000000018002a565 f   pipeline.obj
 0001:00029573       ?dtor$26@?0??Execute@PipelineWorker@@UEAAXXZ@4HA 000000018002a573 f   pipeline.obj
 0001:00029581       ?dtor$27@?0??Execute@PipelineWorker@@UEAAXXZ@4HA 000000018002a581 f   pipeline.obj
 0001:0002958f       ?dtor$29@?0??Execute@PipelineWorker@@UEAAXXZ@4HA 000000018002a58f f   pipeline.obj
 0001:0002959d       ?dtor$31@?0??Execute@PipelineWorker@@UEAAXXZ@4HA 000000018002a59d f   pipeline.obj
 0001:000295ab       ?dtor$33@?0??Execute@PipelineWorker@@UEAAXXZ@4HA 000000018002a5ab f   pipeline.obj
 0001:000295b9       ?dtor$34@?0??Execute@PipelineWorker@@UEAAXXZ@4HA 000000018002a5b9 f   pipeline.obj
 0001:000295c7       ?dtor$35@?0??Execute@PipelineWorker@@UEAAXXZ@4HA 000000018002a5c7 f   pipeline.obj
 0001:000295d5       ?dtor$37@?0??Execute@PipelineWorker@@UEAAXXZ@4HA 000000018002a5d5 f   pipeline.obj
 0001:000295e3       ?dtor$39@?0??Execute@PipelineWorker@@UEAAXXZ@4HA 000000018002a5e3 f   pipeline.obj
 0001:000295f1       ?dtor$40@?0??Execute@PipelineWorker@@UEAAXXZ@4HA 000000018002a5f1 f   pipeline.obj
 0001:000295ff       ?dtor$41@?0??Execute@PipelineWorker@@UEAAXXZ@4HA 000000018002a5ff f   pipeline.obj
 0001:0002960d       ?dtor$42@?0??Execute@PipelineWorker@@UEAAXXZ@4HA 000000018002a60d f   pipeline.obj
 0001:0002961b       ?dtor$44@?0??Execute@PipelineWorker@@UEAAXXZ@4HA 000000018002a61b f   pipeline.obj
 0001:00029629       ?dtor$45@?0??Execute@PipelineWorker@@UEAAXXZ@4HA 000000018002a629 f   pipeline.obj
 0001:00029637       ?dtor$47@?0??Execute@PipelineWorker@@UEAAXXZ@4HA 000000018002a637 f   pipeline.obj
 0001:00029645       ?dtor$48@?0??Execute@PipelineWorker@@UEAAXXZ@4HA 000000018002a645 f   pipeline.obj
 0001:00029653       ?dtor$50@?0??Execute@PipelineWorker@@UEAAXXZ@4HA 000000018002a653 f   pipeline.obj
 0001:00029661       ?dtor$52@?0??Execute@PipelineWorker@@UEAAXXZ@4HA 000000018002a661 f   pipeline.obj
 0001:0002966f       ?dtor$54@?0??Execute@PipelineWorker@@UEAAXXZ@4HA 000000018002a66f f   pipeline.obj
 0001:0002967d       ?dtor$55@?0??Execute@PipelineWorker@@UEAAXXZ@4HA 000000018002a67d f   pipeline.obj
 0001:00029689       ?dtor$57@?0??Execute@PipelineWorker@@UEAAXXZ@4HA 000000018002a689 f   pipeline.obj
 0001:00029697       ?dtor$58@?0??Execute@PipelineWorker@@UEAAXXZ@4HA 000000018002a697 f   pipeline.obj
 0001:000296a5       ?dtor$59@?0??Execute@PipelineWorker@@UEAAXXZ@4HA 000000018002a6a5 f   pipeline.obj
 0001:000296b1       ?dtor$61@?0??Execute@PipelineWorker@@UEAAXXZ@4HA 000000018002a6b1 f   pipeline.obj
 0001:000296bd       ?dtor$64@?0??Execute@PipelineWorker@@UEAAXXZ@4HA 000000018002a6bd f   pipeline.obj
 0001:000296cb       ?dtor$66@?0??Execute@PipelineWorker@@UEAAXXZ@4HA 000000018002a6cb f   pipeline.obj
 0001:000296d9       ?dtor$67@?0??Execute@PipelineWorker@@UEAAXXZ@4HA 000000018002a6d9 f   pipeline.obj
 0001:000296e5       ?dtor$68@?0??Execute@PipelineWorker@@UEAAXXZ@4HA 000000018002a6e5 f   pipeline.obj
 0001:000296f3       ?dtor$69@?0??Execute@PipelineWorker@@UEAAXXZ@4HA 000000018002a6f3 f   pipeline.obj
 0001:000296ff       ?dtor$71@?0??Execute@PipelineWorker@@UEAAXXZ@4HA 000000018002a6ff f   pipeline.obj
 0001:0002970b       ?dtor$73@?0??Execute@PipelineWorker@@UEAAXXZ@4HA 000000018002a70b f   pipeline.obj
 0001:00029719       ?dtor$74@?0??Execute@PipelineWorker@@UEAAXXZ@4HA 000000018002a719 f   pipeline.obj
 0001:00029727       ?dtor$75@?0??Execute@PipelineWorker@@UEAAXXZ@4HA 000000018002a727 f   pipeline.obj
 0001:00029733       ?dtor$77@?0??Execute@PipelineWorker@@UEAAXXZ@4HA 000000018002a733 f   pipeline.obj
 0001:0002973f       ?dtor$80@?0??Execute@PipelineWorker@@UEAAXXZ@4HA 000000018002a73f f   pipeline.obj
 0001:0002974d       ?dtor$82@?0??Execute@PipelineWorker@@UEAAXXZ@4HA 000000018002a74d f   pipeline.obj
 0001:0002975b       ?dtor$83@?0??Execute@PipelineWorker@@UEAAXXZ@4HA 000000018002a75b f   pipeline.obj
 0001:00029767       ?dtor$84@?0??Execute@PipelineWorker@@UEAAXXZ@4HA 000000018002a767 f   pipeline.obj
 0001:00029775       ?dtor$86@?0??Execute@PipelineWorker@@UEAAXXZ@4HA 000000018002a775 f   pipeline.obj
 0001:00029783       ?dtor$88@?0??Execute@PipelineWorker@@UEAAXXZ@4HA 000000018002a783 f   pipeline.obj
 0001:00029791       ?dtor$90@?0??Execute@PipelineWorker@@UEAAXXZ@4HA 000000018002a791 f   pipeline.obj
 0001:0002979f       ?dtor$92@?0??Execute@PipelineWorker@@UEAAXXZ@4HA 000000018002a79f f   pipeline.obj
 0001:000297ad       ?dtor$93@?0??Execute@PipelineWorker@@UEAAXXZ@4HA 000000018002a7ad f   pipeline.obj
 0001:000297bb       ?dtor$94@?0??Execute@PipelineWorker@@UEAAXXZ@4HA 000000018002a7bb f   pipeline.obj
 0001:000297c7       ?dtor$95@?0??Execute@PipelineWorker@@UEAAXXZ@4HA 000000018002a7c7 f   pipeline.obj
 0001:000297d5       ?dtor$96@?0??Execute@PipelineWorker@@UEAAXXZ@4HA 000000018002a7d5 f   pipeline.obj
 0001:000297e3       ?dtor$97@?0??Execute@PipelineWorker@@UEAAXXZ@4HA 000000018002a7e3 f   pipeline.obj
 0001:000297f1       ?dtor$99@?0??Execute@PipelineWorker@@UEAAXXZ@4HA 000000018002a7f1 f   pipeline.obj
 0001:000297ff       ?dtor$101@?0??Execute@PipelineWorker@@UEAAXXZ@4HA 000000018002a7ff f   pipeline.obj
 0001:0002980d       ?dtor$103@?0??Execute@PipelineWorker@@UEAAXXZ@4HA 000000018002a80d f   pipeline.obj
 0001:0002981b       ?dtor$105@?0??Execute@PipelineWorker@@UEAAXXZ@4HA 000000018002a81b f   pipeline.obj
 0001:00029829       ?dtor$107@?0??Execute@PipelineWorker@@UEAAXXZ@4HA 000000018002a829 f   pipeline.obj
 0001:00029837       ?dtor$108@?0??Execute@PipelineWorker@@UEAAXXZ@4HA 000000018002a837 f   pipeline.obj
 0001:00029845       ?dtor$109@?0??Execute@PipelineWorker@@UEAAXXZ@4HA 000000018002a845 f   pipeline.obj
 0001:00029853       ?dtor$110@?0??Execute@PipelineWorker@@UEAAXXZ@4HA 000000018002a853 f   pipeline.obj
 0001:00029861       ?dtor$112@?0??Execute@PipelineWorker@@UEAAXXZ@4HA 000000018002a861 f   pipeline.obj
 0001:0002986f       ?dtor$113@?0??Execute@PipelineWorker@@UEAAXXZ@4HA 000000018002a86f f   pipeline.obj
 0001:0002987d       ?dtor$115@?0??Execute@PipelineWorker@@UEAAXXZ@4HA 000000018002a87d f   pipeline.obj
 0001:0002988b       ?dtor$116@?0??Execute@PipelineWorker@@UEAAXXZ@4HA 000000018002a88b f   pipeline.obj
 0001:00029899       ?dtor$117@?0??Execute@PipelineWorker@@UEAAXXZ@4HA 000000018002a899 f   pipeline.obj
 0001:000298a7       ?dtor$118@?0??Execute@PipelineWorker@@UEAAXXZ@4HA 000000018002a8a7 f   pipeline.obj
 0001:000298b5       ?dtor$120@?0??Execute@PipelineWorker@@UEAAXXZ@4HA 000000018002a8b5 f   pipeline.obj
 0001:000298c3       ?dtor$122@?0??Execute@PipelineWorker@@UEAAXXZ@4HA 000000018002a8c3 f   pipeline.obj
 0001:000298d1       ?dtor$123@?0??Execute@PipelineWorker@@UEAAXXZ@4HA 000000018002a8d1 f   pipeline.obj
 0001:000298df       ?dtor$124@?0??Execute@PipelineWorker@@UEAAXXZ@4HA 000000018002a8df f   pipeline.obj
 0001:000298eb       ?dtor$125@?0??Execute@PipelineWorker@@UEAAXXZ@4HA 000000018002a8eb f   pipeline.obj
 0001:000298f9       ?dtor$127@?0??Execute@PipelineWorker@@UEAAXXZ@4HA 000000018002a8f9 f   pipeline.obj
 0001:00029907       ?dtor$129@?0??Execute@PipelineWorker@@UEAAXXZ@4HA 000000018002a907 f   pipeline.obj
 0001:00029915       ?dtor$130@?0??Execute@PipelineWorker@@UEAAXXZ@4HA 000000018002a915 f   pipeline.obj
 0001:00029923       ?dtor$131@?0??Execute@PipelineWorker@@UEAAXXZ@4HA 000000018002a923 f   pipeline.obj
 0001:00029931       ?dtor$132@?0??Execute@PipelineWorker@@UEAAXXZ@4HA 000000018002a931 f   pipeline.obj
 0001:0002993f       ?dtor$134@?0??Execute@PipelineWorker@@UEAAXXZ@4HA 000000018002a93f f   pipeline.obj
 0001:0002996e       ?dtor$135@?0??Execute@PipelineWorker@@UEAAXXZ@4HA 000000018002a96e f   pipeline.obj
 0001:0002997c       ?dtor$188@?0??Execute@PipelineWorker@@UEAAXXZ@4HA 000000018002a97c f   pipeline.obj
 0001:0002998a       ?dtor$137@?0??Execute@PipelineWorker@@UEAAXXZ@4HA 000000018002a98a f   pipeline.obj
 0001:00029998       ?dtor$138@?0??Execute@PipelineWorker@@UEAAXXZ@4HA 000000018002a998 f   pipeline.obj
 0001:000299a6       ?dtor$139@?0??Execute@PipelineWorker@@UEAAXXZ@4HA 000000018002a9a6 f   pipeline.obj
 0001:000299b2       ?dtor$140@?0??Execute@PipelineWorker@@UEAAXXZ@4HA 000000018002a9b2 f   pipeline.obj
 0001:000299be       ?dtor$141@?0??Execute@PipelineWorker@@UEAAXXZ@4HA 000000018002a9be f   pipeline.obj
 0001:000299ca       ?dtor$142@?0??Execute@PipelineWorker@@UEAAXXZ@4HA 000000018002a9ca f   pipeline.obj
 0001:000299d6       ?dtor$143@?0??Execute@PipelineWorker@@UEAAXXZ@4HA 000000018002a9d6 f   pipeline.obj
 0001:000299e2       ?dtor$145@?0??Execute@PipelineWorker@@UEAAXXZ@4HA 000000018002a9e2 f   pipeline.obj
 0001:00029a0f       ?dtor$146@?0??Execute@PipelineWorker@@UEAAXXZ@4HA 000000018002aa0f f   pipeline.obj
 0001:00029a1b       ?dtor$147@?0??Execute@PipelineWorker@@UEAAXXZ@4HA 000000018002aa1b f   pipeline.obj
 0001:00029a27       ?dtor$149@?0??Execute@PipelineWorker@@UEAAXXZ@4HA 000000018002aa27 f   pipeline.obj
 0001:00029a33       ?dtor$150@?0??Execute@PipelineWorker@@UEAAXXZ@4HA 000000018002aa33 f   pipeline.obj
 0001:00029a3f       ?dtor$152@?0??Execute@PipelineWorker@@UEAAXXZ@4HA 000000018002aa3f f   pipeline.obj
 0001:00029a6c       ?dtor$153@?0??Execute@PipelineWorker@@UEAAXXZ@4HA 000000018002aa6c f   pipeline.obj
 0001:00029a78       ?dtor$154@?0??Execute@PipelineWorker@@UEAAXXZ@4HA 000000018002aa78 f   pipeline.obj
 0001:00029a84       ?dtor$156@?0??Execute@PipelineWorker@@UEAAXXZ@4HA 000000018002aa84 f   pipeline.obj
 0001:00029a90       ?dtor$157@?0??Execute@PipelineWorker@@UEAAXXZ@4HA 000000018002aa90 f   pipeline.obj
 0001:00029a9c       ?dtor$158@?0??Execute@PipelineWorker@@UEAAXXZ@4HA 000000018002aa9c f   pipeline.obj
 0001:00029aa8       ?dtor$159@?0??Execute@PipelineWorker@@UEAAXXZ@4HA 000000018002aaa8 f   pipeline.obj
 0001:00029ab4       ?dtor$160@?0??Execute@PipelineWorker@@UEAAXXZ@4HA 000000018002aab4 f   pipeline.obj
 0001:00029ac0       ?dtor$161@?0??Execute@PipelineWorker@@UEAAXXZ@4HA 000000018002aac0 f   pipeline.obj
 0001:00029acc       ?dtor$162@?0??Execute@PipelineWorker@@UEAAXXZ@4HA 000000018002aacc f   pipeline.obj
 0001:00029ad8       ?dtor$163@?0??Execute@PipelineWorker@@UEAAXXZ@4HA 000000018002aad8 f   pipeline.obj
 0001:00029ae4       ?dtor$164@?0??Execute@PipelineWorker@@UEAAXXZ@4HA 000000018002aae4 f   pipeline.obj
 0001:00029af0       ?dtor$166@?0??Execute@PipelineWorker@@UEAAXXZ@4HA 000000018002aaf0 f   pipeline.obj
 0001:00029b1d       ?dtor$167@?0??Execute@PipelineWorker@@UEAAXXZ@4HA 000000018002ab1d f   pipeline.obj
 0001:00029b29       ?dtor$168@?0??Execute@PipelineWorker@@UEAAXXZ@4HA 000000018002ab29 f   pipeline.obj
 0001:00029b35       ?dtor$170@?0??Execute@PipelineWorker@@UEAAXXZ@4HA 000000018002ab35 f   pipeline.obj
 0001:00029b41       ?dtor$171@?0??Execute@PipelineWorker@@UEAAXXZ@4HA 000000018002ab41 f   pipeline.obj
 0001:00029b4d       ?catch$192@?0??Execute@PipelineWorker@@UEAAXXZ@4HA 000000018002ab4d f   pipeline.obj
 0001:00029b5a       __catch$?Execute@PipelineWorker@@UEAAXXZ$2 000000018002ab5a f   pipeline.obj
 0001:00029ba0       ?dtor$0@?0??CalculateRotationAndFlip@PipelineWorker@@AEAA?AV?$tuple@W4VipsAngle@@_N_N@std@@HVVImage@vips@@@Z@4HA 000000018002aba0 f   pipeline.obj
 0001:00029bae       ?dtor$2@?0??CalculateRotationAndFlip@PipelineWorker@@AEAA?AV?$tuple@W4VipsAngle@@_N_N@std@@HVVImage@vips@@@Z@4HA 000000018002abae f   pipeline.obj
 0001:00029bc0       ?dtor$0@?0??AssembleSuffixString@PipelineWorker@@AEAA?AV?$basic_string@DU?$char_traits@D@std@@V?$allocator@D@2@@std@@V23@V?$vector@U?$pair@V?$basic_string@DU?$char_traits@D@std@@V?$allocator@D@2@@std@@V12@@std@@V?$allocator@U?$pair@V?$basic_string@DU?$char_traits@D@std@@V?$allocator@D@2@@std@@V12@@std@@@2@@3@@Z@4HA 000000018002abc0 f   pipeline.obj
 0001:00029bcc       ?dtor$1@?0??AssembleSuffixString@PipelineWorker@@AEAA?AV?$basic_string@DU?$char_traits@D@std@@V?$allocator@D@2@@std@@V23@V?$vector@U?$pair@V?$basic_string@DU?$char_traits@D@std@@V?$allocator@D@2@@std@@V12@@std@@V?$allocator@U?$pair@V?$basic_string@DU?$char_traits@D@std@@V?$allocator@D@2@@std@@V12@@std@@@2@@3@@Z@4HA 000000018002abcc f   pipeline.obj
 0001:00029bd8       ?dtor$2@?0??AssembleSuffixString@PipelineWorker@@AEAA?AV?$basic_string@DU?$char_traits@D@std@@V?$allocator@D@2@@std@@V23@V?$vector@U?$pair@V?$basic_string@DU?$char_traits@D@std@@V?$allocator@D@2@@std@@V12@@std@@V?$allocator@U?$pair@V?$basic_string@DU?$char_traits@D@std@@V?$allocator@D@2@@std@@V12@@std@@@2@@3@@Z@4HA 000000018002abd8 f   pipeline.obj
 0001:00029be4       ?dtor$3@?0??AssembleSuffixString@PipelineWorker@@AEAA?AV?$basic_string@DU?$char_traits@D@std@@V?$allocator@D@2@@std@@V23@V?$vector@U?$pair@V?$basic_string@DU?$char_traits@D@std@@V?$allocator@D@2@@std@@V12@@std@@V?$allocator@U?$pair@V?$basic_string@DU?$char_traits@D@std@@V?$allocator@D@2@@std@@V12@@std@@@2@@3@@Z@4HA 000000018002abe4 f   pipeline.obj
 0001:00029bf0       ?dtor$4@?0??AssembleSuffixString@PipelineWorker@@AEAA?AV?$basic_string@DU?$char_traits@D@std@@V?$allocator@D@2@@std@@V23@V?$vector@U?$pair@V?$basic_string@DU?$char_traits@D@std@@V?$allocator@D@2@@std@@V12@@std@@V?$allocator@U?$pair@V?$basic_string@DU?$char_traits@D@std@@V?$allocator@D@2@@std@@V12@@std@@@2@@3@@Z@4HA 000000018002abf0 f   pipeline.obj
 0001:00029bfc       ?dtor$5@?0??AssembleSuffixString@PipelineWorker@@AEAA?AV?$basic_string@DU?$char_traits@D@std@@V?$allocator@D@2@@std@@V23@V?$vector@U?$pair@V?$basic_string@DU?$char_traits@D@std@@V?$allocator@D@2@@std@@V12@@std@@V?$allocator@U?$pair@V?$basic_string@DU?$char_traits@D@std@@V?$allocator@D@2@@std@@V12@@std@@@2@@3@@Z@4HA 000000018002abfc f   pipeline.obj
 0001:00029c08       ?dtor$6@?0??AssembleSuffixString@PipelineWorker@@AEAA?AV?$basic_string@DU?$char_traits@D@std@@V?$allocator@D@2@@std@@V23@V?$vector@U?$pair@V?$basic_string@DU?$char_traits@D@std@@V?$allocator@D@2@@std@@V12@@std@@V?$allocator@U?$pair@V?$basic_string@DU?$char_traits@D@std@@V?$allocator@D@2@@std@@V12@@std@@@2@@3@@Z@4HA 000000018002ac08 f   pipeline.obj
 0001:00029c20       ?dtor$0@?0??pipeline@@YAXAEBV?$FunctionCallbackInfo@VValue@v8@@@Nan@@@Z@4HA 000000018002ac20 f   pipeline.obj
 0001:00029c2c       ?dtor$1@?0??pipeline@@YAXAEBV?$FunctionCallbackInfo@VValue@v8@@@Nan@@@Z@4HA 000000018002ac2c f   pipeline.obj
 0001:00029c49       ?dtor$2@?0??pipeline@@YAXAEBV?$FunctionCallbackInfo@VValue@v8@@@Nan@@@Z@4HA 000000018002ac49 f   pipeline.obj
 0001:00029c55       ?dtor$5@?0??pipeline@@YAXAEBV?$FunctionCallbackInfo@VValue@v8@@@Nan@@@Z@4HA 000000018002ac55 f   pipeline.obj
 0001:00029c61       ?dtor$19@?0??pipeline@@YAXAEBV?$FunctionCallbackInfo@VValue@v8@@@Nan@@@Z@4HA 000000018002ac61 f   pipeline.obj
 0001:00029c6d       ?dtor$22@?0??pipeline@@YAXAEBV?$FunctionCallbackInfo@VValue@v8@@@Nan@@@Z@4HA 000000018002ac6d f   pipeline.obj
 0001:00029c79       ?dtor$32@?0??pipeline@@YAXAEBV?$FunctionCallbackInfo@VValue@v8@@@Nan@@@Z@4HA 000000018002ac79 f   pipeline.obj
 0001:00029c85       ?dtor$34@?0??pipeline@@YAXAEBV?$FunctionCallbackInfo@VValue@v8@@@Nan@@@Z@4HA 000000018002ac85 f   pipeline.obj
 0001:00029c91       ?dtor$38@?0??pipeline@@YAXAEBV?$FunctionCallbackInfo@VValue@v8@@@Nan@@@Z@4HA 000000018002ac91 f   pipeline.obj
 0001:00029c9d       ?dtor$61@?0??pipeline@@YAXAEBV?$FunctionCallbackInfo@VValue@v8@@@Nan@@@Z@4HA 000000018002ac9d f   pipeline.obj
 0001:00029ca9       ?dtor$79@?0??pipeline@@YAXAEBV?$FunctionCallbackInfo@VValue@v8@@@Nan@@@Z@4HA 000000018002aca9 f   pipeline.obj
 0001:00029cb5       ?dtor$81@?0??pipeline@@YAXAEBV?$FunctionCallbackInfo@VValue@v8@@@Nan@@@Z@4HA 000000018002acb5 f   pipeline.obj
 0001:00029cc1       ?dtor$87@?0??pipeline@@YAXAEBV?$FunctionCallbackInfo@VValue@v8@@@Nan@@@Z@4HA 000000018002acc1 f   pipeline.obj
 0001:00029ccd       ?dtor$99@?0??pipeline@@YAXAEBV?$FunctionCallbackInfo@VValue@v8@@@Nan@@@Z@4HA 000000018002accd f   pipeline.obj
 0001:00029cd9       ?dtor$101@?0??pipeline@@YAXAEBV?$FunctionCallbackInfo@VValue@v8@@@Nan@@@Z@4HA 000000018002acd9 f   pipeline.obj
 0001:00029ce5       ?dtor$103@?0??pipeline@@YAXAEBV?$FunctionCallbackInfo@VValue@v8@@@Nan@@@Z@4HA 000000018002ace5 f   pipeline.obj
 0001:00029cf1       ?dtor$104@?0??pipeline@@YAXAEBV?$FunctionCallbackInfo@VValue@v8@@@Nan@@@Z@4HA 000000018002acf1 f   pipeline.obj
 0001:00029d0e       ?dtor$106@?0??pipeline@@YAXAEBV?$FunctionCallbackInfo@VValue@v8@@@Nan@@@Z@4HA 000000018002ad0e f   pipeline.obj
 0001:00029d2e       ?dtor$107@?0??pipeline@@YAXAEBV?$FunctionCallbackInfo@VValue@v8@@@Nan@@@Z@4HA 000000018002ad2e f   pipeline.obj
 0001:00029d50       ?dtor$0@?0???$AttrTo@N@sharp@@YANV?$Local@VObject@v8@@@v8@@V?$basic_string@DU?$char_traits@D@std@@V?$allocator@D@2@@std@@@Z@4HA 000000018002ad50 f   pipeline.obj
 0001:00029d60       ?dtor$1@?0??_Do_call@?$_Func_impl@UEntropyStrategy@sharp@@V?$allocator@H@std@@NVVImage@vips@@@std@@EEAAN$$QEAVVImage@vips@@@Z@4HA 000000018002ad60 f   pipeline.obj
 0001:00029d6e       ?dtor$2@?0??_Do_call@?$_Func_impl@UEntropyStrategy@sharp@@V?$allocator@H@std@@NVVImage@vips@@@std@@EEAAN$$QEAVVImage@vips@@@Z@4HA 000000018002ad6e f   pipeline.obj
 0001:00029d80       ?dtor$0@?0???$_Uninitialized_copy_al_unchecked1@PEBU?$pair@V?$basic_string@DU?$char_traits@D@std@@V?$allocator@D@2@@std@@V12@@std@@PEAU12@V?$allocator@U?$pair@V?$basic_string@DU?$char_traits@D@std@@V?$allocator@D@2@@std@@V12@@std@@@2@@std@@YAPEAU?$pair@V?$basic_string@DU?$char_traits@D@std@@V?$allocator@D@2@@std@@V12@@0@PEBU10@0PEAU10@AEAU?$_Wrap_alloc@V?$allocator@U?$pair@V?$basic_string@DU?$char_traits@D@std@@V?$allocator@D@2@@std@@V12@@std@@@std@@@0@U_General_ptr_iterator_tag@0@U_Any_tag@0@@Z@4HA 000000018002ad80 f   pipeline.obj
 0001:00029d9c       ?dtor$1@?0???$_Uninitialized_copy_al_unchecked1@PEBU?$pair@V?$basic_string@DU?$char_traits@D@std@@V?$allocator@D@2@@std@@V12@@std@@PEAU12@V?$allocator@U?$pair@V?$basic_string@DU?$char_traits@D@std@@V?$allocator@D@2@@std@@V12@@std@@@2@@std@@YAPEAU?$pair@V?$basic_string@DU?$char_traits@D@std@@V?$allocator@D@2@@std@@V12@@0@PEBU10@0PEAU10@AEAU?$_Wrap_alloc@V?$allocator@U?$pair@V?$basic_string@DU?$char_traits@D@std@@V?$allocator@D@2@@std@@V12@@std@@@std@@@0@U_General_ptr_iterator_tag@0@U_Any_tag@0@@Z@4HA 000000018002ad9c f   pipeline.obj
 0001:00029db0       ?dtor$0@?0??New@?$Factory@VFunctionTemplate@v8@@@imp@Nan@@SA?AV?$Local@VFunctionTemplate@v8@@@v8@@P6AXAEBV?$FunctionCallbackInfo@VValue@v8@@@3@@ZV?$Local@VValue@v8@@@5@V?$Local@VSignature@v8@@@5@@Z@4HA 000000018002adb0 f   sharp.obj
 0001:00029dc0       ?dtor$1@?0??format@@YAXAEBV?$FunctionCallbackInfo@VValue@v8@@@Nan@@@Z@4HA 000000018002adc0 f   utilities.obj
 0001:00029dcc       ?dtor$2@?0??format@@YAXAEBV?$FunctionCallbackInfo@VValue@v8@@@Nan@@@Z@4HA 000000018002adcc f   utilities.obj
 0001:00029dd8       ?dtor$3@?0??format@@YAXAEBV?$FunctionCallbackInfo@VValue@v8@@@Nan@@@Z@4HA 000000018002add8 f   utilities.obj
 0001:00029de4       ?dtor$4@?0??format@@YAXAEBV?$FunctionCallbackInfo@VValue@v8@@@Nan@@@Z@4HA 000000018002ade4 f   utilities.obj
 0001:00029df0       ?dtor$5@?0??format@@YAXAEBV?$FunctionCallbackInfo@VValue@v8@@@Nan@@@Z@4HA 000000018002adf0 f   utilities.obj
 0001:00029e00       ?dtor$1@?0??_maxColourDistance@@YAXAEBV?$FunctionCallbackInfo@VValue@v8@@@Nan@@@Z@4HA 000000018002ae00 f   utilities.obj
 0001:00029e0e       ?dtor$2@?0??_maxColourDistance@@YAXAEBV?$FunctionCallbackInfo@VValue@v8@@@Nan@@@Z@4HA 000000018002ae0e f   utilities.obj
 0001:00029e1a       ?dtor$3@?0??_maxColourDistance@@YAXAEBV?$FunctionCallbackInfo@VValue@v8@@@Nan@@@Z@4HA 000000018002ae1a f   utilities.obj
 0001:00029e26       ?dtor$4@?0??_maxColourDistance@@YAXAEBV?$FunctionCallbackInfo@VValue@v8@@@Nan@@@Z@4HA 000000018002ae26 f   utilities.obj
 0001:00029e34       ?catch$26@?0??_maxColourDistance@@YAXAEBV?$FunctionCallbackInfo@VValue@v8@@@Nan@@@Z@4HA 000000018002ae34 f   utilities.obj
 0001:00029e41       __catch$?_maxColourDistance@@YAXAEBV?$FunctionCallbackInfo@VValue@v8@@@Nan@@@Z$0 000000018002ae41 f   utilities.obj
 0001:00029e5c       ?dtor$5@?0??_maxColourDistance@@YAXAEBV?$FunctionCallbackInfo@VValue@v8@@@Nan@@@Z@4HA 000000018002ae5c f   utilities.obj
 0001:00029e6a       ?dtor$6@?0??_maxColourDistance@@YAXAEBV?$FunctionCallbackInfo@VValue@v8@@@Nan@@@Z@4HA 000000018002ae6a f   utilities.obj
 0001:00029e76       ?dtor$7@?0??_maxColourDistance@@YAXAEBV?$FunctionCallbackInfo@VValue@v8@@@Nan@@@Z@4HA 000000018002ae76 f   utilities.obj
 0001:00029e82       ?dtor$8@?0??_maxColourDistance@@YAXAEBV?$FunctionCallbackInfo@VValue@v8@@@Nan@@@Z@4HA 000000018002ae82 f   utilities.obj
 0001:00029e90       ?catch$25@?0??_maxColourDistance@@YAXAEBV?$FunctionCallbackInfo@VValue@v8@@@Nan@@@Z@4HA 000000018002ae90 f   utilities.obj
 0001:00029e9d       __catch$?_maxColourDistance@@YAXAEBV?$FunctionCallbackInfo@VValue@v8@@@Nan@@@Z$2 000000018002ae9d f   utilities.obj
 0001:00029eb8       ?dtor$10@?0??_maxColourDistance@@YAXAEBV?$FunctionCallbackInfo@VValue@v8@@@Nan@@@Z@4HA 000000018002aeb8 f   utilities.obj
 0001:00029ec6       ?dtor$11@?0??_maxColourDistance@@YAXAEBV?$FunctionCallbackInfo@VValue@v8@@@Nan@@@Z@4HA 000000018002aec6 f   utilities.obj
 0001:00029ed4       ?dtor$13@?0??_maxColourDistance@@YAXAEBV?$FunctionCallbackInfo@VValue@v8@@@Nan@@@Z@4HA 000000018002aed4 f   utilities.obj
 0001:00029ee2       ?dtor$14@?0??_maxColourDistance@@YAXAEBV?$FunctionCallbackInfo@VValue@v8@@@Nan@@@Z@4HA 000000018002aee2 f   utilities.obj
 0001:00029ef0       ?dtor$16@?0??_maxColourDistance@@YAXAEBV?$FunctionCallbackInfo@VValue@v8@@@Nan@@@Z@4HA 000000018002aef0 f   utilities.obj
 0001:00029efe       ?catch$24@?0??_maxColourDistance@@YAXAEBV?$FunctionCallbackInfo@VValue@v8@@@Nan@@@Z@4HA 000000018002aefe f   utilities.obj
 0001:00029f0b       __catch$?_maxColourDistance@@YAXAEBV?$FunctionCallbackInfo@VValue@v8@@@Nan@@@Z$4 000000018002af0b f   utilities.obj
 0001:00029f37       ?dtor$17@?0??_maxColourDistance@@YAXAEBV?$FunctionCallbackInfo@VValue@v8@@@Nan@@@Z@4HA 000000018002af37 f   utilities.obj
 0001:00029f45       ?fin$0@?0???_M@YAXPEAX_K1P6AX0@Z@Z@4HA 000000018002af45 f   LIBCMT:ehvecdtr.obj
 0001:00029f71       ?filt$0@?0??__ArrayUnwind@@YAXPEAX_K1P6AX0@Z@Z@4HA 000000018002af71 f   LIBCMT:ehvecdtr.obj
 0001:00029fb2       ?fin$0@?0??dllmain_crt_process_attach@@YAHQEAUHINSTANCE__@@QEAX@Z@4HA 000000018002afb2 f   LIBCMT:dll_dllmain.obj
 0001:00029fc9       ?fin$0@?0??dllmain_crt_process_detach@@YAH_N@Z@4HA 000000018002afc9 f   LIBCMT:dll_dllmain.obj
 0001:00029fe5       ?filt$0@?0??dllmain_dispatch@@YAHQEAUHINSTANCE__@@KQEAX@Z@4HA 000000018002afe5 f   LIBCMT:dll_dllmain.obj
 0001:0002a01b       __scrt_is_nonwritable_in_current_image$filt$0 000000018002b01b f   LIBCMT:utility.obj
 0001:0002a033       __CxxCallCatchBlock$filt$0 000000018002b033 f   libvcruntime:frame.obj
 0001:0002a058       __CxxCallCatchBlock$fin$1  000000018002b058 f   libvcruntime:frame.obj
 0001:0002a0d0       __DestructExceptionObject$filt$0 000000018002b0d0 f   libvcruntime:frame.obj
 0001:0002a0e8       __FrameUnwindToState$filt$0 000000018002b0e8 f   libvcruntime:frame.obj
 0001:0002a0fe       __FrameUnwindToState$fin$1 000000018002b0fe f   libvcruntime:frame.obj
 0001:0002a121       _CallSETranslator$filt$0   000000018002b121 f   libvcruntime:trnsctrl.obj
 0001:0002a16d       _query_new_handler$fin$0   000000018002b16d f   libucrt:new_handler.obj
 0001:0002a183       ?filt$0@?0??common_exit@@YAXHW4_crt_exit_cleanup_mode@@W4_crt_exit_return_mode@@@Z@4HA 000000018002b183 f   libucrt:exit.obj
 0001:0002a19e       ?fin$1@?0??common_exit@@YAXHW4_crt_exit_cleanup_mode@@W4_crt_exit_return_mode@@@Z@4HA 000000018002b19e f   libucrt:exit.obj
 0001:0002a1b7       ?fin$0@?0???$?RV<lambda_e24bbb7b643b32fcea6fa61b31d4c984>@@AEAV<lambda_275893d493268fdec8709772e3fcec0e>@@V<lambda_9d71df4d7cf3f480f8d633942495c3b0>@@@?$__crt_seh_guarded_call@H@@QEAAH$$QEAV<lambda_e24bbb7b643b32fcea6fa61b31d4c984>@@AEAV<lambda_275893d493268fdec8709772e3fcec0e>@@$$QEAV<lambda_9d71df4d7cf3f480f8d633942495c3b0>@@@Z@4HA 000000018002b1b7 f   libucrt:onexit.obj
 0001:0002a1d4       ?fin$0@?0???$?RV<lambda_7b91131dde12e1c3dfc74ff76b3f2eac>@@AEAV<lambda_dd75445284c072d0bd3768540cc698fa>@@V<lambda_16bc4ecb55b4718497c16bceaea2ceaf>@@@?$__crt_seh_guarded_call@H@@QEAAH$$QEAV<lambda_7b91131dde12e1c3dfc74ff76b3f2eac>@@AEAV<lambda_dd75445284c072d0bd3768540cc698fa>@@$$QEAV<lambda_16bc4ecb55b4718497c16bceaea2ceaf>@@@Z@4HA 000000018002b1d4 f   libucrt:output.obj
 0001:0002a1d4       ?fin$0@?0???$?RV<lambda_7a5ef57ff966f610505f1d28a3d40618>@@AEAV<lambda_b721fa326cdb32351d23dfa67958c160>@@V<lambda_5e0fb27672408a07956fe59e48ccb2aa>@@@?$__crt_seh_guarded_call@H@@QEAAH$$QEAV<lambda_7a5ef57ff966f610505f1d28a3d40618>@@AEAV<lambda_b721fa326cdb32351d23dfa67958c160>@@$$QEAV<lambda_5e0fb27672408a07956fe59e48ccb2aa>@@@Z@4HA 000000018002b1d4 f   libucrt:setvbuf.obj
 0001:0002a1ef       common_flush_all$fin$0     000000018002b1ef f   libucrt:fflush.obj
 0001:0002a209       common_flush_all$fin$1     000000018002b209 f   libucrt:fflush.obj
 0001:0002a222       raise$fin$0                000000018002b222 f   libucrt:signal.obj
 0001:0002a246       ?fin$0@?0???$?RV<lambda_46352004c1216016012b18bd6f87e700>@@AEAV<lambda_3bd07e1a1191394380780325891bf33f>@@V<lambda_334532d3f185bcaa59b5be82d7d22bff>@@@?$__crt_seh_guarded_call@X@@QEAAX$$QEAV<lambda_46352004c1216016012b18bd6f87e700>@@AEAV<lambda_3bd07e1a1191394380780325891bf33f>@@$$QEAV<lambda_334532d3f185bcaa59b5be82d7d22bff>@@@Z@4HA 000000018002b246 f   libucrt:per_thread_data.obj
 0001:0002a246       ?fin$0@?0???$?RV<lambda_b8c45f8f788dd370798f47cfe8ac3a86>@@AEAV<lambda_4e60a939b0d047cfe11ddc22648dfba9>@@V<lambda_332c3edc96d0294ec56c57d38c1cdfd5>@@@?$__crt_seh_guarded_call@H@@QEAAH$$QEAV<lambda_b8c45f8f788dd370798f47cfe8ac3a86>@@AEAV<lambda_4e60a939b0d047cfe11ddc22648dfba9>@@$$QEAV<lambda_332c3edc96d0294ec56c57d38c1cdfd5>@@@Z@4HA 000000018002b246 f   libucrt:onexit.obj
 0001:0002a246       ?fin$0@?0???$?RV<lambda_72d1df2b273a38828b1ce30cbf4cdab5>@@AEAV<lambda_876a65b173b8412d3a47c70a915b0cf4>@@V<lambda_41932305e351933ebe8f8be3ed8bb5dc>@@@?$__crt_seh_guarded_call@X@@QEAAX$$QEAV<lambda_72d1df2b273a38828b1ce30cbf4cdab5>@@AEAV<lambda_876a65b173b8412d3a47c70a915b0cf4>@@$$QEAV<lambda_41932305e351933ebe8f8be3ed8bb5dc>@@@Z@4HA 000000018002b246 f   libucrt:per_thread_data.obj
 0001:0002a246       ?fin$0@?0???$?RV<lambda_5e887d1dcbef67a5eb4283622ba103bf>@@AEAV<lambda_4466841279450cc726390878d4a41900>@@V<lambda_341c25c0346d94847f1f3c463c57e077>@@@?$__crt_seh_guarded_call@X@@QEAAX$$QEAV<lambda_5e887d1dcbef67a5eb4283622ba103bf>@@AEAV<lambda_4466841279450cc726390878d4a41900>@@$$QEAV<lambda_341c25c0346d94847f1f3c463c57e077>@@@Z@4HA 000000018002b246 f   libucrt:per_thread_data.obj
 0001:0002a246       ?fin$0@?0???$?RV<lambda_fb3a7dec4e47f37f22dae91bb15c9095>@@AEAV<lambda_698284760c8add0bfb0756c19673e34b>@@V<lambda_dfb8eca1e75fef3034a8fb18dd509707>@@@?$__crt_seh_guarded_call@X@@QEAAX$$QEAV<lambda_fb3a7dec4e47f37f22dae91bb15c9095>@@AEAV<lambda_698284760c8add0bfb0756c19673e34b>@@$$QEAV<lambda_dfb8eca1e75fef3034a8fb18dd509707>@@@Z@4HA 000000018002b246 f   libucrt:per_thread_data.obj
 0001:0002a246       ?fin$0@?0???$?RV<lambda_99476a1ad63dd22509b5d3e65b0ffc95>@@AEAV<lambda_ad1ced32f4ac17aa236e5ef05d6b3b7c>@@V<lambda_f7424dd8d45958661754dc4f2697e9c3>@@@?$__crt_seh_guarded_call@X@@QEAAX$$QEAV<lambda_99476a1ad63dd22509b5d3e65b0ffc95>@@AEAV<lambda_ad1ced32f4ac17aa236e5ef05d6b3b7c>@@$$QEAV<lambda_f7424dd8d45958661754dc4f2697e9c3>@@@Z@4HA 000000018002b246 f   libucrt:mbctype.obj
 0001:0002a246       ?fin$0@?0???$?RV<lambda_c36588078e9f5dfd39652860aa6b3aaf>@@AEAV<lambda_ec61778202f4f5fc7e7711acc23c3bca>@@V<lambda_dc9d2797ccde5d239b4a0efae8ebd7db>@@@?$__crt_seh_guarded_call@P6AXH@Z@@QEAAP6AXH@Z$$QEAV<lambda_c36588078e9f5dfd39652860aa6b3aaf>@@AEAV<lambda_ec61778202f4f5fc7e7711acc23c3bca>@@$$QEAV<lambda_dc9d2797ccde5d239b4a0efae8ebd7db>@@@Z@4HA 000000018002b246 f   libucrt:signal.obj
 0001:0002a260       __acrt_update_thread_locale_data$fin$0 000000018002b260 f   libucrt:locale_refcounting.obj
 0001:0002a260       __acrt_uninitialize_locale$fin$0 000000018002b260 f   libucrt:wsetlocale.obj
 0001:0002a279       __acrt_update_thread_multibyte_data$fin$0 000000018002b279 f   libucrt:mbctype.obj
 0001:0002a292       __acrt_initialize_lowio$fin$0 000000018002b292 f   libucrt:ioinit.obj
 0001:0002a292       __acrt_lowio_ensure_fh_exists$fin$0 000000018002b292 f   libucrt:osfinfo.obj
 0001:0002a2ab       _fcloseall$fin$0           000000018002b2ab f   libucrt:closeall.obj
 0001:0002a2c4       ?fin$0@?0???$?RV<lambda_bfedae4ebbf01fab1bb6dcc6a9e276e0>@@AEAV<lambda_2fe9b910cf3cbf4a0ab98a02ba45b3ec>@@V<lambda_237c231691f317818eb88cc1d5d642d6>@@@?$__crt_seh_guarded_call@H@@QEAAH$$QEAV<lambda_bfedae4ebbf01fab1bb6dcc6a9e276e0>@@AEAV<lambda_2fe9b910cf3cbf4a0ab98a02ba45b3ec>@@$$QEAV<lambda_237c231691f317818eb88cc1d5d642d6>@@@Z@4HA 000000018002b2c4 f   libucrt:close.obj
 0001:0002a2c4       ?fin$0@?0???$?RV<lambda_b521505b218e5242e90febf6bfebc422>@@AEAV<lambda_6978c1fb23f02e42e1d9e99668cc68aa>@@V<lambda_314360699dd331753a4119843814e9a7>@@@?$__crt_seh_guarded_call@H@@QEAAH$$QEAV<lambda_b521505b218e5242e90febf6bfebc422>@@AEAV<lambda_6978c1fb23f02e42e1d9e99668cc68aa>@@$$QEAV<lambda_314360699dd331753a4119843814e9a7>@@@Z@4HA 000000018002b2c4 f   libucrt:commit.obj
 0001:0002a2de       common_control87$filt$0    000000018002b2de f   libucrt:ieee.obj
 0001:0002a2de       _ctrlfp$filt$0             000000018002b2de f   libucrt:fpctrl.obj
 0001:0002a30a       fclose$fin$0               000000018002b30a f   libucrt:fclose.obj
 0001:0002a30a       fflush$fin$0               000000018002b30a f   libucrt:fflush.obj
 0001:0002a322       ?fin$0@?0???$common_lseek@_J@@YA_JH_JH@Z@4HA 000000018002b322 f   libucrt:lseek.obj
 0001:0002a322       _write$fin$0               000000018002b322 f   libucrt:write.obj
 0001:0002a340       _IsNonwritableInCurrentImage$filt$0 000000018002b340 f   LIBCMT:pesect.obj
 0002:00000248       .idata$5                   000000018002c248     libglib-2.0:dgoks00074.o
 0002:00000250       .idata$5                   000000018002c250     libglib-2.0:dgoks00077.o
 0002:00000258       .idata$5                   000000018002c258     libglib-2.0:dgoks00380.o
 0002:00000260       .idata$5                   000000018002c260     libglib-2.0:dgoks00673.o
 0002:00000268       .idata$5                   000000018002c268     libglib-2.0:dgoks01081.o
 0002:00000270       .idata$5                   000000018002c270     libglib-2.0:dgoks01122.o
 0002:00000280       .idata$5                   000000018002c280     libvips:dmrks00870.o
 0002:00000288       .idata$5                   000000018002c288     libvips:dmrks00939.o
 0002:00000290       .idata$5                   000000018002c290     libvips:dmrks00940.o
 0002:00000298       .idata$5                   000000018002c298     libvips:dmrks00985.o
 0002:000002a0       .idata$5                   000000018002c2a0     libvips:dmrks00986.o
 0002:000002a8       .idata$5                   000000018002c2a8     libvips:dmrks00987.o
 0002:000002b0       .idata$5                   000000018002c2b0     libvips:dmrks00988.o
 0002:000002b8       .idata$5                   000000018002c2b8     libvips:dmrks00996.o
 0002:000002c0       .idata$5                   000000018002c2c0     libvips:dmrks00997.o
 0002:000002c8       .idata$5                   000000018002c2c8     libvips:dmrks00998.o
 0002:000002d0       .idata$5                   000000018002c2d0     libvips:dmrks01102.o
 0002:000002d8       .idata$5                   000000018002c2d8     libvips:dmrks01103.o
 0002:000002e0       .idata$5                   000000018002c2e0     libvips:dmrks01175.o
 0002:000002e8       .idata$5                   000000018002c2e8     libvips:dmrks01176.o
 0002:000002f0       .idata$5                   000000018002c2f0     libvips:dmrks01186.o
 0002:000002f8       .idata$5                   000000018002c2f8     libvips:dmrks01229.o
 0002:00000300       .idata$5                   000000018002c300     libvips:dmrks01230.o
 0002:00000308       .idata$5                   000000018002c308     libvips:dmrks01338.o
 0002:00000310       .idata$5                   000000018002c310     libvips:dmrks01465.o
 0002:00000318       .idata$5                   000000018002c318     libvips:dmrks01486.o
 0002:00000320       .idata$5                   000000018002c320     libvips:dmrks01506.o
 0002:00000328       .idata$5                   000000018002c328     libvips:dmrks01524.o
 0002:00000330       .idata$5                   000000018002c330     libvips:dmrks01662.o
 0002:00000338       .idata$5                   000000018002c338     libvips:dmrks01887.o
 0002:00000340       .idata$5                   000000018002c340     libvips:dmrks01903.o
 0002:00000348       .idata$5                   000000018002c348     libvips:dmrks01904.o
 0002:00000350       .idata$5                   000000018002c350     libvips:dmrks01905.o
 0002:00000358       .idata$5                   000000018002c358     libvips:dmrks01909.o
 0002:00000360       .idata$5                   000000018002c360     libvips:dmrks01946.o
 0002:00000368       .idata$5                   000000018002c368     libvips:dmrks01950.o
 0002:00000370       .idata$5                   000000018002c370     libvips:dmrks01957.o
 0002:000009f8       GS_ExceptionPointers       000000018002c9f8     LIBCMT:gs_report.obj
 0002:00000a70       ?ExceptionTemplate@?1??_CxxThrowException@@9@4UEHExceptionRecord@@B 000000018002ca70     libvcruntime:throw.obj
 0002:00000ab0       ?ExceptionTemplate@?1??_UnwindNestedFrames@@9@4U_EXCEPTION_RECORD@@B 000000018002cab0     libvcruntime:trnsctrl.obj
 0002:00000b48       ?module_names@?A0x679b24ab@@3QBQEB_WB 000000018002cb48     libvcruntime:winapi_downlevel.obj
 0002:00000c18       ?candidate_modules@?1??try_get_FlsAlloc@@YAP6AKP6AXPEAX@Z@ZXZ@4QBW4module_id@?A0x679b24ab@@B 000000018002cc18     libvcruntime:winapi_downlevel.obj
 0002:00000c30       ?candidate_modules@?1??try_get_FlsFree@@YAP6AHK@ZXZ@4QBW4module_id@?A0x679b24ab@@B 000000018002cc30     libvcruntime:winapi_downlevel.obj
 0002:00000c40       ?candidate_modules@?1??try_get_FlsGetValue@@YAP6APEAXK@ZXZ@4QBW4module_id@?A0x679b24ab@@B 000000018002cc40     libvcruntime:winapi_downlevel.obj
 0002:00000c58       ?candidate_modules@?1??try_get_FlsSetValue@@YAP6AHKPEAX@ZXZ@4QBW4module_id@?A0x679b24ab@@B 000000018002cc58     libvcruntime:winapi_downlevel.obj
 0002:00000c70       ?candidate_modules@?1??try_get_InitializeCriticalSectionEx@@YAP6AHPEAU_RTL_CRITICAL_SECTION@@KK@ZXZ@4QBW4module_id@?A0x679b24ab@@B 000000018002cc70     libvcruntime:winapi_downlevel.obj
 0002:00000ca0       ?tokenTable@@3QBQEBDB      000000018002cca0     libvcruntime:undname.obj
 0002:00000d10       ?nameTable@@3QBQEBDB       000000018002cd10     libvcruntime:undname.obj
 0002:00000f98       ?rttiTable@@3QBQEBDB       000000018002cf98     libvcruntime:undname.obj
 0002:000019f0       __acrt_initializers        000000018002d9f0     libucrt:initialization.obj
 0002:00001b58       ?mask@?3??_d_int@@9@9      000000018002db58     libucrt:_test.obj
 0002:00001b78       ?sub@?3??_d_int@@9@9       000000018002db78     libucrt:_test.obj
 0002:00001ba0       errtable                   000000018002dba0     libucrt:errno.obj
 0002:00002390       module_names               000000018002e390     libucrt:winapi_thunks.obj
 0002:000028c0       ?candidate_modules@?1??try_get_FlsAlloc@@YAP6AKP6AXPEAX@Z@ZXZ@4QBW4module_id@?A0x63058377@@B 000000018002e8c0     libucrt:winapi_thunks.obj
 0002:000028c8       ?candidate_modules@?1??try_get_FlsFree@@YAP6AHK@ZXZ@4QBW4module_id@?A0x63058377@@B 000000018002e8c8     libucrt:winapi_thunks.obj
 0002:000028d0       ?candidate_modules@?1??try_get_FlsGetValue@@YAP6APEAXK@ZXZ@4QBW4module_id@?A0x63058377@@B 000000018002e8d0     libucrt:winapi_thunks.obj
 0002:000028d8       ?candidate_modules@?1??try_get_FlsSetValue@@YAP6AHKPEAX@ZXZ@4QBW4module_id@?A0x63058377@@B 000000018002e8d8     libucrt:winapi_thunks.obj
 0002:000028e0       ?candidate_modules@?1??try_get_GetActiveWindow@@YAP6APEAUHWND__@@XZXZ@4QBW4module_id@?A0x63058377@@B 000000018002e8e0     libucrt:winapi_thunks.obj
 0002:000028f8       ?candidate_modules@?1??try_get_GetCurrentPackageId@@YAP6AJPEAIPEAE@ZXZ@4QBW4module_id@?A0x63058377@@B 000000018002e8f8     libucrt:winapi_thunks.obj
 0002:00002918       ?candidate_modules@?1??try_get_GetLastActivePopup@@YAP6APEAUHWND__@@PEAU2@@ZXZ@4QBW4module_id@?A0x63058377@@B 000000018002e918     libucrt:winapi_thunks.obj
 0002:00002938       ?candidate_modules@?1??try_get_GetProcessWindowStation@@YAP6APEAUHWINSTA__@@XZXZ@4QBW4module_id@?A0x63058377@@B 000000018002e938     libucrt:winapi_thunks.obj
 0002:00002958       ?candidate_modules@?1??try_get_GetUserObjectInformationW@@YAP6AHPEAXH0KPEAK@ZXZ@4QBW4module_id@?A0x63058377@@B 000000018002e958     libucrt:winapi_thunks.obj
 0002:00002980       ?candidate_modules@?1??try_get_InitializeCriticalSectionEx@@YAP6AHPEAU_RTL_CRITICAL_SECTION@@KK@ZXZ@4QBW4module_id@?A0x63058377@@B 000000018002e980     libucrt:winapi_thunks.obj
 0002:00002988       ?candidate_modules@?1??try_get_LCMapStringEx@@YAP6AHPEB_WK0HPEA_WHPEAU_nlsversioninfo@@PEAX_J@ZXZ@4QBW4module_id@?A0x63058377@@B 000000018002e988     libucrt:winapi_thunks.obj
 0002:000029a0       ?candidate_modules@?1??try_get_LocaleNameToLCID@@YAP6AKPEB_WK@ZXZ@4QBW4module_id@?A0x63058377@@B 000000018002e9a0     libucrt:winapi_thunks.obj
 0002:000029c0       ?candidate_modules@?1??try_get_MessageBoxA@@YAP6AHPEAUHWND__@@PEBD1I@ZXZ@4QBW4module_id@?A0x63058377@@B 000000018002e9c0     libucrt:winapi_thunks.obj
 0002:000029d8       ?candidate_modules@?1??try_get_MessageBoxW@@YAP6AHPEAUHWND__@@PEB_W1I@ZXZ@4QBW4module_id@?A0x63058377@@B 000000018002e9d8     libucrt:winapi_thunks.obj
 0002:000029f0       _mb_locale_names           000000018002e9f0     libucrt:mbctype.obj
 0002:000032c0       LcidToLocaleNameTable      000000018002f2c0     libucrt:lcidtoname_downlevel.obj
 0002:00004d20       LocaleNameToIndexTable     0000000180030d20     libucrt:lcidtoname_downlevel.obj
 0002:00006fb0       __real@433fffffffffffff    0000000180032fb0     libucrt:fpsr.obj
 0002:00006fb8       __real@c33fffffffffffff    0000000180032fb8     libucrt:fpsr.obj
 0002:00006fc0       __real_ninf                0000000180032fc0     libucrt:log10.obj
 0002:00006fd0       __real_inf                 0000000180032fd0     libucrt:log10.obj
 0002:00006fe0       __real_neg_qnan            0000000180032fe0     libucrt:log10.obj
 0002:00006ff0       __real_qnanbit             0000000180032ff0     libucrt:log10.obj
 0002:00007000       __int_1023                 0000000180033000     libucrt:log10.obj
 0002:00007010       __mask_001                 0000000180033010     libucrt:log10.obj
 0002:00007020       __mask_mant                0000000180033020     libucrt:log10.obj
 0002:00007030       __mask_mant_top8           0000000180033030     libucrt:log10.obj
 0002:00007040       __mask_mant9               0000000180033040     libucrt:log10.obj
 0002:00007050       __real_log10_e             0000000180033050     libucrt:log10.obj
 0002:00007060       __real_log10_e_lead        0000000180033060     libucrt:log10.obj
 0002:00007070       __real_log10_e_tail        0000000180033070     libucrt:log10.obj
 0002:00007080       __real_log10_2_lead        0000000180033080     libucrt:log10.obj
 0002:00007090       __real_log10_2_tail        0000000180033090     libucrt:log10.obj
 0002:000070a0       __real_two                 00000001800330a0     libucrt:log10.obj
 0002:000070b0       __real_one                 00000001800330b0     libucrt:log10.obj
 0002:000070c0       __real_half                00000001800330c0     libucrt:log10.obj
 0002:000070d0       __mask_100                 00000001800330d0     libucrt:log10.obj
 0002:000070e0       __real_1_over_512          00000001800330e0     libucrt:log10.obj
 0002:000070f0       __real_1_over_2            00000001800330f0     libucrt:log10.obj
 0002:00007100       __real_1_over_3            0000000180033100     libucrt:log10.obj
 0002:00007110       __real_1_over_4            0000000180033110     libucrt:log10.obj
 0002:00007120       __real_1_over_5            0000000180033120     libucrt:log10.obj
 0002:00007130       __real_1_over_6            0000000180033130     libucrt:log10.obj
 0002:00007140       __real_neg_1023            0000000180033140     libucrt:log10.obj
 0002:00007150       __mask_2045                0000000180033150     libucrt:log10.obj
 0002:00007160       __real_threshold           0000000180033160     libucrt:log10.obj
 0002:00007170       __real_near_one_lt         0000000180033170     libucrt:log10.obj
 0002:00007180       __real_near_one_gt         0000000180033180     libucrt:log10.obj
 0002:00007190       __real_min_norm            0000000180033190     libucrt:log10.obj
 0002:000071a0       __real_notsign             00000001800331a0     libucrt:log10.obj
 0002:000071b0       __real_ca1                 00000001800331b0     libucrt:log10.obj
 0002:000071c0       __real_ca2                 00000001800331c0     libucrt:log10.obj
 0002:000071d0       __real_ca3                 00000001800331d0     libucrt:log10.obj
 0002:000071e0       __real_ca4                 00000001800331e0     libucrt:log10.obj
 0002:000071f0       __mask_lower               00000001800331f0     libucrt:log10.obj
 0002:00007200       __flag_x_zero              0000000180033200     libucrt:log10.obj
 0002:00007204       __flag_x_neg               0000000180033204     libucrt:log10.obj
 0002:00007208       __flag_x_nan               0000000180033208     libucrt:log10.obj
 0002:00009aa0       ?piecewise_construct@std@@3Upiecewise_construct_t@1@B 0000000180035aa0     pipeline.obj
 0002:00009cf8       $cppxdata$??$AttrTo@I@sharp@@YAIV?$Local@VObject@v8@@@v8@@V?$basic_string@DU?$char_traits@D@std@@V?$allocator@D@2@@std@@@Z 0000000180035cf8     common.obj
 0002:00009d20       $cppxdata$??$AttrAs@VFunction@v8@@@sharp@@YA?AV?$Local@VFunction@v8@@@v8@@V?$Local@VObject@v8@@@2@V?$basic_string@DU?$char_traits@D@std@@V?$allocator@D@2@@std@@@Z 0000000180035d20     pipeline.obj
 0002:00009d20       $cppxdata$??$AttrAs@VObject@v8@@@sharp@@YA?AV?$Local@VObject@v8@@@v8@@V12@V?$basic_string@DU?$char_traits@D@std@@V?$allocator@D@2@@std@@@Z 0000000180035d20     common.obj
 0002:00009d20       $cppxdata$??$AttrAs@VArray@v8@@@sharp@@YA?AV?$Local@VArray@v8@@@v8@@V?$Local@VObject@v8@@@2@V?$basic_string@DU?$char_traits@D@std@@V?$allocator@D@2@@std@@@Z 0000000180035d20     pipeline.obj
 0002:00009d48       $cppxdata$??$New@VString@v8@@V?$basic_string@DU?$char_traits@D@std@@V?$allocator@D@2@@std@@@Nan@@YA?AV?$MaybeLocal@VString@v8@@@v8@@V?$basic_string@DU?$char_traits@D@std@@V?$allocator@D@2@@std@@@Z 0000000180035d48     common.obj
 0002:00009d70       $cppxdata$?GetRgbaAsColourspace@sharp@@YA?AV?$vector@NV?$allocator@N@std@@@std@@V23@W4VipsInterpretation@@@Z 0000000180035d70     common.obj
 0002:00009d98       $cppxdata$?SetDensity@sharp@@YAXVVImage@vips@@H@Z 0000000180035d98     common.obj
 0002:00009dc0       $cppxdata$?RemoveExifOrientation@sharp@@YAXVVImage@vips@@@Z 0000000180035dc0     common.obj
 0002:00009de8       $cppxdata$?HasAlpha@sharp@@YA_NVVImage@vips@@@Z 0000000180035de8     common.obj
 0002:00009e10       $cppxdata$?HasProfile@sharp@@YA_NVVImage@vips@@@Z 0000000180035e10     common.obj
 0002:00009e38       $cppxdata$?OpenInput@sharp@@YA?AV?$tuple@VVImage@vips@@W4ImageType@sharp@@@std@@PEAUInputDescriptor@1@W4VipsAccess@@@Z 0000000180035e38     common.obj
 0002:00009e60       $cppxdata$?DetermineImageType@sharp@@YA?AW4ImageType@1@PEBD@Z 0000000180035e60     common.obj
 0002:00009e88       $cppxdata$?DetermineImageType@sharp@@YA?AW4ImageType@1@PEAX_K@Z 0000000180035e88     common.obj
 0002:00009eb0       $cppxdata$?ImageTypeId@sharp@@YA?AV?$basic_string@DU?$char_traits@D@std@@V?$allocator@D@2@@std@@W4ImageType@1@@Z 0000000180035eb0     common.obj
 0002:00009ed8       $cppxdata$?IsV@sharp@@YA_NAEBV?$basic_string@DU?$char_traits@D@std@@V?$allocator@D@2@@std@@@Z 0000000180035ed8     common.obj
 0002:00009f00       $cppxdata$?IsDzZip@sharp@@YA_NAEBV?$basic_string@DU?$char_traits@D@std@@V?$allocator@D@2@@std@@@Z 0000000180035f00     common.obj
 0002:00009f28       $cppxdata$?IsDz@sharp@@YA_NAEBV?$basic_string@DU?$char_traits@D@std@@V?$allocator@D@2@@std@@@Z 0000000180035f28     common.obj
 0002:00009f50       $cppxdata$?IsTiff@sharp@@YA_NAEBV?$basic_string@DU?$char_traits@D@std@@V?$allocator@D@2@@std@@@Z 0000000180035f50     common.obj
 0002:00009f78       $cppxdata$?IsWebp@sharp@@YA_NAEBV?$basic_string@DU?$char_traits@D@std@@V?$allocator@D@2@@std@@@Z 0000000180035f78     common.obj
 0002:00009fa0       $cppxdata$?IsPng@sharp@@YA_NAEBV?$basic_string@DU?$char_traits@D@std@@V?$allocator@D@2@@std@@@Z 0000000180035fa0     common.obj
 0002:00009fc8       $cppxdata$?IsJpeg@sharp@@YA_NAEBV?$basic_string@DU?$char_traits@D@std@@V?$allocator@D@2@@std@@@Z 0000000180035fc8     common.obj
 0002:00009ff0       $cppxdata$?CreateInputDescriptor@sharp@@YAPEAUInputDescriptor@1@V?$Local@VObject@v8@@@v8@@V?$vector@V?$Local@VObject@v8@@@v8@@V?$allocator@V?$Local@VObject@v8@@@v8@@@std@@@std@@@Z 0000000180035ff0     common.obj
 0002:0000a018       $cppxdata$?AttrAsStr@sharp@@YA?AV?$basic_string@DU?$char_traits@D@std@@V?$allocator@D@2@@std@@V?$Local@VObject@v8@@@v8@@V23@@Z 0000000180036018     common.obj
 0002:0000a040       $cppxdata$?HasAttr@sharp@@YA_NV?$Local@VObject@v8@@@v8@@V?$basic_string@DU?$char_traits@D@std@@V?$allocator@D@2@@std@@@Z 0000000180036040     common.obj
 0002:0000a068       $cppxdata$??0Utf8String@Nan@@QEAA@V?$Local@VValue@v8@@@v8@@@Z 0000000180036068     common.obj
 0002:0000a090       $cppxdata$?convert@?$ToFactory@I@imp@Nan@@SA?AV?$Maybe@I@3@V?$Local@VValue@v8@@@v8@@@Z 0000000180036090     common.obj
 0002:0000a0b8       $cppxdata$?Has@Nan@@YA?AV?$Maybe@_N@1@V?$Local@VObject@v8@@@v8@@V?$Local@VString@v8@@@4@@Z 00000001800360b8     common.obj
 0002:0000a0e0       $cppxdata$?Get@Nan@@YA?AV?$MaybeLocal@VValue@v8@@@v8@@V?$Local@VObject@v8@@@3@V?$Local@VValue@v8@@@3@@Z 00000001800360e0     common.obj
 0002:0000a220       $cppxdata$??$_Accumulate_unchecked@PEBV?$Local@VObject@v8@@@v8@@HV<lambda_9252aa89fe9814f85e2a072fe573e6da>@@@std@@YAHPEBV?$Local@VObject@v8@@@v8@@0HAEAV<lambda_9252aa89fe9814f85e2a072fe573e6da>@@@Z 0000000180036220     metadata.obj
 0002:0000a220       $cppxdata$??$_Accumulate_unchecked@PEBV?$Local@VObject@v8@@@v8@@HV<lambda_1cf14cbc5c28648f7ac9038b3f6db2a5>@@@std@@YAHPEBV?$Local@VObject@v8@@@v8@@0HAEAV<lambda_1cf14cbc5c28648f7ac9038b3f6db2a5>@@@Z 0000000180036220     pipeline.obj
 0002:0000a248       $cppxdata$?metadata@@YAXAEBV?$FunctionCallbackInfo@VValue@v8@@@Nan@@@Z 0000000180036248     metadata.obj
 0002:0000a270       $cppxdata$?Execute@MetadataWorker@@UEAAXXZ 0000000180036270     metadata.obj
 0002:0000a298       $cppxdata$??0MetadataWorker@@QEAA@PEAVCallback@Nan@@PEAUMetadataBaton@@V?$vector@V?$Local@VObject@v8@@@v8@@V?$allocator@V?$Local@VObject@v8@@@v8@@@std@@@std@@@Z 0000000180036298     metadata.obj
 0002:0000a2c0       $cppxdata$??1?$Persistent@VObject@v8@@V?$NonCopyablePersistentTraits@VObject@v8@@@2@@Nan@@QEAA@XZ 00000001800362c0     metadata.obj
 0002:0000a2e8       $cppxdata$?HandleErrorCallback@AsyncWorker@Nan@@MEAAXXZ 00000001800362e8     metadata.obj
 0002:0000a310       $cppxdata$?HandleOKCallback@AsyncWorker@Nan@@MEAAXXZ 0000000180036310     metadata.obj
 0002:0000a338       $cppxdata$?GetFromPersistent@AsyncWorker@Nan@@QEBA?AV?$Local@VValue@v8@@@v8@@I@Z 0000000180036338     metadata.obj
 0002:0000a360       $cppxdata$?WorkComplete@AsyncWorker@Nan@@UEAAXXZ 0000000180036360     metadata.obj
 0002:0000a388       $cppxdata$??1AsyncWorker@Nan@@UEAA@XZ 0000000180036388     metadata.obj
 0002:0000a3b0       $cppxdata$??0AsyncWorker@Nan@@QEAA@PEAVCallback@1@PEBD@Z 00000001800363b0     metadata.obj
 0002:0000a3d8       $cppxdata$?Call_@Callback@Nan@@AEBA?AV?$Local@VValue@v8@@@v8@@PEAVIsolate@4@V?$Local@VObject@v8@@@4@HQEAV34@@Z 00000001800363d8     metadata.obj
 0002:0000a400       $cppxdata$?Call@Callback@Nan@@QEBA?AV?$MaybeLocal@VValue@v8@@@v8@@HQEAV?$Local@VValue@v8@@@4@PEAVAsyncResource@2@@Z 0000000180036400     metadata.obj
 0002:0000a428       $cppxdata$?Call@Callback@Nan@@QEBA?AV?$Local@VValue@v8@@@v8@@HQEAV34@@Z 0000000180036428     metadata.obj
 0002:0000a450       $cppxdata$?Error@Nan@@YA?AV?$Local@VValue@v8@@@v8@@PEBD@Z 0000000180036450     metadata.obj
 0002:0000a478       $cppxdata$?convert@?$ToFactory@VUint32@v8@@@imp@Nan@@SA?AV?$MaybeLocal@VUint32@v8@@@v8@@V?$Local@VValue@v8@@@5@@Z 0000000180036478     metadata.obj
 0002:0000a4a0       $cppxdata$?Get@Nan@@YA?AV?$MaybeLocal@VValue@v8@@@v8@@V?$Local@VObject@v8@@@3@I@Z 00000001800364a0     metadata.obj
 0002:0000a4c8       $cppxdata$?Set@Nan@@YA?AV?$Maybe@_N@1@V?$Local@VObject@v8@@@v8@@IV?$Local@VValue@v8@@@4@@Z 00000001800364c8     metadata.obj
 0002:0000a4f0       $cppxdata$?Set@Nan@@YA?AV?$Maybe@_N@1@V?$Local@VObject@v8@@@v8@@V?$Local@VValue@v8@@@4@1@Z 00000001800364f0     metadata.obj
 0002:0000a518       $cppxdata$?Trim@sharp@@YA?AVVImage@vips@@V23@H@Z 0000000180036518     operations.obj
 0002:0000a540       $cppxdata$?Boolean@sharp@@YA?AVVImage@vips@@V23@0W4VipsOperationBoolean@@@Z 0000000180036540     operations.obj
 0002:0000a568       $cppxdata$?Bandbool@sharp@@YA?AVVImage@vips@@V23@W4VipsOperationBoolean@@@Z 0000000180036568     operations.obj
 0002:0000a590       $cppxdata$?Threshold@sharp@@YA?AVVImage@vips@@V23@N_N@Z 0000000180036590     operations.obj
 0002:0000a5b8       $cppxdata$?TileCache@sharp@@YA?AVVImage@vips@@V23@N@Z 00000001800365b8     operations.obj
 0002:0000a5e0       $cppxdata$?Crop@sharp@@YA?AV?$tuple@HH@std@@VVImage@vips@@HHV?$function@$$A6ANVVImage@vips@@@Z@3@@Z 00000001800365e0     operations.obj
 0002:0000a608       $cppxdata$??RAttentionStrategy@sharp@@QEAANVVImage@vips@@@Z 0000000180036608     operations.obj
 0002:0000a630       $cppxdata$?Sharpen@sharp@@YA?AVVImage@vips@@V23@NNN@Z 0000000180036630     operations.obj
 0002:0000a658       $cppxdata$?Convolve@sharp@@YA?AVVImage@vips@@V23@HHNNAEBV?$unique_ptr@$$BY0A@NU?$default_delete@$$BY0A@N@std@@@std@@@Z 0000000180036658     operations.obj
 0002:0000a680       $cppxdata$?Blur@sharp@@YA?AVVImage@vips@@V23@N@Z 0000000180036680     operations.obj
 0002:0000a6a8       $cppxdata$?Gamma@sharp@@YA?AVVImage@vips@@V23@N@Z 00000001800366a8     operations.obj
 0002:0000a6d0       $cppxdata$?Normalise@sharp@@YA?AVVImage@vips@@V23@@Z 00000001800366d0     operations.obj
 0002:0000a6f8       $cppxdata$?Cutout@sharp@@YA?AVVImage@vips@@V23@0H@Z 00000001800366f8     operations.obj
 0002:0000a720       $cppxdata$?CompositeImage@sharp@@YA?AVVImage@vips@@V23@0@Z 0000000180036720     operations.obj
 0002:0000a748       $cppxdata$?IsInputValidForComposition@sharp@@YA_NVVImage@vips@@0@Z 0000000180036748     operations.obj
 0002:0000a770       $cppxdata$?Composite@sharp@@YA?AVVImage@vips@@V23@0HH@Z 0000000180036770     operations.obj
 0002:0000a798       $cppxdata$?Composite@sharp@@YA?AVVImage@vips@@V23@0H@Z 0000000180036798     operations.obj
 0002:0000a7c0       $cppxdata$??$_Uninitialized_copy_al_unchecked1@PEBU?$pair@V?$basic_string@DU?$char_traits@D@std@@V?$allocator@D@2@@std@@V12@@std@@PEAU12@V?$allocator@U?$pair@V?$basic_string@DU?$char_traits@D@std@@V?$allocator@D@2@@std@@V12@@std@@@2@@std@@YAPEAU?$pair@V?$basic_string@DU?$char_traits@D@std@@V?$allocator@D@2@@std@@V12@@0@PEBU10@0PEAU10@AEAU?$_Wrap_alloc@V?$allocator@U?$pair@V?$basic_string@DU?$char_traits@D@std@@V?$allocator@D@2@@std@@V12@@std@@@std@@@0@U_General_ptr_iterator_tag@0@U_Any_tag@0@@Z 00000001800367c0     pipeline.obj
 0002:0000a7e8       $cppxdata$?_Do_call@?$_Func_impl@UEntropyStrategy@sharp@@V?$allocator@H@std@@NVVImage@vips@@@std@@EEAAN$$QEAVVImage@vips@@@Z 00000001800367e8     pipeline.obj
 0002:0000a810       $cppxdata$??$AttrTo@N@sharp@@YANV?$Local@VObject@v8@@@v8@@V?$basic_string@DU?$char_traits@D@std@@V?$allocator@D@2@@std@@@Z 0000000180036810     pipeline.obj
 0002:0000a838       $cppxdata$??$AttrTo@H@sharp@@YAHV?$Local@VObject@v8@@@v8@@V?$basic_string@DU?$char_traits@D@std@@V?$allocator@D@2@@std@@@Z 0000000180036838     pipeline.obj
 0002:0000a860       $cppxdata$??$AttrTo@_N@sharp@@YA_NV?$Local@VObject@v8@@@v8@@V?$basic_string@DU?$char_traits@D@std@@V?$allocator@D@2@@std@@@Z 0000000180036860     pipeline.obj
 0002:0000a888       $cppxdata$??$?HDU?$char_traits@D@std@@V?$allocator@D@1@@std@@YA?AV?$basic_string@DU?$char_traits@D@std@@V?$allocator@D@2@@0@PEBDAEBV10@@Z 0000000180036888     pipeline.obj
 0002:0000a8b0       $cppxdata$??$?0AEAY0BA@$$CBDAEAY04$$CBDX$0A@@?$pair@V?$basic_string@DU?$char_traits@D@std@@V?$allocator@D@2@@std@@V12@@std@@QEAA@AEAY0BA@$$CBDAEAY04$$CBD@Z 00000001800368b0     pipeline.obj
 0002:0000a8d8       $cppxdata$??$?0AEAY0P@$$CBDPEBDX$0A@@?$pair@V?$basic_string@DU?$char_traits@D@std@@V?$allocator@D@2@@std@@V12@@std@@QEAA@AEAY0P@$$CBD$$QEAPEBD@Z 00000001800368d8     pipeline.obj
 0002:0000a900       $cppxdata$??$?0AEAY0BE@$$CBDPEBDX$0A@@?$pair@V?$basic_string@DU?$char_traits@D@std@@V?$allocator@D@2@@std@@V12@@std@@QEAA@AEAY0BE@$$CBD$$QEAPEBD@Z 0000000180036900     pipeline.obj
 0002:0000a928       $cppxdata$??$?0AEAY0O@$$CBDPEBDX$0A@@?$pair@V?$basic_string@DU?$char_traits@D@std@@V?$allocator@D@2@@std@@V12@@std@@QEAA@AEAY0O@$$CBD$$QEAPEBD@Z 0000000180036928     pipeline.obj
 0002:0000a950       $cppxdata$??$?0AEAY0N@$$CBDPEBDX$0A@@?$pair@V?$basic_string@DU?$char_traits@D@std@@V?$allocator@D@2@@std@@V12@@std@@QEAA@AEAY0N@$$CBD$$QEAPEBD@Z 0000000180036950     pipeline.obj
 0002:0000a978       $cppxdata$??$?0AEAY06$$CBDPEBDX$0A@@?$pair@V?$basic_string@DU?$char_traits@D@std@@V?$allocator@D@2@@std@@V12@@std@@QEAA@AEAY06$$CBD$$QEAPEBD@Z 0000000180036978     pipeline.obj
 0002:0000a9a0       $cppxdata$??$?0AEAY09$$CBDPEBDX$0A@@?$pair@V?$basic_string@DU?$char_traits@D@std@@V?$allocator@D@2@@std@@V12@@std@@QEAA@AEAY09$$CBD$$QEAPEBD@Z 00000001800369a0     pipeline.obj
 0002:0000a9c8       $cppxdata$??$?HDU?$char_traits@D@std@@V?$allocator@D@1@@std@@YA?AV?$basic_string@DU?$char_traits@D@std@@V?$allocator@D@2@@0@AEBV10@PEBD@Z 00000001800369c8     pipeline.obj
 0002:0000a9f0       $cppxdata$?pipeline@@YAXAEBV?$FunctionCallbackInfo@VValue@v8@@@Nan@@@Z 00000001800369f0     pipeline.obj
 0002:0000aa18       $cppxdata$?AssembleSuffixString@PipelineWorker@@AEAA?AV?$basic_string@DU?$char_traits@D@std@@V?$allocator@D@2@@std@@V23@V?$vector@U?$pair@V?$basic_string@DU?$char_traits@D@std@@V?$allocator@D@2@@std@@V12@@std@@V?$allocator@U?$pair@V?$basic_string@DU?$char_traits@D@std@@V?$allocator@D@2@@std@@V12@@std@@@2@@3@@Z 0000000180036a18     pipeline.obj
 0002:0000aa40       $cppxdata$?CalculateRotationAndFlip@PipelineWorker@@AEAA?AV?$tuple@W4VipsAngle@@_N_N@std@@HVVImage@vips@@@Z 0000000180036a40     pipeline.obj
 0002:0000aa68       $cppxdata$?HandleOKCallback@PipelineWorker@@UEAAXXZ 0000000180036a68     pipeline.obj
 0002:0000aa90       $cppxdata$?Execute@PipelineWorker@@UEAAXXZ 0000000180036a90     pipeline.obj
 0002:0000aab8       $cppxdata$??0PipelineWorker@@QEAA@PEAVCallback@Nan@@PEAUPipelineBaton@@0V?$vector@V?$Local@VObject@v8@@@v8@@V?$allocator@V?$Local@VObject@v8@@@v8@@@std@@@std@@@Z 0000000180036ab8     pipeline.obj
 0002:0000aae0       $cppxdata$??0PipelineBaton@@QEAA@XZ 0000000180036ae0     pipeline.obj
 0002:0000ab08       $cppxdata$?convert@?$ToFactory@_N@imp@Nan@@SA?AV?$Maybe@_N@3@V?$Local@VValue@v8@@@v8@@@Z 0000000180036b08     pipeline.obj
 0002:0000ab30       $cppxdata$?convert@?$ToFactory@H@imp@Nan@@SA?AV?$Maybe@H@3@V?$Local@VValue@v8@@@v8@@@Z 0000000180036b30     pipeline.obj
 0002:0000ab58       $cppxdata$?convert@?$ToFactory@N@imp@Nan@@SA?AV?$Maybe@N@3@V?$Local@VValue@v8@@@v8@@@Z 0000000180036b58     pipeline.obj
 0002:0000ab80       $cppxdata$?New@?$Factory@VFunctionTemplate@v8@@@imp@Nan@@SA?AV?$Local@VFunctionTemplate@v8@@@v8@@P6AXAEBV?$FunctionCallbackInfo@VValue@v8@@@3@@ZV?$Local@VValue@v8@@@5@V?$Local@VSignature@v8@@@5@@Z 0000000180036b80     sharp.obj
 0002:0000aba8       $cppxdata$?GetFunction@Nan@@YA?AV?$MaybeLocal@VFunction@v8@@@v8@@V?$Local@VFunctionTemplate@v8@@@3@@Z 0000000180036ba8     sharp.obj
 0002:0000abd0       $cppxdata$?NewInstance@Nan@@YA?AV?$MaybeLocal@VObject@v8@@@v8@@V?$Local@VObjectTemplate@v8@@@3@@Z 0000000180036bd0     sharp.obj
 0002:0000abf8       $cppxdata$?ThrowError@Nan@@YAXPEBD@Z 0000000180036bf8     utilities.obj
 0002:0000ac20       $cppxdata$?convert@?$ToFactory@VInteger@v8@@@imp@Nan@@SA?AV?$MaybeLocal@VInteger@v8@@@v8@@V?$Local@VValue@v8@@@5@@Z 0000000180036c20     utilities.obj
 0002:0000ac48       $cppxdata$?_maxColourDistance@@YAXAEBV?$FunctionCallbackInfo@VValue@v8@@@Nan@@@Z 0000000180036c48     utilities.obj
 0002:0000ac70       $cppxdata$?format@@YAXAEBV?$FunctionCallbackInfo@VValue@v8@@@Nan@@@Z 0000000180036c70     utilities.obj
 0002:0000b5f0       $unwind$__acrt_can_show_message_box 00000001800375f0     libucrt:winapi_thunks.obj
 0002:0000b5f0       $unwind$??1?$function@$$A6ANVVImage@vips@@@Z@std@@QEAA@XZ 00000001800375f0     operations.obj
 0002:0000b5f0       $unwind$_fflush_nolock     00000001800375f0     libucrt:fflush.obj
 0002:0000b5f0       $unwind$__std_type_info_destroy_list 00000001800375f0     libvcruntime:std_type_info.obj
 0002:0000b5f0       $unwind$??0bad_array_new_length@std@@QEAA@AEBV01@@Z 00000001800375f0     LIBCMT:throw_bad_alloc.obj
 0002:0000b5f0       $unwind$__raise_securityfailure 00000001800375f0     LIBCMT:gs_report.obj
 0002:0000b5f0       $unwind$??0?$output_processor@_WV?$stream_output_adapter@_W@__crt_stdio_output@@V?$standard_base@_WV?$stream_output_adapter@_W@__crt_stdio_output@@@2@@__crt_stdio_output@@QEAA@AEBV?$stream_output_adapter@_W@1@_KQEB_WQEAU__crt_locale_pointers@@QEAD@Z 00000001800375f0     libucrt:output.obj
 0002:0000b5f0       $unwind$??$message_box_wait_thread@_W@@YAKQEAX@Z 00000001800375f0     libucrt:crtmbox.obj
 0002:0000b5f0       $unwind$??1?$vector@PEAUInputDescriptor@sharp@@V?$allocator@PEAUInputDescriptor@sharp@@@std@@@std@@QEAA@XZ 00000001800375f0     pipeline.obj
 0002:0000b5f0       $unwind$??0bad_exception@std@@QEAA@AEBV01@@Z 00000001800375f0     libvcruntime:frame.obj
 0002:0000b5f0       $unwind$??0exception@std@@QEAA@AEBV01@@Z 00000001800375f0     libcpmt:xthrow.obj
 0002:0000b5f0       $unwind$?_Tidy@?$vector@U?$pair@V?$basic_string@DU?$char_traits@D@std@@V?$allocator@D@2@@std@@V12@@std@@V?$allocator@U?$pair@V?$basic_string@DU?$char_traits@D@std@@V?$allocator@D@2@@std@@V12@@std@@@2@@std@@IEAAXXZ 00000001800375f0     pipeline.obj
 0002:0000b5f0       $unwind$__acrt_stdio_allocate_buffer_nolock 00000001800375f0     libucrt:_getbuf.obj
 0002:0000b5f0       $unwind$?exit_or_terminate_process@@YAXI@Z 00000001800375f0     libucrt:exit.obj
 0002:0000b5f0       $unwind$_CreateFrameInfo   00000001800375f0     libvcruntime:trnsctrl.obj
 0002:0000b5f0       $unwind$__scrt_initialize_crt 00000001800375f0     LIBCMT:utility.obj
 0002:0000b5f0       $unwind$?type_case_integer@?$output_processor@_WV?$string_output_adapter@_W@__crt_stdio_output@@V?$standard_base@_WV?$string_output_adapter@_W@__crt_stdio_output@@@2@@__crt_stdio_output@@AEAA_NI_N@Z 00000001800375f0     libucrt:output.obj
 0002:0000b5f0       $unwind$__acrt_initialize_locks 00000001800375f0     libucrt:locks.obj
 0002:0000b5f0       $unwind$_setfpstatusword   00000001800375f0     libucrt:_fenvutils.obj
 0002:0000b5f0       $unwind$__scrt_release_startup_lock 00000001800375f0     LIBCMT:utility.obj
 0002:0000b5f0       $unwind$??0bad_alloc@std@@QEAA@AEBV01@@Z 00000001800375f0     libcpmt:xthrow.obj
 0002:0000b5f0       $unwind$??0?$basic_string@DU?$char_traits@D@std@@V?$allocator@D@2@@std@@QEAA@PEBD@Z 00000001800375f0     common.obj
 0002:0000b5f0       $unwind$?type_case_integer@?$output_processor@_WV?$stream_output_adapter@_W@__crt_stdio_output@@V?$standard_base@_WV?$stream_output_adapter@_W@__crt_stdio_output@@@2@@__crt_stdio_output@@AEAA_NI_N@Z 00000001800375f0     libucrt:output.obj
 0002:0000b5f0       $unwind$_clrfp             00000001800375f0     libucrt:fpctrl.obj
 0002:0000b5f0       $unwind$??1?$basic_string@DU?$char_traits@D@std@@V?$allocator@D@2@@std@@QEAA@XZ 00000001800375f0     common.obj
 0002:0000b5f0       $unwind$initialize_pointers 00000001800375f0     libucrt:initialization.obj
 0002:0000b5f0       $unwind$uninitialize_allocated_memory 00000001800375f0     libucrt:initialization.obj
 0002:0000b5f0       $unwind$??1PipelineBaton@@QEAA@XZ 00000001800375f0     pipeline.obj
 0002:0000b5f0       $unwind$__acrt_stdio_free_buffer_nolock 00000001800375f0     libucrt:_freebuf.obj
 0002:0000b5f0       $unwind$??1?$pair@V?$basic_string@DU?$char_traits@D@std@@V?$allocator@D@2@@std@@V12@@std@@QEAA@XZ 00000001800375f0     pipeline.obj
 0002:0000b5f0       $unwind$_clearfp           00000001800375f0     libucrt:ieee.obj
 0002:0000b5f0       $unwind$??1?$map@W4VipsInterpretation@@V?$basic_string@DU?$char_traits@D@std@@V?$allocator@D@2@@std@@U?$less@W4VipsInterpretation@@@3@V?$allocator@U?$pair@$$CBW4VipsInterpretation@@V?$basic_string@DU?$char_traits@D@std@@V?$allocator@D@2@@std@@@std@@@3@@std@@QEAA@XZ 00000001800375f0     pipeline.obj
 0002:0000b5f0       $unwind$?AsyncExecuteComplete@Nan@@YAXPEAUuv_work_s@@@Z 00000001800375f0     metadata.obj
 0002:0000b5f0       $unwind$??1?$vector@NV?$allocator@N@std@@@std@@QEAA@XZ 00000001800375f0     common.obj
 0002:0000b5f0       $unwind$_onexit            00000001800375f0     LIBCMT:utility.obj
 0002:0000b5f0       $unwind$?__GetUnwindTryBlock@@YAHPEA_KPEAU_xDISPATCHER_CONTEXT@@PEBU_s_FuncInfo@@@Z 00000001800375f0     libvcruntime:ehstate.obj
 0002:0000b5f0       $unwind$??_Gtype_info@@UEAAPEAXI@Z 00000001800375f0     LIBCMT:std_type_info_static.obj
 0002:0000b5f0       $unwind$??0logic_error@std@@QEAA@AEBV01@@Z 00000001800375f0     libcpmt:xthrow.obj
 0002:0000b5f0       $unwind$??0bad_function_call@std@@QEAA@AEBV01@@Z 00000001800375f0     libcpmt:xthrow.obj
 0002:0000b5f0       $unwind$??1?$vector@V?$Local@VObject@v8@@@v8@@V?$allocator@V?$Local@VObject@v8@@@v8@@@std@@@std@@QEAA@XZ 00000001800375f0     common.obj
 0002:0000b5f0       $unwind$??0?$basic_string@DU?$char_traits@D@std@@V?$allocator@D@2@@std@@QEAA@AEBV01@@Z 00000001800375f0     common.obj
 0002:0000b5f0       $unwind$__scrt_uninitialize_crt 00000001800375f0     LIBCMT:utility.obj
 0002:0000b5f0       $unwind$??2@YAPEAX_K@Z     00000001800375f0     LIBCMT:new_scalar.obj
 0002:0000b5f0       $unwind$__vcrt_initialize_locks 00000001800375f0     libvcruntime:locks.obj
 0002:0000b5f0       $unwind$__acrt_uninitialize_winapi_thunks 00000001800375f0     libucrt:winapi_thunks.obj
 0002:0000b5f0       $unwind$__acrt_uninitialize_stdio 00000001800375f0     libucrt:_file.obj
 0002:0000b5f0       $unwind$_IsExceptionObjectToBeDestroyed 00000001800375f0     libvcruntime:trnsctrl.obj
 0002:0000b5f0       $unwind$??$_Insert_at@AEAU?$pair@$$CBW4VipsInterpretation@@V?$basic_string@DU?$char_traits@D@std@@V?$allocator@D@2@@std@@@std@@PEAU?$_Tree_node@U?$pair@$$CBW4VipsInterpretation@@V?$basic_string@DU?$char_traits@D@std@@V?$allocator@D@2@@std@@@std@@PEAX@2@@?$_Tree@V?$_Tmap_traits@W4VipsInterpretation@@V?$basic_string@DU?$char_traits@D@std@@V?$allocator@D@2@@std@@U?$less@W4VipsInterpretation@@@3@V?$allocator@U?$pair@$$CBW4VipsInterpretation@@V?$basic_string@DU?$char_traits@D@std@@V?$allocator@D@2@@std@@@std@@@3@$0A@@std@@@std@@IEAA?AV?$_Tree_iterator@V?$_Tree_val@U?$_Tree_simple_types@U?$pair@$$CBW4VipsInterpretation@@V?$basic_string@DU?$char_traits@D@std@@V?$allocator@D@2@@std@@@std@@@std@@@std@@@1@_NPEAU?$_Tree_node@U?$pair@$$CBW4VipsInterpretation@@V?$basic_string@DU?$char_traits@D@std@@V?$allocator@D@2@@std@@@std@@PEAX@1@AEAU?$pair@$$CBW4VipsInterpretation@@V?$basic_string@DU?$char_traits@D@std@@V?$allocator@D@2@@std@@@1@1@Z 00000001800375f0     pipeline.obj
 0002:0000b5f0       $unwind$__vcrt_uninitialize_locks 00000001800375f0     libvcruntime:locks.obj
 0002:0000b5f0       $unwind$strcpy_s           00000001800375f0     libucrt:strcpy_s.obj
 0002:0000b5f0       $unwind$??0length_error@std@@QEAA@AEBV01@@Z 00000001800375f0     libcpmt:xthrow.obj
 0002:0000b5f0       $unwind$_SetThrowImageBase 00000001800375f0     libvcruntime:trnsctrl.obj
 0002:0000b5f0       $unwind$__acrt_update_locale_info 00000001800375f0     libucrt:locale_update.obj
 0002:0000b5f0       $unwind$??0?$output_processor@_WV?$string_output_adapter@_W@__crt_stdio_output@@V?$standard_base@_WV?$string_output_adapter@_W@__crt_stdio_output@@@2@@__crt_stdio_output@@QEAA@AEBV?$string_output_adapter@_W@1@_KQEB_WQEAU__crt_locale_pointers@@QEAD@Z 00000001800375f0     libucrt:output.obj
 0002:0000b5f0       $unwind$_malloc_base       00000001800375f0     libucrt:malloc_base.obj
 0002:0000b5f0       $unwind$__acrt_uninitialize_locks 00000001800375f0     libucrt:locks.obj
 0002:0000b5f0       $unwind$_set_statfp        00000001800375f0     libucrt:fpctrl.obj
 0002:0000b5f0       $unwind$_SetImageBase      00000001800375f0     libvcruntime:trnsctrl.obj
 0002:0000b5f0       $unwind$?AsyncQueueWorker@Nan@@YAXPEAVAsyncWorker@1@@Z 00000001800375f0     metadata.obj
 0002:0000b5f0       $unwind$__acrt_allocate_buffer_for_argv 00000001800375f0     libucrt:argv_parsing.obj
 0002:0000b5f0       $unwind$fesetenv           00000001800375f0     libucrt:fesetenv.obj
 0002:0000b5f0       $unwind$feholdexcept       00000001800375f0     libucrt:feholdexcept.obj
 0002:0000b5f0       $unwind$__acrt_update_multibyte_info 00000001800375f0     libucrt:locale_update.obj
 0002:0000b5f0       $unwind$wcscat_s           00000001800375f0     libucrt:wcscat_s.obj
 0002:0000b5f0       $unwind$_purecall          00000001800375f0     libvcruntime:purevirt.obj
 0002:0000b5f0       $unwind$__acrt_fp_strflt_to_string 00000001800375f0     libucrt:_fptostr.obj
 0002:0000b5f0       $unwind$fegetenv           00000001800375f0     libucrt:fegetenv.obj
 0002:0000b5f0       $unwind$wcscpy_s           00000001800375f0     libucrt:wcscpy_s.obj
 0002:0000b5f0       $unwind$_calloc_base       00000001800375f0     libucrt:calloc_base.obj
 0002:0000b5f0       $unwind$__vcrt_freeptd     00000001800375f0     libvcruntime:per_thread_data.obj
 0002:0000b5f0       $unwind$__std_exception_destroy 00000001800375f0     libvcruntime:std_exception.obj
 0002:0000b5f0       $unwind$__acrt_freeptd     00000001800375f0     libucrt:per_thread_data.obj
 0002:0000b5f0       $unwind$??0out_of_range@std@@QEAA@AEBV01@@Z 00000001800375f0     libcpmt:xthrow.obj
 0002:0000b5f0       $unwind$?__StateFromIp@@YAHPEBU_s_FuncInfo@@PEAU_xDISPATCHER_CONTEXT@@_J@Z 00000001800375f0     libvcruntime:ehstate.obj
 0002:0000b5f0       $unwind$??_Gexception@stdext@@UEAAPEAXI@Z 00000001800375f0     common.obj
 0002:0000b5f8       $unwind$__acrt_initialize_command_line 00000001800375f8     libucrt:argv_data.obj
 0002:0000b5f8       $unwind$__dcrt_uninitialize_environments_nolock 00000001800375f8     libucrt:environment_initialization.obj
 0002:0000b5f8       $unwind$__vcrt_getptd      00000001800375f8     libvcruntime:per_thread_data.obj
 0002:0000b5f8       $unwind$abort              00000001800375f8     libucrt:abort.obj
 0002:0000b5f8       $unwind$??$uninitialize_environment_internal@D@@YAXAEAPEAPEAD@Z 00000001800375f8     libucrt:environment_initialization.obj
 0002:0000b5f8       $unwind$__acrt_initialize_heap 00000001800375f8     libucrt:heap_handle.obj
 0002:0000b5f8       $unwind$__vcrt_uninitialize_ptd 00000001800375f8     libvcruntime:per_thread_data.obj
 0002:0000b5f8       $unwind$?_Deallocate@std@@YAXPEAX_K1@Z 00000001800375f8     common.obj
 0002:0000b5f8       $unwind$??$uninitialize_environment_internal@_W@@YAXAEAPEAPEA_W@Z 00000001800375f8     libucrt:environment_initialization.obj
 0002:0000b5f8       $unwind$__vcrt_freefls     00000001800375f8     libvcruntime:per_thread_data.obj
 0002:0000b5f8       $unwind$__scrt_initialize_default_local_stdio_options 00000001800375f8     LIBCMT:default_local_stdio_options.obj
 0002:0000b5f8       $unwind$__FrameUnwindFilter 00000001800375f8     libvcruntime:frame.obj
 0002:0000b5f8       $unwind$_statfp            00000001800375f8     libucrt:fpctrl.obj
 0002:0000b5f8       $unwind$_msize             00000001800375f8     libucrt:msize.obj
 0002:0000b5f8       $unwind$__vcrt_initialize_ptd 00000001800375f8     libvcruntime:per_thread_data.obj
 0002:0000b5f8       $unwind$__dcrt_terminate_console_output 00000001800375f8     libucrt:initcon.obj
 0002:0000b5f8       $unwind$tolower            00000001800375f8     libucrt:tolower_toupper.obj
 0002:0000b5f8       $unwind$_set_error_mode    00000001800375f8     libucrt:set_error_mode.obj
 0002:0000b5f8       $unwind$__vcrt_thread_detach 00000001800375f8     libvcruntime:initialization.obj
 0002:0000b5f8       $unwind$_GetImageBase      00000001800375f8     libvcruntime:trnsctrl.obj
 0002:0000b5f8       $unwind$?initialize_multibyte@@YAHXZ 00000001800375f8     libucrt:multibyte_initializer.obj
 0002:0000b5f8       $unwind$_invoke_watson     00000001800375f8     libucrt:invalid_parameter.obj
 0002:0000b5f8       $unwind$__GSHandlerCheck   00000001800375f8     LIBCMT:_gshandler_.obj
 0002:0000b5f8       $unwind$__vcrt_thread_attach 00000001800375f8     libvcruntime:initialization.obj
 0002:0000b5f8       $unwind$_GetThrowImageBase 00000001800375f8     libvcruntime:trnsctrl.obj
 0002:0000b5f8       $unwind$uninitialize_environment 00000001800375f8     libucrt:initialization.obj
 0002:0000b5f8       $unwind$initialize_c       00000001800375f8     libucrt:initialization.obj
 0002:0000b5f8       $unwind$__acrt_thread_detach 00000001800375f8     libucrt:initialization.obj
 0002:0000b5f8       $unwind$_errno             00000001800375f8     libucrt:errno.obj
 0002:0000b5f8       $unwind$__vcrt_uninitialize_critical 00000001800375f8     libvcruntime:initialization.obj
 0002:0000b5f8       $unwind$__doserrno         00000001800375f8     libucrt:errno.obj
 0002:0000b5f8       $unwind$__acrt_thread_attach 00000001800375f8     libucrt:initialization.obj
 0002:0000b5f8       $unwind$__acrt_uninitialize_critical 00000001800375f8     libucrt:initialization.obj
 0002:0000b5f8       $unwind$_getfpcontrolword  00000001800375f8     libucrt:_fenvutils.obj
 0002:0000b5f8       $unwind$__vcrt_uninitialize 00000001800375f8     libvcruntime:initialization.obj
 0002:0000b5f8       $unwind$_set_errno_from_matherr 00000001800375f8     libucrt:fpexcept.obj
 0002:0000b5f8       $unwind$_getfpstatusword   00000001800375f8     libucrt:_fenvutils.obj
 0002:0000b5f8       $unwind$__pctype_func      00000001800375f8     libucrt:ctype.obj
 0002:0000b5f8       $unwind$?_Reserve@?$vector@V?$Local@VObject@v8@@@v8@@V?$allocator@V?$Local@VObject@v8@@@v8@@@std@@@std@@IEAAX_K@Z 00000001800375f8     common.obj
 0002:0000b5f8       $unwind$__vcrt_initialize  00000001800375f8     libvcruntime:initialization.obj
 0002:0000b5f8       $unwind$atexit             00000001800375f8     LIBCMT:utility.obj
 0002:0000b5f8       $unwind$__std_terminate    00000001800375f8     libvcruntime:frame.obj
 0002:0000b5f8       $unwind$?_Reserve@?$vector@PEAUInputDescriptor@sharp@@V?$allocator@PEAUInputDescriptor@sharp@@@std@@@std@@IEAAX_K@Z 00000001800375f8     pipeline.obj
 0002:0000b5f8       $unwind$?_Reserve@?$vector@NV?$allocator@N@std@@@std@@IEAAX_K@Z 00000001800375f8     pipeline.obj
 0002:0000b5f8       $unwind$?deallocate@?$_Wrap_alloc@V?$allocator@PEAUInputDescriptor@sharp@@@std@@@std@@QEAAXPEAPEAUInputDescriptor@sharp@@_K@Z 00000001800375f8     pipeline.obj
 0002:0000b5f8       $unwind$__acrt_initialize_multibyte 00000001800375f8     libucrt:mbctype.obj
 0002:0000b5f8       $unwind$?deallocate@?$_Wrap_alloc@V?$allocator@V?$Local@VObject@v8@@@v8@@@std@@@std@@QEAAXPEAV?$Local@VObject@v8@@@v8@@_K@Z 00000001800375f8     common.obj
 0002:0000b5f8       $unwind$?deallocate@?$_Wrap_alloc@V?$allocator@N@std@@@std@@QEAAXPEAN_K@Z 00000001800375f8     common.obj
 0002:0000b5f8       $unwind$__acrt_DownlevelLocaleNameToLCID 00000001800375f8     libucrt:lcidtoname_downlevel.obj
 0002:0000b5f8       $unwind$?allocate@?$_Wrap_alloc@V?$allocator@N@std@@@std@@QEAAPEAN_K@Z 00000001800375f8     common.obj
 0002:0000b5f8       $unwind$?__GetCurrentState@@YAHPEA_KPEAU_xDISPATCHER_CONTEXT@@PEBU_s_FuncInfo@@@Z 00000001800375f8     libvcruntime:ehstate.obj
 0002:0000b5f8       $unwind$_fileno            00000001800375f8     libucrt:fileno.obj
 0002:0000b5f8       $unwind$?_Do_call@?$_Func_impl@UAttentionStrategy@sharp@@V?$allocator@H@std@@NVVImage@vips@@@std@@EEAAN$$QEAVVImage@vips@@@Z 00000001800375f8     pipeline.obj
 0002:0000b5f8       $unwind$?state_case_size@?$output_processor@_WV?$string_output_adapter@_W@__crt_stdio_output@@V?$standard_base@_WV?$string_output_adapter@_W@__crt_stdio_output@@@2@@__crt_stdio_output@@AEAA_NXZ 00000001800375f8     libucrt:output.obj
 0002:0000b5f8       $unwind$__scrt_dllmain_crt_thread_detach 00000001800375f8     LIBCMT:utility.obj
 0002:0000b5f8       $unwind$__scrt_dllmain_crt_thread_attach 00000001800375f8     LIBCMT:utility.obj
 0002:0000b5f8       $unwind$_get_osfhandle     00000001800375f8     libucrt:osfinfo.obj
 0002:0000b5f8       $unwind$?allocate@?$_Wrap_alloc@V?$allocator@V?$Local@VObject@v8@@@v8@@@std@@@std@@QEAAPEAV?$Local@VObject@v8@@@v8@@_K@Z 00000001800375f8     common.obj
 0002:0000b5f8       $unwind$__acrt_uninitialize_ptd 00000001800375f8     libucrt:per_thread_data.obj
 0002:0000b5f8       $unwind$__report_rangecheckfailure 00000001800375f8     LIBCMT:gs_report.obj
 0002:0000b5f8       $unwind$__scrt_dllmain_uninitialize_critical 00000001800375f8     LIBCMT:utility.obj
 0002:0000b5f8       $unwind$__scrt_acquire_startup_lock 00000001800375f8     LIBCMT:utility.obj
 0002:0000b5f8       $unwind$??$?8DU?$char_traits@D@std@@V?$allocator@D@1@@std@@YA_NAEBV?$basic_string@DU?$char_traits@D@std@@V?$allocator@D@2@@0@PEBD@Z 00000001800375f8     pipeline.obj
 0002:0000b5f8       $unwind$__scrt_dllmain_uninitialize_c 00000001800375f8     LIBCMT:utility.obj
 0002:0000b5f8       $unwind$__acrt_initialize_ptd 00000001800375f8     libucrt:per_thread_data.obj
 0002:0000b5f8       $unwind$__scrt_dllmain_after_initialize_c 00000001800375f8     LIBCMT:utility.obj
 0002:0000b5f8       $unwind$__acrt_release_locale_ref 00000001800375f8     libucrt:locale_refcounting.obj
 0002:0000b5f8       $unwind$?state_case_size@?$output_processor@_WV?$stream_output_adapter@_W@__crt_stdio_output@@V?$standard_base@_WV?$stream_output_adapter@_W@__crt_stdio_output@@@2@@__crt_stdio_output@@AEAA_NXZ 00000001800375f8     libucrt:output.obj
 0002:0000b5f8       $unwind$?dllmain_crt_dispatch@@YAHQEAUHINSTANCE__@@KQEAX@Z 00000001800375f8     LIBCMT:dll_dllmain.obj
 0002:0000b5f8       $unwind$__scrt_dllmain_before_initialize_c 00000001800375f8     LIBCMT:utility.obj
 0002:0000b5f8       $unwind$_isatty            00000001800375f8     libucrt:isatty.obj
 0002:0000b600       $unwind$??$?HDU?$char_traits@D@std@@V?$allocator@D@1@@std@@YA?AV?$basic_string@DU?$char_traits@D@std@@V?$allocator@D@2@@0@$$QEAV10@AEBV10@@Z 0000000180037600     pipeline.obj
 0002:0000b600       $unwind$??$make_tuple@AEAVVImage@vips@@AEAW4ImageType@sharp@@@std@@YA?AV?$tuple@VVImage@vips@@W4ImageType@sharp@@@0@AEAVVImage@vips@@AEAW4ImageType@sharp@@@Z 0000000180037600     common.obj
 0002:0000b600       $unwind$??$?HDU?$char_traits@D@std@@V?$allocator@D@1@@std@@YA?AV?$basic_string@DU?$char_traits@D@std@@V?$allocator@D@2@@0@$$QEAV10@PEBD@Z 0000000180037600     pipeline.obj
 0002:0000b600       $unwind$?to_string@std@@YA?AV?$basic_string@DU?$char_traits@D@std@@V?$allocator@D@2@@1@H@Z 0000000180037600     common.obj
 0002:0000b600       $unwind$??$common_xtox_s@K_W@@YAHKQEA_W_KI_N@Z 0000000180037600     libucrt:xtoa.obj
 0002:0000b600       $unwind$??0length_error@std@@QEAA@PEBD@Z 0000000180037600     libcpmt:xthrow.obj
 0002:0000b600       $unwind$wcstol             0000000180037600     libucrt:strtox.obj
 0002:0000b600       $unwind$??0out_of_range@std@@QEAA@PEBD@Z 0000000180037600     libcpmt:xthrow.obj
 0002:0000b608       $unwind$?Get@Nan@@YA?AV?$MaybeLocal@VValue@v8@@@v8@@V?$Local@VObject@v8@@@3@V?$Local@VValue@v8@@@3@@Z 0000000180037608     common.obj
 0002:0000b61c       $stateUnwindMap$?NewInstance@Nan@@YA?AV?$MaybeLocal@VObject@v8@@@v8@@V?$Local@VObjectTemplate@v8@@@3@@Z 000000018003761c     sharp.obj
 0002:0000b61c       $stateUnwindMap$?Get@Nan@@YA?AV?$MaybeLocal@VValue@v8@@@v8@@V?$Local@VObject@v8@@@3@I@Z 000000018003761c     metadata.obj
 0002:0000b61c       $stateUnwindMap$?Get@Nan@@YA?AV?$MaybeLocal@VValue@v8@@@v8@@V?$Local@VObject@v8@@@3@V?$Local@VValue@v8@@@3@@Z 000000018003761c     common.obj
 0002:0000b61c       $stateUnwindMap$?convert@?$ToFactory@VUint32@v8@@@imp@Nan@@SA?AV?$MaybeLocal@VUint32@v8@@@v8@@V?$Local@VValue@v8@@@5@@Z 000000018003761c     metadata.obj
 0002:0000b61c       $stateUnwindMap$?GetFunction@Nan@@YA?AV?$MaybeLocal@VFunction@v8@@@v8@@V?$Local@VFunctionTemplate@v8@@@3@@Z 000000018003761c     sharp.obj
 0002:0000b61c       $stateUnwindMap$?convert@?$ToFactory@VInteger@v8@@@imp@Nan@@SA?AV?$MaybeLocal@VInteger@v8@@@v8@@V?$Local@VValue@v8@@@5@@Z 000000018003761c     utilities.obj
 0002:0000b628       $ip2state$?Get@Nan@@YA?AV?$MaybeLocal@VValue@v8@@@v8@@V?$Local@VObject@v8@@@3@V?$Local@VValue@v8@@@3@@Z 0000000180037628     common.obj
 0002:0000b640       $unwind$?Has@Nan@@YA?AV?$Maybe@_N@1@V?$Local@VObject@v8@@@v8@@V?$Local@VString@v8@@@4@@Z 0000000180037640     common.obj
 0002:0000b658       $stateUnwindMap$?convert@?$ToFactory@I@imp@Nan@@SA?AV?$Maybe@I@3@V?$Local@VValue@v8@@@v8@@@Z 0000000180037658     common.obj
 0002:0000b658       $stateUnwindMap$?Has@Nan@@YA?AV?$Maybe@_N@1@V?$Local@VObject@v8@@@v8@@V?$Local@VString@v8@@@4@@Z 0000000180037658     common.obj
 0002:0000b658       $stateUnwindMap$?convert@?$ToFactory@_N@imp@Nan@@SA?AV?$Maybe@_N@3@V?$Local@VValue@v8@@@v8@@@Z 0000000180037658     pipeline.obj
 0002:0000b658       $stateUnwindMap$?convert@?$ToFactory@H@imp@Nan@@SA?AV?$Maybe@H@3@V?$Local@VValue@v8@@@v8@@@Z 0000000180037658     pipeline.obj
 0002:0000b660       $ip2state$?Has@Nan@@YA?AV?$Maybe@_N@1@V?$Local@VObject@v8@@@v8@@V?$Local@VString@v8@@@4@@Z 0000000180037660     common.obj
 0002:0000b678       $unwind$?convert@?$ToFactory@I@imp@Nan@@SA?AV?$Maybe@I@3@V?$Local@VValue@v8@@@v8@@@Z 0000000180037678     common.obj
 0002:0000b690       $ip2state$?convert@?$ToFactory@I@imp@Nan@@SA?AV?$Maybe@I@3@V?$Local@VValue@v8@@@v8@@@Z 0000000180037690     common.obj
 0002:0000b6a8       $unwind$isdigit            00000001800376a8     libucrt:_ctype.obj
 0002:0000b6a8       $unwind$_isleadbyte_l      00000001800376a8     libucrt:_wctype.obj
 0002:0000b6a8       $unwind$?New@Nan@@YA?AV?$MaybeLocal@VString@v8@@@v8@@AEBV?$basic_string@DU?$char_traits@D@std@@V?$allocator@D@2@@std@@@Z 00000001800376a8     common.obj
 0002:0000b6a8       $unwind$?getSystemCP@@YAHH@Z 00000001800376a8     libucrt:mbctype.obj
 0002:0000b6b0       $unwind$??0Utf8String@Nan@@QEAA@V?$Local@VValue@v8@@@v8@@@Z 00000001800376b0     common.obj
 0002:0000b6c4       $stateUnwindMap$?Error@Nan@@YA?AV?$Local@VValue@v8@@@v8@@PEBD@Z 00000001800376c4     metadata.obj
 0002:0000b6c4       $stateUnwindMap$?HandleErrorCallback@AsyncWorker@Nan@@MEAAXXZ 00000001800376c4     metadata.obj
 0002:0000b6c4       $stateUnwindMap$?HandleOKCallback@AsyncWorker@Nan@@MEAAXXZ 00000001800376c4     metadata.obj
 0002:0000b6c4       $stateUnwindMap$??0Utf8String@Nan@@QEAA@V?$Local@VValue@v8@@@v8@@@Z 00000001800376c4     common.obj
 0002:0000b6c4       $stateUnwindMap$?Call_@Callback@Nan@@AEBA?AV?$Local@VValue@v8@@@v8@@PEAVIsolate@4@V?$Local@VObject@v8@@@4@HQEAV34@@Z 00000001800376c4     metadata.obj
 0002:0000b6c4       $stateUnwindMap$?ThrowError@Nan@@YAXPEBD@Z 00000001800376c4     utilities.obj
 0002:0000b6d0       $ip2state$??0Utf8String@Nan@@QEAA@V?$Local@VValue@v8@@@v8@@@Z 00000001800376d0     common.obj
 0002:0000b6e8       $unwind$?HasAttr@sharp@@YA_NV?$Local@VObject@v8@@@v8@@V?$basic_string@DU?$char_traits@D@std@@V?$allocator@D@2@@std@@@Z 00000001800376e8     common.obj
 0002:0000b700       $stateUnwindMap$??$AttrAs@VFunction@v8@@@sharp@@YA?AV?$Local@VFunction@v8@@@v8@@V?$Local@VObject@v8@@@2@V?$basic_string@DU?$char_traits@D@std@@V?$allocator@D@2@@std@@@Z 0000000180037700     pipeline.obj
 0002:0000b700       $stateUnwindMap$??$AttrAs@VObject@v8@@@sharp@@YA?AV?$Local@VObject@v8@@@v8@@V12@V?$basic_string@DU?$char_traits@D@std@@V?$allocator@D@2@@std@@@Z 0000000180037700     common.obj
 0002:0000b700       $stateUnwindMap$?HasAttr@sharp@@YA_NV?$Local@VObject@v8@@@v8@@V?$basic_string@DU?$char_traits@D@std@@V?$allocator@D@2@@std@@@Z 0000000180037700     common.obj
 0002:0000b700       $stateUnwindMap$??$New@VString@v8@@V?$basic_string@DU?$char_traits@D@std@@V?$allocator@D@2@@std@@@Nan@@YA?AV?$MaybeLocal@VString@v8@@@v8@@V?$basic_string@DU?$char_traits@D@std@@V?$allocator@D@2@@std@@@Z 0000000180037700     common.obj
 0002:0000b700       $stateUnwindMap$??$AttrAs@VArray@v8@@@sharp@@YA?AV?$Local@VArray@v8@@@v8@@V?$Local@VObject@v8@@@2@V?$basic_string@DU?$char_traits@D@std@@V?$allocator@D@2@@std@@@Z 0000000180037700     pipeline.obj
 0002:0000b708       $ip2state$?HasAttr@sharp@@YA_NV?$Local@VObject@v8@@@v8@@V?$basic_string@DU?$char_traits@D@std@@V?$allocator@D@2@@std@@@Z 0000000180037708     common.obj
 0002:0000b720       $unwind$?AttrAsStr@sharp@@YA?AV?$basic_string@DU?$char_traits@D@std@@V?$allocator@D@2@@std@@V?$Local@VObject@v8@@@v8@@V23@@Z 0000000180037720     common.obj
 0002:0000b740       $stateUnwindMap$?AttrAsStr@sharp@@YA?AV?$basic_string@DU?$char_traits@D@std@@V?$allocator@D@2@@std@@V?$Local@VObject@v8@@@v8@@V23@@Z 0000000180037740     common.obj
 0002:0000b750       $ip2state$?AttrAsStr@sharp@@YA?AV?$basic_string@DU?$char_traits@D@std@@V?$allocator@D@2@@std@@V?$Local@VObject@v8@@@v8@@V23@@Z 0000000180037750     common.obj
 0002:0000b778       $unwind$?CreateInputDescriptor@sharp@@YAPEAUInputDescriptor@1@V?$Local@VObject@v8@@@v8@@V?$vector@V?$Local@VObject@v8@@@v8@@V?$allocator@V?$Local@VObject@v8@@@v8@@@std@@@std@@@Z 0000000180037778     common.obj
 0002:0000b798       $stateUnwindMap$?CreateInputDescriptor@sharp@@YAPEAUInputDescriptor@1@V?$Local@VObject@v8@@@v8@@V?$vector@V?$Local@VObject@v8@@@v8@@V?$allocator@V?$Local@VObject@v8@@@v8@@@std@@@std@@@Z 0000000180037798     common.obj
 0002:0000b7a8       $ip2state$?CreateInputDescriptor@sharp@@YAPEAUInputDescriptor@1@V?$Local@VObject@v8@@@v8@@V?$vector@V?$Local@VObject@v8@@@v8@@V?$allocator@V?$Local@VObject@v8@@@v8@@@std@@@std@@@Z 00000001800377a8     common.obj
 0002:0000b7d0       $unwind$??_GAsyncWorker@Nan@@UEAAPEAXI@Z 00000001800377d0     metadata.obj
 0002:0000b7d0       $unwind$??_GPipelineWorker@@UEAAPEAXI@Z 00000001800377d0     pipeline.obj
 0002:0000b7d0       $unwind$__acrt_FlsGetValue 00000001800377d0     libucrt:winapi_thunks.obj
 0002:0000b7d0       $unwind$??0_LocaleUpdate@@QEAA@QEAU__crt_locale_pointers@@@Z 00000001800377d0     libucrt:stricmp.obj
 0002:0000b7d0       $unwind$_close_nolock      00000001800377d0     libucrt:close.obj
 0002:0000b7d0       $unwind$wcsncat_s          00000001800377d0     libucrt:wcsncat_s.obj
 0002:0000b7d0       $unwind$??_Gbad_array_new_length@std@@UEAAPEAXI@Z 00000001800377d0     LIBCMT:throw_bad_alloc.obj
 0002:0000b7d0       $unwind$__acrt_FlsAlloc    00000001800377d0     libucrt:winapi_thunks.obj
 0002:0000b7d0       $unwind$__acrt_get_parent_window 00000001800377d0     libucrt:winapi_thunks.obj
 0002:0000b7d0       $unwind$?EndsWith@sharp@@YA_NAEBV?$basic_string@DU?$char_traits@D@std@@V?$allocator@D@2@@std@@0@Z 00000001800377d0     common.obj
 0002:0000b7d0       $unwind$?__SetUnwindTryBlock@@YAXPEA_KPEAU_xDISPATCHER_CONTEXT@@PEBU_s_FuncInfo@@H@Z 00000001800377d0     libvcruntime:ehstate.obj
 0002:0000b7d0       $unwind$?push_back@?$vector@PEAUInputDescriptor@sharp@@V?$allocator@PEAUInputDescriptor@sharp@@@std@@@std@@QEAAX$$QEAPEAUInputDescriptor@sharp@@@Z 00000001800377d0     pipeline.obj
 0002:0000b7d0       $unwind$?try_cor_exit_process@@YAXI@Z 00000001800377d0     libucrt:exit.obj
 0002:0000b7d0       $unwind$??$common_xtox@K_W@@YAHKQEA_W_KI_N@Z 00000001800377d0     libucrt:xtoa.obj
 0002:0000b7d0       $unwind$__acrt_stdio_begin_temporary_buffering_nolock 00000001800377d0     libucrt:_sftbuf.obj
 0002:0000b7d0       $unwind$__acrt_invoke_user_matherr 00000001800377d0     libucrt:matherr.obj
 0002:0000b7d0       $unwind$??_Gbad_function_call@std@@UEAAPEAXI@Z 00000001800377d0     libcpmt:xthrow.obj
 0002:0000b7d0       $unwind$?internal_isupper_l@@YA_NHQEAU__crt_locale_pointers@@@Z 00000001800377d0     libucrt:tolower_toupper.obj
 0002:0000b7d0       $unwind$?force_decimal_point@__crt_stdio_output@@YAXPEADQEAU__crt_locale_pointers@@@Z 00000001800377d0     libucrt:output.obj
 0002:0000b7d0       $unwind$?_Buy@?$vector@U?$pair@V?$basic_string@DU?$char_traits@D@std@@V?$allocator@D@2@@std@@V12@@std@@V?$allocator@U?$pair@V?$basic_string@DU?$char_traits@D@std@@V?$allocator@D@2@@std@@V12@@std@@@2@@std@@IEAA_N_K@Z 00000001800377d0     pipeline.obj
 0002:0000b7d0       $unwind$_FindAndUnlinkFrame 00000001800377d0     libvcruntime:trnsctrl.obj
 0002:0000b7d0       $unwind$?_Assign_rv@?$basic_string@DU?$char_traits@D@std@@V?$allocator@D@2@@std@@QEAAX$$QEAV12@@Z 00000001800377d0     common.obj
 0002:0000b7d0       $unwind$?ExFilterRethrow@@YAHPEAU_EXCEPTION_POINTERS@@PEAUEHExceptionRecord@@PEAH@Z 00000001800377d0     libvcruntime:frame.obj
 0002:0000b7d0       $unwind$strncpy_s          00000001800377d0     libucrt:strncpy_s.obj
 0002:0000b7d0       $unwind$_fclose_nolock     00000001800377d0     libucrt:fclose.obj
 0002:0000b7d0       $unwind$?replace_current_thread_locale_nolock@@YAXQEAU__acrt_ptd@@QEAU__crt_locale_data@@@Z 00000001800377d0     libucrt:per_thread_data.obj
 0002:0000b7d0       $unwind$??_Gexception@std@@UEAAPEAXI@Z 00000001800377d0     libcpmt:xthrow.obj
 0002:0000b7d0       $unwind$??_Gbad_alloc@std@@UEAAPEAXI@Z 00000001800377d0     libcpmt:xthrow.obj
 0002:0000b7d0       $unwind$?erase@?$basic_string@DU?$char_traits@D@std@@V?$allocator@D@2@@std@@QEAAAEAV12@_K0@Z 00000001800377d0     common.obj
 0002:0000b7d0       $unwind$??_Glogic_error@std@@UEAAPEAXI@Z 00000001800377d0     libcpmt:xthrow.obj
 0002:0000b7d0       $unwind$??_Gbad_exception@std@@UEAAPEAXI@Z 00000001800377d0     libvcruntime:frame.obj
 0002:0000b7d0       $unwind$__acrt_getptd      00000001800377d0     libucrt:per_thread_data.obj
 0002:0000b7d0       $unwind$??_Gout_of_range@std@@UEAAPEAXI@Z 00000001800377d0     libcpmt:xthrow.obj
 0002:0000b7d0       $unwind$_updatetlocinfoEx_nolock 00000001800377d0     libucrt:locale_refcounting.obj
 0002:0000b7d0       $unwind$??$common_initialize_environment_nolock@D@@YAHXZ 00000001800377d0     libucrt:environment_initialization.obj
 0002:0000b7d0       $unwind$??_Glength_error@std@@UEAAPEAXI@Z 00000001800377d0     libcpmt:xthrow.obj
 0002:0000b7d0       $unwind$??$?8DU?$char_traits@D@std@@V?$allocator@D@1@@std@@YA_NAEBV?$basic_string@DU?$char_traits@D@std@@V?$allocator@D@2@@0@0@Z 00000001800377d0     pipeline.obj
 0002:0000b7d0       $unwind$__acrt_errno_map_os_error 00000001800377d0     libucrt:errno.obj
 0002:0000b7d0       $unwind$??$?0AEAY01$$CBDV?$basic_string@DU?$char_traits@D@std@@V?$allocator@D@2@@std@@X$0A@@?$pair@V?$basic_string@DU?$char_traits@D@std@@V?$allocator@D@2@@std@@V12@@std@@QEAA@AEAY01$$CBD$$QEAV?$basic_string@DU?$char_traits@D@std@@V?$allocator@D@2@@1@@Z 00000001800377d0     pipeline.obj
 0002:0000b7d0       $unwind$_callnewh          00000001800377d0     libucrt:new_handler.obj
 0002:0000b7d0       $unwind$__vcrt_FlsAlloc    00000001800377d0     libvcruntime:winapi_downlevel.obj
 0002:0000b7d0       $unwind$__acrt_FlsFree     00000001800377d0     libucrt:winapi_thunks.obj
 0002:0000b7d0       $unwind$_realloc_base      00000001800377d0     libucrt:realloc_base.obj
 0002:0000b7d0       $unwind$__vcrt_FlsGetValue 00000001800377d0     libvcruntime:winapi_downlevel.obj
 0002:0000b7d0       $unwind$__acrt_uninitialize_lowio 00000001800377d0     libucrt:ioinit.obj
 0002:0000b7d0       $unwind$??_GMetadataWorker@@UEAAPEAXI@Z 00000001800377d0     metadata.obj
 0002:0000b7d0       $unwind$__vcrt_FlsFree     00000001800377d0     libvcruntime:winapi_downlevel.obj
 0002:0000b7d0       $unwind$??$?0AEAY0M@$$CBDV?$basic_string@DU?$char_traits@D@std@@V?$allocator@D@2@@std@@X$0A@@?$pair@V?$basic_string@DU?$char_traits@D@std@@V?$allocator@D@2@@std@@V12@@std@@QEAA@AEAY0M@$$CBD$$QEAV?$basic_string@DU?$char_traits@D@std@@V?$allocator@D@2@@1@@Z 00000001800377d0     pipeline.obj
 0002:0000b7d0       $unwind$??4?$basic_string@DU?$char_traits@D@std@@V?$allocator@D@2@@std@@QEAAAEAV01@$$QEAV01@@Z 00000001800377d0     common.obj
 0002:0000b7dc       $unwind$?IsJpeg@sharp@@YA_NAEBV?$basic_string@DU?$char_traits@D@std@@V?$allocator@D@2@@std@@@Z 00000001800377dc     common.obj
 0002:0000b804       $stateUnwindMap$?IsDzZip@sharp@@YA_NAEBV?$basic_string@DU?$char_traits@D@std@@V?$allocator@D@2@@std@@@Z 0000000180037804     common.obj
 0002:0000b804       $stateUnwindMap$?IsTiff@sharp@@YA_NAEBV?$basic_string@DU?$char_traits@D@std@@V?$allocator@D@2@@std@@@Z 0000000180037804     common.obj
 0002:0000b804       $stateUnwindMap$?IsV@sharp@@YA_NAEBV?$basic_string@DU?$char_traits@D@std@@V?$allocator@D@2@@std@@@Z 0000000180037804     common.obj
 0002:0000b804       $stateUnwindMap$?IsJpeg@sharp@@YA_NAEBV?$basic_string@DU?$char_traits@D@std@@V?$allocator@D@2@@std@@@Z 0000000180037804     common.obj
 0002:0000b830       $ip2state$?IsJpeg@sharp@@YA_NAEBV?$basic_string@DU?$char_traits@D@std@@V?$allocator@D@2@@std@@@Z 0000000180037830     common.obj
 0002:0000b878       $unwind$?dtor$2@?0??IsDzZip@sharp@@YA_NAEBV?$basic_string@DU?$char_traits@D@std@@V?$allocator@D@2@@std@@@Z@4HA 0000000180037878     common.obj
 0002:0000b878       $unwind$?dtor$5@?0??metadata@@YAXAEBV?$FunctionCallbackInfo@VValue@v8@@@Nan@@@Z@4HA 0000000180037878     metadata.obj
 0002:0000b878       $unwind$?dtor$1@?0??IsDzZip@sharp@@YA_NAEBV?$basic_string@DU?$char_traits@D@std@@V?$allocator@D@2@@std@@@Z@4HA 0000000180037878     common.obj
 0002:0000b878       $unwind$?filt$0@?0??__ArrayUnwind@@YAXPEAX_K1P6AX0@Z@Z@4HA 0000000180037878     LIBCMT:ehvecdtr.obj
 0002:0000b878       $unwind$?dtor$0@?0??IsDzZip@sharp@@YA_NAEBV?$basic_string@DU?$char_traits@D@std@@V?$allocator@D@2@@std@@@Z@4HA 0000000180037878     common.obj
 0002:0000b878       $unwind$fclose$fin$0       0000000180037878     libucrt:fclose.obj
 0002:0000b878       $unwind$?dtor$0@?0???$?HDU?$char_traits@D@std@@V?$allocator@D@1@@std@@YA?AV?$basic_string@DU?$char_traits@D@std@@V?$allocator@D@2@@0@PEBDAEBV10@@Z@4HA 0000000180037878     pipeline.obj
 0002:0000b878       $unwind$?filt$0@?0??common_exit@@YAXHW4_crt_exit_cleanup_mode@@W4_crt_exit_return_mode@@@Z@4HA 0000000180037878     libucrt:exit.obj
 0002:0000b878       $unwind$?dtor$107@?0??pipeline@@YAXAEBV?$FunctionCallbackInfo@VValue@v8@@@Nan@@@Z@4HA 0000000180037878     pipeline.obj
 0002:0000b878       $unwind$?dtor$1@?0??IsDz@sharp@@YA_NAEBV?$basic_string@DU?$char_traits@D@std@@V?$allocator@D@2@@std@@@Z@4HA 0000000180037878     common.obj
 0002:0000b878       $unwind$?dtor$3@?0??IsV@sharp@@YA_NAEBV?$basic_string@DU?$char_traits@D@std@@V?$allocator@D@2@@std@@@Z@4HA 0000000180037878     common.obj
 0002:0000b878       $unwind$_write$fin$0       0000000180037878     libucrt:write.obj
 0002:0000b878       $unwind$?dtor$2@?0??IsV@sharp@@YA_NAEBV?$basic_string@DU?$char_traits@D@std@@V?$allocator@D@2@@std@@@Z@4HA 0000000180037878     common.obj
 0002:0000b878       $unwind$?fin$0@?0???$?RV<lambda_7a5ef57ff966f610505f1d28a3d40618>@@AEAV<lambda_b721fa326cdb32351d23dfa67958c160>@@V<lambda_5e0fb27672408a07956fe59e48ccb2aa>@@@?$__crt_seh_guarded_call@H@@QEAAH$$QEAV<lambda_7a5ef57ff966f610505f1d28a3d40618>@@AEAV<lambda_b721fa326cdb32351d23dfa67958c160>@@$$QEAV<lambda_5e0fb27672408a07956fe59e48ccb2aa>@@@Z@4HA 0000000180037878     libucrt:setvbuf.obj
 0002:0000b878       $unwind$?dtor$1@?0??IsV@sharp@@YA_NAEBV?$basic_string@DU?$char_traits@D@std@@V?$allocator@D@2@@std@@@Z@4HA 0000000180037878     common.obj
 0002:0000b878       $unwind$__FrameUnwindToState$fin$1 0000000180037878     libvcruntime:frame.obj
 0002:0000b878       $unwind$?dtor$0@?0??IsV@sharp@@YA_NAEBV?$basic_string@DU?$char_traits@D@std@@V?$allocator@D@2@@std@@@Z@4HA 0000000180037878     common.obj
 0002:0000b878       $unwind$_ctrlfp$filt$0     0000000180037878     libucrt:fpctrl.obj
 0002:0000b878       $unwind$?dtor$3@?0??IsDzZip@sharp@@YA_NAEBV?$basic_string@DU?$char_traits@D@std@@V?$allocator@D@2@@std@@@Z@4HA 0000000180037878     common.obj
 0002:0000b878       $unwind$__acrt_lowio_ensure_fh_exists$fin$0 0000000180037878     libucrt:osfinfo.obj
 0002:0000b878       $unwind$?dtor$4@?0??metadata@@YAXAEBV?$FunctionCallbackInfo@VValue@v8@@@Nan@@@Z@4HA 0000000180037878     metadata.obj
 0002:0000b878       $unwind$__FrameUnwindToState$filt$0 0000000180037878     libvcruntime:frame.obj
 0002:0000b878       $unwind$?fin$0@?0???_M@YAXPEAX_K1P6AX0@Z@Z@4HA 0000000180037878     LIBCMT:ehvecdtr.obj
 0002:0000b878       $unwind$?dtor$0@?0??ImageTypeId@sharp@@YA?AV?$basic_string@DU?$char_traits@D@std@@V?$allocator@D@2@@std@@W4ImageType@1@@Z@4HA 0000000180037878     common.obj
 0002:0000b878       $unwind$?fin$1@?0??common_exit@@YAXHW4_crt_exit_cleanup_mode@@W4_crt_exit_return_mode@@@Z@4HA 0000000180037878     libucrt:exit.obj
 0002:0000b878       $unwind$?dtor$0@?0???$_Uninitialized_copy_al_unchecked1@PEBU?$pair@V?$basic_string@DU?$char_traits@D@std@@V?$allocator@D@2@@std@@V12@@std@@PEAU12@V?$allocator@U?$pair@V?$basic_string@DU?$char_traits@D@std@@V?$allocator@D@2@@std@@V12@@std@@@2@@std@@YAPEAU?$pair@V?$basic_string@DU?$char_traits@D@std@@V?$allocator@D@2@@std@@V12@@0@PEBU10@0PEAU10@AEAU?$_Wrap_alloc@V?$allocator@U?$pair@V?$basic_string@DU?$char_traits@D@std@@V?$allocator@D@2@@std@@V12@@std@@@std@@@0@U_General_ptr_iterator_tag@0@U_Any_tag@0@@Z@4HA 0000000180037878     pipeline.obj
 0002:0000b878       $unwind$__acrt_initialize_lowio$fin$0 0000000180037878     libucrt:ioinit.obj
 0002:0000b878       $unwind$_query_new_handler$fin$0 0000000180037878     libucrt:new_handler.obj
 0002:0000b878       $unwind$?fin$0@?0??dllmain_crt_process_detach@@YAH_N@Z@4HA 0000000180037878     LIBCMT:dll_dllmain.obj
 0002:0000b878       $unwind$?dtor$104@?0??pipeline@@YAXAEBV?$FunctionCallbackInfo@VValue@v8@@@Nan@@@Z@4HA 0000000180037878     pipeline.obj
 0002:0000b878       $unwind$?fin$0@?0??dllmain_crt_process_attach@@YAHQEAUHINSTANCE__@@QEAX@Z@4HA 0000000180037878     LIBCMT:dll_dllmain.obj
 0002:0000b878       $unwind$common_flush_all$fin$1 0000000180037878     libucrt:fflush.obj
 0002:0000b878       $unwind$__acrt_uninitialize_locale$fin$0 0000000180037878     libucrt:wsetlocale.obj
 0002:0000b878       $unwind$?fin$0@?0???$?RV<lambda_bfedae4ebbf01fab1bb6dcc6a9e276e0>@@AEAV<lambda_2fe9b910cf3cbf4a0ab98a02ba45b3ec>@@V<lambda_237c231691f317818eb88cc1d5d642d6>@@@?$__crt_seh_guarded_call@H@@QEAAH$$QEAV<lambda_bfedae4ebbf01fab1bb6dcc6a9e276e0>@@AEAV<lambda_2fe9b910cf3cbf4a0ab98a02ba45b3ec>@@$$QEAV<lambda_237c231691f317818eb88cc1d5d642d6>@@@Z@4HA 0000000180037878     libucrt:close.obj
 0002:0000b878       $unwind$?dtor$0@?0??IsTiff@sharp@@YA_NAEBV?$basic_string@DU?$char_traits@D@std@@V?$allocator@D@2@@std@@@Z@4HA 0000000180037878     common.obj
 0002:0000b878       $unwind$?dtor$13@?0??DetermineImageType@sharp@@YA?AW4ImageType@1@PEBD@Z@4HA 0000000180037878     common.obj
 0002:0000b878       $unwind$?dtor$1@?0??IsTiff@sharp@@YA_NAEBV?$basic_string@DU?$char_traits@D@std@@V?$allocator@D@2@@std@@@Z@4HA 0000000180037878     common.obj
 0002:0000b878       $unwind$?dtor$12@?0??DetermineImageType@sharp@@YA?AW4ImageType@1@PEBD@Z@4HA 0000000180037878     common.obj
 0002:0000b878       $unwind$?fin$0@?0???$?RV<lambda_72d1df2b273a38828b1ce30cbf4cdab5>@@AEAV<lambda_876a65b173b8412d3a47c70a915b0cf4>@@V<lambda_41932305e351933ebe8f8be3ed8bb5dc>@@@?$__crt_seh_guarded_call@X@@QEAAX$$QEAV<lambda_72d1df2b273a38828b1ce30cbf4cdab5>@@AEAV<lambda_876a65b173b8412d3a47c70a915b0cf4>@@$$QEAV<lambda_41932305e351933ebe8f8be3ed8bb5dc>@@@Z@4HA 0000000180037878     libucrt:per_thread_data.obj
 0002:0000b878       $unwind$?fin$0@?0???$?RV<lambda_c36588078e9f5dfd39652860aa6b3aaf>@@AEAV<lambda_ec61778202f4f5fc7e7711acc23c3bca>@@V<lambda_dc9d2797ccde5d239b4a0efae8ebd7db>@@@?$__crt_seh_guarded_call@P6AXH@Z@@QEAAP6AXH@Z$$QEAV<lambda_c36588078e9f5dfd39652860aa6b3aaf>@@AEAV<lambda_ec61778202f4f5fc7e7711acc23c3bca>@@$$QEAV<lambda_dc9d2797ccde5d239b4a0efae8ebd7db>@@@Z@4HA 0000000180037878     libucrt:signal.obj
 0002:0000b878       $unwind$?dtor$2@?0??IsTiff@sharp@@YA_NAEBV?$basic_string@DU?$char_traits@D@std@@V?$allocator@D@2@@std@@@Z@4HA 0000000180037878     common.obj
 0002:0000b878       $unwind$?dtor$3@?0??IsTiff@sharp@@YA_NAEBV?$basic_string@DU?$char_traits@D@std@@V?$allocator@D@2@@std@@@Z@4HA 0000000180037878     common.obj
 0002:0000b878       $unwind$_fcloseall$fin$0   0000000180037878     libucrt:closeall.obj
 0002:0000b878       $unwind$?fin$0@?0???$?RV<lambda_b521505b218e5242e90febf6bfebc422>@@AEAV<lambda_6978c1fb23f02e42e1d9e99668cc68aa>@@V<lambda_314360699dd331753a4119843814e9a7>@@@?$__crt_seh_guarded_call@H@@QEAAH$$QEAV<lambda_b521505b218e5242e90febf6bfebc422>@@AEAV<lambda_6978c1fb23f02e42e1d9e99668cc68aa>@@$$QEAV<lambda_314360699dd331753a4119843814e9a7>@@@Z@4HA 0000000180037878     libucrt:commit.obj
 0002:0000b878       $unwind$?dtor$1@?0??pipeline@@YAXAEBV?$FunctionCallbackInfo@VValue@v8@@@Nan@@@Z@4HA 0000000180037878     pipeline.obj
 0002:0000b878       $unwind$raise$fin$0        0000000180037878     libucrt:signal.obj
 0002:0000b878       $unwind$?fin$0@?0???$?RV<lambda_b8c45f8f788dd370798f47cfe8ac3a86>@@AEAV<lambda_4e60a939b0d047cfe11ddc22648dfba9>@@V<lambda_332c3edc96d0294ec56c57d38c1cdfd5>@@@?$__crt_seh_guarded_call@H@@QEAAH$$QEAV<lambda_b8c45f8f788dd370798f47cfe8ac3a86>@@AEAV<lambda_4e60a939b0d047cfe11ddc22648dfba9>@@$$QEAV<lambda_332c3edc96d0294ec56c57d38c1cdfd5>@@@Z@4HA 0000000180037878     libucrt:onexit.obj
 0002:0000b878       $unwind$?dtor$0@?0???$?HDU?$char_traits@D@std@@V?$allocator@D@1@@std@@YA?AV?$basic_string@DU?$char_traits@D@std@@V?$allocator@D@2@@0@AEBV10@PEBD@Z@4HA 0000000180037878     pipeline.obj
 0002:0000b878       $unwind$?dtor$3@?0??IsJpeg@sharp@@YA_NAEBV?$basic_string@DU?$char_traits@D@std@@V?$allocator@D@2@@std@@@Z@4HA 0000000180037878     common.obj
 0002:0000b878       $unwind$?dtor$0@?0??IsWebp@sharp@@YA_NAEBV?$basic_string@DU?$char_traits@D@std@@V?$allocator@D@2@@std@@@Z@4HA 0000000180037878     common.obj
 0002:0000b878       $unwind$?dtor$1@?0??IsWebp@sharp@@YA_NAEBV?$basic_string@DU?$char_traits@D@std@@V?$allocator@D@2@@std@@@Z@4HA 0000000180037878     common.obj
 0002:0000b878       $unwind$?fin$0@?0???$?RV<lambda_e24bbb7b643b32fcea6fa61b31d4c984>@@AEAV<lambda_275893d493268fdec8709772e3fcec0e>@@V<lambda_9d71df4d7cf3f480f8d633942495c3b0>@@@?$__crt_seh_guarded_call@H@@QEAAH$$QEAV<lambda_e24bbb7b643b32fcea6fa61b31d4c984>@@AEAV<lambda_275893d493268fdec8709772e3fcec0e>@@$$QEAV<lambda_9d71df4d7cf3f480f8d633942495c3b0>@@@Z@4HA 0000000180037878     libucrt:onexit.obj
 0002:0000b878       $unwind$?dtor$166@?0??Execute@PipelineWorker@@UEAAXXZ@4HA 0000000180037878     pipeline.obj
 0002:0000b878       $unwind$?fin$0@?0???$?RV<lambda_99476a1ad63dd22509b5d3e65b0ffc95>@@AEAV<lambda_ad1ced32f4ac17aa236e5ef05d6b3b7c>@@V<lambda_f7424dd8d45958661754dc4f2697e9c3>@@@?$__crt_seh_guarded_call@X@@QEAAX$$QEAV<lambda_99476a1ad63dd22509b5d3e65b0ffc95>@@AEAV<lambda_ad1ced32f4ac17aa236e5ef05d6b3b7c>@@$$QEAV<lambda_f7424dd8d45958661754dc4f2697e9c3>@@@Z@4HA 0000000180037878     libucrt:mbctype.obj
 0002:0000b878       $unwind$common_flush_all$fin$0 0000000180037878     libucrt:fflush.obj
 0002:0000b878       $unwind$common_control87$filt$0 0000000180037878     libucrt:ieee.obj
 0002:0000b878       $unwind$__DestructExceptionObject$filt$0 0000000180037878     libvcruntime:frame.obj
 0002:0000b878       $unwind$?dtor$152@?0??Execute@PipelineWorker@@UEAAXXZ@4HA 0000000180037878     pipeline.obj
 0002:0000b878       $unwind$?fin$0@?0???$?RV<lambda_fb3a7dec4e47f37f22dae91bb15c9095>@@AEAV<lambda_698284760c8add0bfb0756c19673e34b>@@V<lambda_dfb8eca1e75fef3034a8fb18dd509707>@@@?$__crt_seh_guarded_call@X@@QEAAX$$QEAV<lambda_fb3a7dec4e47f37f22dae91bb15c9095>@@AEAV<lambda_698284760c8add0bfb0756c19673e34b>@@$$QEAV<lambda_dfb8eca1e75fef3034a8fb18dd509707>@@@Z@4HA 0000000180037878     libucrt:per_thread_data.obj
 0002:0000b878       $unwind$?fin$0@?0???$?RV<lambda_5e887d1dcbef67a5eb4283622ba103bf>@@AEAV<lambda_4466841279450cc726390878d4a41900>@@V<lambda_341c25c0346d94847f1f3c463c57e077>@@@?$__crt_seh_guarded_call@X@@QEAAX$$QEAV<lambda_5e887d1dcbef67a5eb4283622ba103bf>@@AEAV<lambda_4466841279450cc726390878d4a41900>@@$$QEAV<lambda_341c25c0346d94847f1f3c463c57e077>@@@Z@4HA 0000000180037878     libucrt:per_thread_data.obj
 0002:0000b878       $unwind$?fin$0@?0???$?RV<lambda_7b91131dde12e1c3dfc74ff76b3f2eac>@@AEAV<lambda_dd75445284c072d0bd3768540cc698fa>@@V<lambda_16bc4ecb55b4718497c16bceaea2ceaf>@@@?$__crt_seh_guarded_call@H@@QEAAH$$QEAV<lambda_7b91131dde12e1c3dfc74ff76b3f2eac>@@AEAV<lambda_dd75445284c072d0bd3768540cc698fa>@@$$QEAV<lambda_16bc4ecb55b4718497c16bceaea2ceaf>@@@Z@4HA 0000000180037878     libucrt:output.obj
 0002:0000b878       $unwind$?dtor$0@?0??IsPng@sharp@@YA_NAEBV?$basic_string@DU?$char_traits@D@std@@V?$allocator@D@2@@std@@@Z@4HA 0000000180037878     common.obj
 0002:0000b878       $unwind$?dtor$145@?0??Execute@PipelineWorker@@UEAAXXZ@4HA 0000000180037878     pipeline.obj
 0002:0000b878       $unwind$__acrt_update_thread_multibyte_data$fin$0 0000000180037878     libucrt:mbctype.obj
 0002:0000b878       $unwind$?dtor$1@?0??IsPng@sharp@@YA_NAEBV?$basic_string@DU?$char_traits@D@std@@V?$allocator@D@2@@std@@@Z@4HA 0000000180037878     common.obj
 0002:0000b878       $unwind$?dtor$0@?0??IsDz@sharp@@YA_NAEBV?$basic_string@DU?$char_traits@D@std@@V?$allocator@D@2@@std@@@Z@4HA 0000000180037878     common.obj
 0002:0000b878       $unwind$?dtor$134@?0??Execute@PipelineWorker@@UEAAXXZ@4HA 0000000180037878     pipeline.obj
 0002:0000b878       $unwind$__acrt_update_thread_locale_data$fin$0 0000000180037878     libucrt:locale_refcounting.obj
 0002:0000b878       $unwind$?dtor$106@?0??pipeline@@YAXAEBV?$FunctionCallbackInfo@VValue@v8@@@Nan@@@Z@4HA 0000000180037878     pipeline.obj
 0002:0000b878       $unwind$fflush$fin$0       0000000180037878     libucrt:fflush.obj
 0002:0000b878       $unwind$_IsNonwritableInCurrentImage$filt$0 0000000180037878     LIBCMT:pesect.obj
 0002:0000b878       $unwind$?dtor$0@?0??IsJpeg@sharp@@YA_NAEBV?$basic_string@DU?$char_traits@D@std@@V?$allocator@D@2@@std@@@Z@4HA 0000000180037878     common.obj
 0002:0000b878       $unwind$__CxxCallCatchBlock$filt$0 0000000180037878     libvcruntime:frame.obj
 0002:0000b878       $unwind$?fin$0@?0???$common_lseek@_J@@YA_JH_JH@Z@4HA 0000000180037878     libucrt:lseek.obj
 0002:0000b878       $unwind$?dtor$1@?0??IsJpeg@sharp@@YA_NAEBV?$basic_string@DU?$char_traits@D@std@@V?$allocator@D@2@@std@@@Z@4HA 0000000180037878     common.obj
 0002:0000b878       $unwind$?dtor$2@?0??IsJpeg@sharp@@YA_NAEBV?$basic_string@DU?$char_traits@D@std@@V?$allocator@D@2@@std@@@Z@4HA 0000000180037878     common.obj
 0002:0000b878       $unwind$?fin$0@?0???$?RV<lambda_46352004c1216016012b18bd6f87e700>@@AEAV<lambda_3bd07e1a1191394380780325891bf33f>@@V<lambda_334532d3f185bcaa59b5be82d7d22bff>@@@?$__crt_seh_guarded_call@X@@QEAAX$$QEAV<lambda_46352004c1216016012b18bd6f87e700>@@AEAV<lambda_3bd07e1a1191394380780325891bf33f>@@$$QEAV<lambda_334532d3f185bcaa59b5be82d7d22bff>@@@Z@4HA 0000000180037878     libucrt:per_thread_data.obj
 0002:0000b880       $unwind$?IsPng@sharp@@YA_NAEBV?$basic_string@DU?$char_traits@D@std@@V?$allocator@D@2@@std@@@Z 0000000180037880     common.obj
 0002:0000b8a8       $stateUnwindMap$?IsWebp@sharp@@YA_NAEBV?$basic_string@DU?$char_traits@D@std@@V?$allocator@D@2@@std@@@Z 00000001800378a8     common.obj
 0002:0000b8a8       $stateUnwindMap$?IsDz@sharp@@YA_NAEBV?$basic_string@DU?$char_traits@D@std@@V?$allocator@D@2@@std@@@Z 00000001800378a8     common.obj
 0002:0000b8a8       $stateUnwindMap$?IsPng@sharp@@YA_NAEBV?$basic_string@DU?$char_traits@D@std@@V?$allocator@D@2@@std@@@Z 00000001800378a8     common.obj
 0002:0000b8b8       $ip2state$?IsPng@sharp@@YA_NAEBV?$basic_string@DU?$char_traits@D@std@@V?$allocator@D@2@@std@@@Z 00000001800378b8     common.obj
 0002:0000b8e0       $unwind$?IsWebp@sharp@@YA_NAEBV?$basic_string@DU?$char_traits@D@std@@V?$allocator@D@2@@std@@@Z 00000001800378e0     common.obj
 0002:0000b908       $ip2state$?IsWebp@sharp@@YA_NAEBV?$basic_string@DU?$char_traits@D@std@@V?$allocator@D@2@@std@@@Z 0000000180037908     common.obj
 0002:0000b930       $unwind$?IsTiff@sharp@@YA_NAEBV?$basic_string@DU?$char_traits@D@std@@V?$allocator@D@2@@std@@@Z 0000000180037930     common.obj
 0002:0000b960       $ip2state$?IsTiff@sharp@@YA_NAEBV?$basic_string@DU?$char_traits@D@std@@V?$allocator@D@2@@std@@@Z 0000000180037960     common.obj
 0002:0000b9a8       $unwind$?IsDz@sharp@@YA_NAEBV?$basic_string@DU?$char_traits@D@std@@V?$allocator@D@2@@std@@@Z 00000001800379a8     common.obj
 0002:0000b9d0       $ip2state$?IsDz@sharp@@YA_NAEBV?$basic_string@DU?$char_traits@D@std@@V?$allocator@D@2@@std@@@Z 00000001800379d0     common.obj
 0002:0000b9f8       $unwind$?IsDzZip@sharp@@YA_NAEBV?$basic_string@DU?$char_traits@D@std@@V?$allocator@D@2@@std@@@Z 00000001800379f8     common.obj
 0002:0000ba20       $ip2state$?IsDzZip@sharp@@YA_NAEBV?$basic_string@DU?$char_traits@D@std@@V?$allocator@D@2@@std@@@Z 0000000180037a20     common.obj
 0002:0000ba68       $unwind$?IsV@sharp@@YA_NAEBV?$basic_string@DU?$char_traits@D@std@@V?$allocator@D@2@@std@@@Z 0000000180037a68     common.obj
 0002:0000ba90       $ip2state$?IsV@sharp@@YA_NAEBV?$basic_string@DU?$char_traits@D@std@@V?$allocator@D@2@@std@@@Z 0000000180037a90     common.obj
 0002:0000bad8       $unwind$?ImageTypeId@sharp@@YA?AV?$basic_string@DU?$char_traits@D@std@@V?$allocator@D@2@@std@@W4ImageType@1@@Z 0000000180037ad8     common.obj
 0002:0000bae8       $stateUnwindMap$?ImageTypeId@sharp@@YA?AV?$basic_string@DU?$char_traits@D@std@@V?$allocator@D@2@@std@@W4ImageType@1@@Z 0000000180037ae8     common.obj
 0002:0000bae8       $stateUnwindMap$??$?HDU?$char_traits@D@std@@V?$allocator@D@1@@std@@YA?AV?$basic_string@DU?$char_traits@D@std@@V?$allocator@D@2@@0@AEBV10@PEBD@Z 0000000180037ae8     pipeline.obj
 0002:0000bae8       $stateUnwindMap$??$?HDU?$char_traits@D@std@@V?$allocator@D@1@@std@@YA?AV?$basic_string@DU?$char_traits@D@std@@V?$allocator@D@2@@0@PEBDAEBV10@@Z 0000000180037ae8     pipeline.obj
 0002:0000baf0       $ip2state$?ImageTypeId@sharp@@YA?AV?$basic_string@DU?$char_traits@D@std@@V?$allocator@D@2@@std@@W4ImageType@1@@Z 0000000180037af0     common.obj
 0002:0000bb00       $unwind$?DetermineImageType@sharp@@YA?AW4ImageType@1@PEAX_K@Z 0000000180037b00     common.obj
 0002:0000bb24       $stateUnwindMap$?DetermineImageType@sharp@@YA?AW4ImageType@1@PEAX_K@Z 0000000180037b24     common.obj
 0002:0000bb70       $ip2state$?DetermineImageType@sharp@@YA?AW4ImageType@1@PEAX_K@Z 0000000180037b70     common.obj
 0002:0000bc08       $unwind$?DetermineImageType@sharp@@YA?AW4ImageType@1@PEBD@Z 0000000180037c08     common.obj
 0002:0000bc30       $stateUnwindMap$?DetermineImageType@sharp@@YA?AW4ImageType@1@PEBD@Z 0000000180037c30     common.obj
 0002:0000bca0       $ip2state$?DetermineImageType@sharp@@YA?AW4ImageType@1@PEBD@Z 0000000180037ca0     common.obj
 0002:0000bd88       $unwind$?OpenInput@sharp@@YA?AV?$tuple@VVImage@vips@@W4ImageType@sharp@@@std@@PEAUInputDescriptor@1@W4VipsAccess@@@Z 0000000180037d88     common.obj
 0002:0000bdac       $stateUnwindMap$?OpenInput@sharp@@YA?AV?$tuple@VVImage@vips@@W4ImageType@sharp@@@std@@PEAUInputDescriptor@1@W4VipsAccess@@@Z 0000000180037dac     common.obj
 0002:0000bdfc       $tryMap$?OpenInput@sharp@@YA?AV?$tuple@VVImage@vips@@W4ImageType@sharp@@@std@@PEAUInputDescriptor@1@W4VipsAccess@@@Z 0000000180037dfc     common.obj
 0002:0000be24       $handlerMap$0$?OpenInput@sharp@@YA?AV?$tuple@VVImage@vips@@W4ImageType@sharp@@@std@@PEAUInputDescriptor@1@W4VipsAccess@@@Z 0000000180037e24     common.obj
 0002:0000be38       $handlerMap$1$?OpenInput@sharp@@YA?AV?$tuple@VVImage@vips@@W4ImageType@sharp@@@std@@PEAUInputDescriptor@1@W4VipsAccess@@@Z 0000000180037e38     common.obj
 0002:0000be50       $ip2state$?OpenInput@sharp@@YA?AV?$tuple@VVImage@vips@@W4ImageType@sharp@@@std@@PEAUInputDescriptor@1@W4VipsAccess@@@Z 0000000180037e50     common.obj
 0002:0000bf08       $unwind$?catch$14@?0??OpenInput@sharp@@YA?AV?$tuple@VVImage@vips@@W4ImageType@sharp@@@std@@PEAUInputDescriptor@1@W4VipsAccess@@@Z@4HA 0000000180037f08     common.obj
 0002:0000bf08       $unwind$?catch$13@?0??OpenInput@sharp@@YA?AV?$tuple@VVImage@vips@@W4ImageType@sharp@@@std@@PEAUInputDescriptor@1@W4VipsAccess@@@Z@4HA 0000000180037f08     common.obj
 0002:0000bf18       $unwind$?HasProfile@sharp@@YA_NVVImage@vips@@@Z 0000000180037f18     common.obj
 0002:0000bf2c       $stateUnwindMap$?HasProfile@sharp@@YA_NVVImage@vips@@@Z 0000000180037f2c     common.obj
 0002:0000bf2c       $stateUnwindMap$?HasAlpha@sharp@@YA_NVVImage@vips@@@Z 0000000180037f2c     common.obj
 0002:0000bf2c       $stateUnwindMap$?RemoveExifOrientation@sharp@@YAXVVImage@vips@@@Z 0000000180037f2c     common.obj
 0002:0000bf38       $ip2state$?HasProfile@sharp@@YA_NVVImage@vips@@@Z 0000000180037f38     common.obj
 0002:0000bf50       $unwind$?HasAlpha@sharp@@YA_NVVImage@vips@@@Z 0000000180037f50     common.obj
 0002:0000bf68       $ip2state$?HasAlpha@sharp@@YA_NVVImage@vips@@@Z 0000000180037f68     common.obj
 0002:0000bf80       $unwind$?RemoveExifOrientation@sharp@@YAXVVImage@vips@@@Z 0000000180037f80     common.obj
 0002:0000bf90       $ip2state$?RemoveExifOrientation@sharp@@YAXVVImage@vips@@@Z 0000000180037f90     common.obj
 0002:0000bfa8       $unwind$?SetDensity@sharp@@YAXVVImage@vips@@H@Z 0000000180037fa8     common.obj
 0002:0000bfbc       $stateUnwindMap$?SetDensity@sharp@@YAXVVImage@vips@@H@Z 0000000180037fbc     common.obj
 0002:0000bfc8       $ip2state$?SetDensity@sharp@@YAXVVImage@vips@@H@Z 0000000180037fc8     common.obj
 0002:0000bfe0       $unwind$?CalculateCrop@sharp@@YA?AV?$tuple@HH@std@@HHHHH@Z 0000000180037fe0     common.obj
 0002:0000bfe0       $unwind$__GSHandlerCheckCommon 0000000180037fe0     LIBCMT:_gshandler_.obj
 0002:0000bfe8       $chain$0$?CalculateCrop@sharp@@YA?AV?$tuple@HH@std@@HHHHH@Z 0000000180037fe8     common.obj
 0002:0000bffc       $chain$1$?CalculateCrop@sharp@@YA?AV?$tuple@HH@std@@HHHHH@Z 0000000180037ffc     common.obj
 0002:0000c00c       $unwind$?CalculateCrop@sharp@@YA?AV?$tuple@HH@std@@HHHHHH@Z 000000018003800c     common.obj
 0002:0000c00c       $unwind$??$type_case_integer_parse_into_buffer@I@?$output_processor@_WV?$stream_output_adapter@_W@__crt_stdio_output@@V?$standard_base@_WV?$stream_output_adapter@_W@__crt_stdio_output@@@2@@__crt_stdio_output@@AEAAXII_N@Z 000000018003800c     libucrt:output.obj
 0002:0000c00c       $unwind$??$type_case_integer_parse_into_buffer@I@?$output_processor@_WV?$string_output_adapter@_W@__crt_stdio_output@@V?$standard_base@_WV?$string_output_adapter@_W@__crt_stdio_output@@@2@@__crt_stdio_output@@AEAAXII_N@Z 000000018003800c     libucrt:output.obj
 0002:0000c00c       $unwind$??$type_case_integer_parse_into_buffer@_K@?$output_processor@_WV?$stream_output_adapter@_W@__crt_stdio_output@@V?$standard_base@_WV?$stream_output_adapter@_W@__crt_stdio_output@@@2@@__crt_stdio_output@@AEAAX_KI_N@Z 000000018003800c     libucrt:output.obj
 0002:0000c00c       $unwind$??$type_case_integer_parse_into_buffer@_K@?$output_processor@_WV?$string_output_adapter@_W@__crt_stdio_output@@V?$standard_base@_WV?$string_output_adapter@_W@__crt_stdio_output@@@2@@__crt_stdio_output@@AEAAX_KI_N@Z 000000018003800c     libucrt:output.obj
 0002:0000c014       $unwind$?GetRgbaAsColourspace@sharp@@YA?AV?$vector@NV?$allocator@N@std@@@std@@V23@W4VipsInterpretation@@@Z 0000000180038014     common.obj
 0002:0000c030       $stateUnwindMap$?GetRgbaAsColourspace@sharp@@YA?AV?$vector@NV?$allocator@N@std@@@std@@V23@W4VipsInterpretation@@@Z 0000000180038030     common.obj
 0002:0000c050       $ip2state$?GetRgbaAsColourspace@sharp@@YA?AV?$vector@NV?$allocator@N@std@@@std@@V23@W4VipsInterpretation@@@Z 0000000180038050     common.obj
 0002:0000c098       $unwind$??0?$vector@NV?$allocator@N@std@@@std@@QEAA@AEBV01@@Z 0000000180038098     common.obj
 0002:0000c0a8       $chain$0$??0?$vector@NV?$allocator@N@std@@@std@@QEAA@AEBV01@@Z 00000001800380a8     common.obj
 0002:0000c0bc       $chain$1$??0?$vector@NV?$allocator@N@std@@@std@@QEAA@AEBV01@@Z 00000001800380bc     common.obj
 0002:0000c0cc       $unwind$_RTC_Terminate     00000001800380cc     LIBCMT:_initsect_.obj
 0002:0000c0cc       $unwind$??R<lambda_ad1ced32f4ac17aa236e5ef05d6b3b7c>@@QEBAXXZ 00000001800380cc     libucrt:mbctype.obj
 0002:0000c0cc       $unwind$__acrt_stdio_flush_nolock 00000001800380cc     libucrt:fflush.obj
 0002:0000c0cc       $unwind$_initterm_e        00000001800380cc     libucrt:initterm.obj
 0002:0000c0cc       $unwind$?type_case_s@?$output_processor@_WV?$string_output_adapter@_W@__crt_stdio_output@@V?$standard_base@_WV?$string_output_adapter@_W@__crt_stdio_output@@@2@@__crt_stdio_output@@AEAA_NXZ 00000001800380cc     libucrt:output.obj
 0002:0000c0cc       $unwind$?type_case_Z@?$output_processor@_WV?$string_output_adapter@_W@__crt_stdio_output@@V?$standard_base@_WV?$string_output_adapter@_W@__crt_stdio_output@@@2@@__crt_stdio_output@@AEAA_NXZ 00000001800380cc     libucrt:output.obj
 0002:0000c0cc       $unwind$_RTC_Initialize    00000001800380cc     LIBCMT:_initsect_.obj
 0002:0000c0cc       $unwind$__acrt_LocaleNameToLCID 00000001800380cc     libucrt:winapi_thunks.obj
 0002:0000c0cc       $unwind$?free_crt_array_internal@@YAXQEAPEBX_K@Z 00000001800380cc     libucrt:inittime.obj
 0002:0000c0cc       $unwind$?reserve@?$basic_string@DU?$char_traits@D@std@@V?$allocator@D@2@@std@@QEAAX_K@Z 00000001800380cc     pipeline.obj
 0002:0000c0cc       $unwind$?compare@?$basic_string@DU?$char_traits@D@std@@V?$allocator@D@2@@std@@QEBAHPEBD@Z 00000001800380cc     pipeline.obj
 0002:0000c0cc       $unwind$?assign@?$basic_string@DU?$char_traits@D@std@@V?$allocator@D@2@@std@@QEAAAEAV12@PEBD_K@Z 00000001800380cc     common.obj
 0002:0000c0cc       $unwind$?_Tidy@?$basic_string@DU?$char_traits@D@std@@V?$allocator@D@2@@std@@QEAAX_N_K@Z 00000001800380cc     common.obj
 0002:0000c0cc       $unwind$??$common_lseek_nolock@_J@@YA_JH_JH@Z 00000001800380cc     libucrt:lseek.obj
 0002:0000c0cc       $unwind$__acrt_getptd_noexit 00000001800380cc     libucrt:per_thread_data.obj
 0002:0000c0cc       $unwind$?type_case_Z@?$output_processor@_WV?$stream_output_adapter@_W@__crt_stdio_output@@V?$standard_base@_WV?$stream_output_adapter@_W@__crt_stdio_output@@@2@@__crt_stdio_output@@AEAA_NXZ 00000001800380cc     libucrt:output.obj
 0002:0000c0cc       $unwind$__acrt_stdio_flush_and_write_wide_nolock 00000001800380cc     libucrt:_flsbuf.obj
 0002:0000c0cc       $unwind$__vcrt_getptd_noexit 00000001800380cc     libvcruntime:per_thread_data.obj
 0002:0000c0cc       $unwind$?type_case_s@?$output_processor@_WV?$stream_output_adapter@_W@__crt_stdio_output@@V?$standard_base@_WV?$stream_output_adapter@_W@__crt_stdio_output@@@2@@__crt_stdio_output@@AEAA_NXZ 00000001800380cc     libucrt:output.obj
 0002:0000c0cc       $unwind$memcpy_s           00000001800380cc     libucrt:cfout.obj
 0002:0000c0cc       $unwind$__acrt_stdio_flush_and_write_narrow_nolock 00000001800380cc     libucrt:_flsbuf.obj
 0002:0000c0cc       $unwind$_DllMainCRTStartup 00000001800380cc     LIBCMT:dll_dllmain.obj
 0002:0000c0cc       $unwind$__acrt_execute_uninitializers 00000001800380cc     libucrt:shared_initialization.obj
 0002:0000c0cc       $unwind$__vcrt_FlsSetValue 00000001800380cc     libvcruntime:winapi_downlevel.obj
 0002:0000c0cc       $unwind$_exception_enabled 00000001800380cc     libucrt:libm_error.obj
 0002:0000c0cc       $unwind$__acrt_FlsSetValue 00000001800380cc     libucrt:winapi_thunks.obj
 0002:0000c0cc       $unwind$?type_case_n@?$output_processor@_WV?$string_output_adapter@_W@__crt_stdio_output@@V?$standard_base@_WV?$string_output_adapter@_W@__crt_stdio_output@@@2@@__crt_stdio_output@@AEAA_NXZ 00000001800380cc     libucrt:output.obj
 0002:0000c0cc       $unwind$?type_case_n@?$output_processor@_WV?$stream_output_adapter@_W@__crt_stdio_output@@V?$standard_base@_WV?$stream_output_adapter@_W@__crt_stdio_output@@@2@@__crt_stdio_output@@AEAA_NXZ 00000001800380cc     libucrt:output.obj
 0002:0000c0dc       $unwind$_free_osfhnd       00000001800380dc     libucrt:osfinfo.obj
 0002:0000c0dc       $unwind$??0?$vector@V?$Local@VObject@v8@@@v8@@V?$allocator@V?$Local@VObject@v8@@@v8@@@std@@@std@@QEAA@AEBV01@@Z 00000001800380dc     metadata.obj
 0002:0000c0dc       $unwind$__std_exception_copy 00000001800380dc     libvcruntime:std_exception.obj
 0002:0000c0dc       $unwind$?initialize_stdio_handles_nolock@@YAXXZ 00000001800380dc     libucrt:ioinit.obj
 0002:0000c0dc       $unwind$?assign@?$basic_string@DU?$char_traits@D@std@@V?$allocator@D@2@@std@@QEAAAEAV12@AEBV12@_K1@Z 00000001800380dc     common.obj
 0002:0000c0f0       $unwind$__acrt_free_locale 00000001800380f0     libucrt:locale_refcounting.obj
 0002:0000c0f0       $unwind$_wassert           00000001800380f0     libucrt:assert.obj
 0002:0000c0f0       $unwind$__vcrt_InitializeCriticalSectionEx 00000001800380f0     libvcruntime:winapi_downlevel.obj
 0002:0000c0f0       $unwind$__acrt_InitializeCriticalSectionEx 00000001800380f0     libucrt:winapi_thunks.obj
 0002:0000c0f0       $unwind$??$ensure_buffer_is_big_enough@D@formatting_buffer@__crt_stdio_output@@QEAA_N_K@Z 00000001800380f0     libucrt:output.obj
 0002:0000c0f0       $unwind$?_ExecutionInCatch@@YAHPEAU_xDISPATCHER_CONTEXT@@PEBU_s_FuncInfo@@@Z 00000001800380f0     libvcruntime:trnsctrl.obj
 0002:0000c0f0       $unwind$_recalloc_base     00000001800380f0     libucrt:recalloc.obj
 0002:0000c0f0       $unwind$?_Reallocate@?$vector@V?$Local@VObject@v8@@@v8@@V?$allocator@V?$Local@VObject@v8@@@v8@@@std@@@std@@IEAAX_K@Z 00000001800380f0     common.obj
 0002:0000c0f0       $unwind$?setSBCS@@YAXPEAU__crt_multibyte_data@@@Z 00000001800380f0     libucrt:mbctype.obj
 0002:0000c0f0       $unwind$_seh_filter_exe    00000001800380f0     libucrt:exception_filter.obj
 0002:0000c0f0       $unwind$?expand_if_necessary@?$argument_list@D@?A0xca0879c4@@AEAAHXZ 00000001800380f0     libucrt:argv_wildcards.obj
 0002:0000c0f0       $unwind$__scrt_dllmain_exception_filter 00000001800380f0     LIBCMT:utility.obj
 0002:0000c0f0       $unwind$__acrt_execute_initializers 00000001800380f0     libucrt:shared_initialization.obj
 0002:0000c0f0       $unwind$__acrt_lowio_create_handle_array 00000001800380f0     libucrt:osfinfo.obj
 0002:0000c0f0       $unwind$?dllmain_raw@@YAHQEAUHINSTANCE__@@KQEAX@Z 00000001800380f0     LIBCMT:dll_dllmain.obj
 0002:0000c104       $unwind$?_Copy@?$basic_string@DU?$char_traits@D@std@@V?$allocator@D@2@@std@@QEAAX_K0@Z 0000000180038104     common.obj
 0002:0000c118       $unwind$??$_Integral_to_string@DH@std@@YA?AV?$basic_string@DU?$char_traits@D@std@@V?$allocator@D@2@@0@H@Z 0000000180038118     common.obj
 0002:0000c128       $unwind$??$New@VString@v8@@V?$basic_string@DU?$char_traits@D@std@@V?$allocator@D@2@@std@@@Nan@@YA?AV?$MaybeLocal@VString@v8@@@v8@@V?$basic_string@DU?$char_traits@D@std@@V?$allocator@D@2@@std@@@Z 0000000180038128     common.obj
 0002:0000c148       $ip2state$??$New@VString@v8@@V?$basic_string@DU?$char_traits@D@std@@V?$allocator@D@2@@std@@@Nan@@YA?AV?$MaybeLocal@VString@v8@@@v8@@V?$basic_string@DU?$char_traits@D@std@@V?$allocator@D@2@@std@@@Z 0000000180038148     common.obj
 0002:0000c160       $unwind$??$AttrAs@VFunction@v8@@@sharp@@YA?AV?$Local@VFunction@v8@@@v8@@V?$Local@VObject@v8@@@2@V?$basic_string@DU?$char_traits@D@std@@V?$allocator@D@2@@std@@@Z 0000000180038160     pipeline.obj
 0002:0000c160       $unwind$??$AttrAs@VArray@v8@@@sharp@@YA?AV?$Local@VArray@v8@@@v8@@V?$Local@VObject@v8@@@2@V?$basic_string@DU?$char_traits@D@std@@V?$allocator@D@2@@std@@@Z 0000000180038160     pipeline.obj
 0002:0000c160       $unwind$??$AttrAs@VObject@v8@@@sharp@@YA?AV?$Local@VObject@v8@@@v8@@V12@V?$basic_string@DU?$char_traits@D@std@@V?$allocator@D@2@@std@@@Z 0000000180038160     common.obj
 0002:0000c178       $ip2state$??$AttrAs@VArray@v8@@@sharp@@YA?AV?$Local@VArray@v8@@@v8@@V?$Local@VObject@v8@@@2@V?$basic_string@DU?$char_traits@D@std@@V?$allocator@D@2@@std@@@Z 0000000180038178     pipeline.obj
 0002:0000c178       $ip2state$??$AttrAs@VFunction@v8@@@sharp@@YA?AV?$Local@VFunction@v8@@@v8@@V?$Local@VObject@v8@@@2@V?$basic_string@DU?$char_traits@D@std@@V?$allocator@D@2@@std@@@Z 0000000180038178     pipeline.obj
 0002:0000c178       $ip2state$??$AttrAs@VObject@v8@@@sharp@@YA?AV?$Local@VObject@v8@@@v8@@V12@V?$basic_string@DU?$char_traits@D@std@@V?$allocator@D@2@@std@@@Z 0000000180038178     common.obj
 0002:0000c190       $unwind$??$AttrTo@I@sharp@@YAIV?$Local@VObject@v8@@@v8@@V?$basic_string@DU?$char_traits@D@std@@V?$allocator@D@2@@std@@@Z 0000000180038190     common.obj
 0002:0000c1a8       $stateUnwindMap$??$?0AEAY0P@$$CBDPEBDX$0A@@?$pair@V?$basic_string@DU?$char_traits@D@std@@V?$allocator@D@2@@std@@V12@@std@@QEAA@AEAY0P@$$CBD$$QEAPEBD@Z 00000001800381a8     pipeline.obj
 0002:0000c1a8       $stateUnwindMap$??$?0AEAY0BE@$$CBDPEBDX$0A@@?$pair@V?$basic_string@DU?$char_traits@D@std@@V?$allocator@D@2@@std@@V12@@std@@QEAA@AEAY0BE@$$CBD$$QEAPEBD@Z 00000001800381a8     pipeline.obj
 0002:0000c1a8       $stateUnwindMap$??$?0AEAY0BA@$$CBDAEAY04$$CBDX$0A@@?$pair@V?$basic_string@DU?$char_traits@D@std@@V?$allocator@D@2@@std@@V12@@std@@QEAA@AEAY0BA@$$CBDAEAY04$$CBD@Z 00000001800381a8     pipeline.obj
 0002:0000c1a8       $stateUnwindMap$??$?0AEAY0O@$$CBDPEBDX$0A@@?$pair@V?$basic_string@DU?$char_traits@D@std@@V?$allocator@D@2@@std@@V12@@std@@QEAA@AEAY0O@$$CBD$$QEAPEBD@Z 00000001800381a8     pipeline.obj
 0002:0000c1a8       $stateUnwindMap$??$?0AEAY09$$CBDPEBDX$0A@@?$pair@V?$basic_string@DU?$char_traits@D@std@@V?$allocator@D@2@@std@@V12@@std@@QEAA@AEAY09$$CBD$$QEAPEBD@Z 00000001800381a8     pipeline.obj
 0002:0000c1a8       $stateUnwindMap$??$AttrTo@I@sharp@@YAIV?$Local@VObject@v8@@@v8@@V?$basic_string@DU?$char_traits@D@std@@V?$allocator@D@2@@std@@@Z 00000001800381a8     common.obj
 0002:0000c1a8       $stateUnwindMap$??$AttrTo@H@sharp@@YAHV?$Local@VObject@v8@@@v8@@V?$basic_string@DU?$char_traits@D@std@@V?$allocator@D@2@@std@@@Z 00000001800381a8     pipeline.obj
 0002:0000c1a8       $stateUnwindMap$??$?0AEAY0N@$$CBDPEBDX$0A@@?$pair@V?$basic_string@DU?$char_traits@D@std@@V?$allocator@D@2@@std@@V12@@std@@QEAA@AEAY0N@$$CBD$$QEAPEBD@Z 00000001800381a8     pipeline.obj
 0002:0000c1a8       $stateUnwindMap$??$?0AEAY06$$CBDPEBDX$0A@@?$pair@V?$basic_string@DU?$char_traits@D@std@@V?$allocator@D@2@@std@@V12@@std@@QEAA@AEAY06$$CBD$$QEAPEBD@Z 00000001800381a8     pipeline.obj
 0002:0000c1a8       $stateUnwindMap$??$AttrTo@_N@sharp@@YA_NV?$Local@VObject@v8@@@v8@@V?$basic_string@DU?$char_traits@D@std@@V?$allocator@D@2@@std@@@Z 00000001800381a8     pipeline.obj
 0002:0000c1b0       $ip2state$??$AttrTo@I@sharp@@YAIV?$Local@VObject@v8@@@v8@@V?$basic_string@DU?$char_traits@D@std@@V?$allocator@D@2@@std@@@Z 00000001800381b0     common.obj
 0002:0000c1c8       $unwind$?Set@Nan@@YA?AV?$Maybe@_N@1@V?$Local@VObject@v8@@@v8@@V?$Local@VValue@v8@@@4@1@Z 00000001800381c8     metadata.obj
 0002:0000c1dc       $stateUnwindMap$?Set@Nan@@YA?AV?$Maybe@_N@1@V?$Local@VObject@v8@@@v8@@IV?$Local@VValue@v8@@@4@@Z 00000001800381dc     metadata.obj
 0002:0000c1dc       $stateUnwindMap$?Set@Nan@@YA?AV?$Maybe@_N@1@V?$Local@VObject@v8@@@v8@@V?$Local@VValue@v8@@@4@1@Z 00000001800381dc     metadata.obj
 0002:0000c1e8       $ip2state$?Set@Nan@@YA?AV?$Maybe@_N@1@V?$Local@VObject@v8@@@v8@@V?$Local@VValue@v8@@@4@1@Z 00000001800381e8     metadata.obj
 0002:0000c200       $unwind$?Set@Nan@@YA?AV?$Maybe@_N@1@V?$Local@VObject@v8@@@v8@@IV?$Local@VValue@v8@@@4@@Z 0000000180038200     metadata.obj
 0002:0000c218       $ip2state$?Set@Nan@@YA?AV?$Maybe@_N@1@V?$Local@VObject@v8@@@v8@@IV?$Local@VValue@v8@@@4@@Z 0000000180038218     metadata.obj
 0002:0000c230       $unwind$?Get@Nan@@YA?AV?$MaybeLocal@VValue@v8@@@v8@@V?$Local@VObject@v8@@@3@I@Z 0000000180038230     metadata.obj
 0002:0000c248       $ip2state$?Get@Nan@@YA?AV?$MaybeLocal@VValue@v8@@@v8@@V?$Local@VObject@v8@@@3@I@Z 0000000180038248     metadata.obj
 0002:0000c260       $unwind$?convert@?$ToFactory@VUint32@v8@@@imp@Nan@@SA?AV?$MaybeLocal@VUint32@v8@@@v8@@V?$Local@VValue@v8@@@5@@Z 0000000180038260     metadata.obj
 0002:0000c278       $ip2state$?convert@?$ToFactory@VUint32@v8@@@imp@Nan@@SA?AV?$MaybeLocal@VUint32@v8@@@v8@@V?$Local@VValue@v8@@@5@@Z 0000000180038278     metadata.obj
 0002:0000c290       $unwind$?Error@Nan@@YA?AV?$Local@VValue@v8@@@v8@@PEBD@Z 0000000180038290     metadata.obj
 0002:0000c2a8       $ip2state$?Error@Nan@@YA?AV?$Local@VValue@v8@@@v8@@PEBD@Z 00000001800382a8     metadata.obj
 0002:0000c2c0       $unwind$??4?$vector@NV?$allocator@N@std@@@std@@QEAAAEAV01@$$QEAV01@@Z 00000001800382c0     pipeline.obj
 0002:0000c2c0       $unwind$??0Callback@Nan@@QEAA@AEBV?$Local@VFunction@v8@@@v8@@@Z 00000001800382c0     metadata.obj
 0002:0000c2c0       $unwind$iswctype           00000001800382c0     libucrt:iswctype.obj
 0002:0000c2c0       $unwind$??$New@VUint32@v8@@H@Nan@@YA?AV?$Local@VUint32@v8@@@v8@@H@Z 00000001800382c0     metadata.obj
 0002:0000c2c0       $unwind$__acrt_is_packaged_app 00000001800382c0     libucrt:winapi_thunks.obj
 0002:0000c2cc       $unwind$?Call@Callback@Nan@@QEBA?AV?$Local@VValue@v8@@@v8@@HQEAV34@@Z 00000001800382cc     metadata.obj
 0002:0000c2e8       $stateUnwindMap$?Call@Callback@Nan@@QEBA?AV?$Local@VValue@v8@@@v8@@HQEAV34@@Z 00000001800382e8     metadata.obj
 0002:0000c2f0       $ip2state$?Call@Callback@Nan@@QEBA?AV?$Local@VValue@v8@@@v8@@HQEAV34@@Z 00000001800382f0     metadata.obj
 0002:0000c308       $unwind$?Call@Callback@Nan@@QEBA?AV?$MaybeLocal@VValue@v8@@@v8@@HQEAV?$Local@VValue@v8@@@4@PEAVAsyncResource@2@@Z 0000000180038308     metadata.obj
 0002:0000c324       $stateUnwindMap$?Call@Callback@Nan@@QEBA?AV?$MaybeLocal@VValue@v8@@@v8@@HQEAV?$Local@VValue@v8@@@4@PEAVAsyncResource@2@@Z 0000000180038324     metadata.obj
 0002:0000c330       $ip2state$?Call@Callback@Nan@@QEBA?AV?$MaybeLocal@VValue@v8@@@v8@@HQEAV?$Local@VValue@v8@@@4@PEAVAsyncResource@2@@Z 0000000180038330     metadata.obj
 0002:0000c348       $unwind$?Call_@Callback@Nan@@AEBA?AV?$Local@VValue@v8@@@v8@@PEAVIsolate@4@V?$Local@VObject@v8@@@4@HQEAV34@@Z 0000000180038348     metadata.obj
 0002:0000c360       $ip2state$?Call_@Callback@Nan@@AEBA?AV?$Local@VValue@v8@@@v8@@PEAVIsolate@4@V?$Local@VObject@v8@@@4@HQEAV34@@Z 0000000180038360     metadata.obj
 0002:0000c378       $unwind$??0AsyncWorker@Nan@@QEAA@PEAVCallback@1@PEBD@Z 0000000180038378     metadata.obj
 0002:0000c38c       $stateUnwindMap$??0AsyncWorker@Nan@@QEAA@PEAVCallback@1@PEBD@Z 000000018003838c     metadata.obj
 0002:0000c3a0       $ip2state$??0AsyncWorker@Nan@@QEAA@PEAVCallback@1@PEBD@Z 00000001800383a0     metadata.obj
 0002:0000c3c8       $unwind$??1AsyncWorker@Nan@@UEAA@XZ 00000001800383c8     metadata.obj
 0002:0000c3dc       $stateUnwindMap$??1AsyncWorker@Nan@@UEAA@XZ 00000001800383dc     metadata.obj
 0002:0000c3dc       $stateUnwindMap$?HandleOKCallback@PipelineWorker@@UEAAXXZ 00000001800383dc     pipeline.obj
 0002:0000c3f0       $ip2state$??1AsyncWorker@Nan@@UEAA@XZ 00000001800383f0     metadata.obj
 0002:0000c408       $unwind$?WorkComplete@AsyncWorker@Nan@@UEAAXXZ 0000000180038408     metadata.obj
 0002:0000c41c       $stateUnwindMap$?WorkComplete@AsyncWorker@Nan@@UEAAXXZ 000000018003841c     metadata.obj
 0002:0000c438       $ip2state$?WorkComplete@AsyncWorker@Nan@@UEAAXXZ 0000000180038438     metadata.obj
 0002:0000c460       $unwind$?GetFromPersistent@AsyncWorker@Nan@@QEBA?AV?$Local@VValue@v8@@@v8@@I@Z 0000000180038460     metadata.obj
 0002:0000c478       $stateUnwindMap$?GetFromPersistent@AsyncWorker@Nan@@QEBA?AV?$Local@VValue@v8@@@v8@@I@Z 0000000180038478     metadata.obj
 0002:0000c478       $stateUnwindMap$??$_Accumulate_unchecked@PEBV?$Local@VObject@v8@@@v8@@HV<lambda_1cf14cbc5c28648f7ac9038b3f6db2a5>@@@std@@YAHPEBV?$Local@VObject@v8@@@v8@@0HAEAV<lambda_1cf14cbc5c28648f7ac9038b3f6db2a5>@@@Z 0000000180038478     pipeline.obj
 0002:0000c478       $stateUnwindMap$??$_Accumulate_unchecked@PEBV?$Local@VObject@v8@@@v8@@HV<lambda_9252aa89fe9814f85e2a072fe573e6da>@@@std@@YAHPEBV?$Local@VObject@v8@@@v8@@0HAEAV<lambda_9252aa89fe9814f85e2a072fe573e6da>@@@Z 0000000180038478     metadata.obj
 0002:0000c480       $ip2state$?GetFromPersistent@AsyncWorker@Nan@@QEBA?AV?$Local@VValue@v8@@@v8@@I@Z 0000000180038480     metadata.obj
 0002:0000c498       $unwind$?HandleOKCallback@AsyncWorker@Nan@@MEAAXXZ 0000000180038498     metadata.obj
 0002:0000c4a8       $ip2state$?HandleOKCallback@AsyncWorker@Nan@@MEAAXXZ 00000001800384a8     metadata.obj
 0002:0000c4c0       $unwind$?HandleErrorCallback@AsyncWorker@Nan@@MEAAXXZ 00000001800384c0     metadata.obj
 0002:0000c4d8       $ip2state$?HandleErrorCallback@AsyncWorker@Nan@@MEAAXXZ 00000001800384d8     metadata.obj
 0002:0000c4f0       $unwind$??1?$Persistent@VObject@v8@@V?$NonCopyablePersistentTraits@VObject@v8@@@2@@Nan@@QEAA@XZ 00000001800384f0     metadata.obj
 0002:0000c500       $stateUnwindMap$??1?$Persistent@VObject@v8@@V?$NonCopyablePersistentTraits@VObject@v8@@@2@@Nan@@QEAA@XZ 0000000180038500     metadata.obj
 0002:0000c508       $ip2state$??1?$Persistent@VObject@v8@@V?$NonCopyablePersistentTraits@VObject@v8@@@2@@Nan@@QEAA@XZ 0000000180038508     metadata.obj
 0002:0000c510       $unwind$??0MetadataWorker@@QEAA@PEAVCallback@Nan@@PEAUMetadataBaton@@V?$vector@V?$Local@VObject@v8@@@v8@@V?$allocator@V?$Local@VObject@v8@@@v8@@@std@@@std@@@Z 0000000180038510     metadata.obj
 0002:0000c524       $stateUnwindMap$??0MetadataWorker@@QEAA@PEAVCallback@Nan@@PEAUMetadataBaton@@V?$vector@V?$Local@VObject@v8@@@v8@@V?$allocator@V?$Local@VObject@v8@@@v8@@@std@@@std@@@Z 0000000180038524     metadata.obj
 0002:0000c540       $ip2state$??0MetadataWorker@@QEAA@PEAVCallback@Nan@@PEAUMetadataBaton@@V?$vector@V?$Local@VObject@v8@@@v8@@V?$allocator@V?$Local@VObject@v8@@@v8@@@std@@@std@@@Z 0000000180038540     metadata.obj
 0002:0000c568       $unwind$?Execute@MetadataWorker@@UEAAXXZ 0000000180038568     metadata.obj
 0002:0000c588       $stateUnwindMap$?Execute@MetadataWorker@@UEAAXXZ 0000000180038588     metadata.obj
 0002:0000c5d0       $tryMap$?Execute@MetadataWorker@@UEAAXXZ 00000001800385d0     metadata.obj
 0002:0000c5e4       $handlerMap$0$?Execute@MetadataWorker@@UEAAXXZ 00000001800385e4     metadata.obj
 0002:0000c600       $ip2state$?Execute@MetadataWorker@@UEAAXXZ 0000000180038600     metadata.obj
 0002:0000c6a0       $unwind$?catch$14@?0??Execute@MetadataWorker@@UEAAXXZ@4HA 00000001800386a0     metadata.obj
 0002:0000c6b0       $unwind$?HandleOKCallback@MetadataWorker@@UEAAXXZ 00000001800386b0     metadata.obj
 0002:0000c6bc       $chain$1$?HandleOKCallback@MetadataWorker@@UEAAXXZ 00000001800386bc     metadata.obj
 0002:0000c6d4       $chain$2$?HandleOKCallback@MetadataWorker@@UEAAXXZ 00000001800386d4     metadata.obj
 0002:0000c6e8       $chain$3$?HandleOKCallback@MetadataWorker@@UEAAXXZ 00000001800386e8     metadata.obj
 0002:0000c6f8       $chain$4$?HandleOKCallback@MetadataWorker@@UEAAXXZ 00000001800386f8     metadata.obj
 0002:0000c708       $unwind$?metadata@@YAXAEBV?$FunctionCallbackInfo@VValue@v8@@@Nan@@@Z 0000000180038708     metadata.obj
 0002:0000c724       $stateUnwindMap$?metadata@@YAXAEBV?$FunctionCallbackInfo@VValue@v8@@@Nan@@@Z 0000000180038724     metadata.obj
 0002:0000c750       $ip2state$?metadata@@YAXAEBV?$FunctionCallbackInfo@VValue@v8@@@Nan@@@Z 0000000180038750     metadata.obj
 0002:0000c798       $unwind$?append@?$basic_string@DU?$char_traits@D@std@@V?$allocator@D@2@@std@@QEAAAEAV12@PEBD_K@Z 0000000180038798     metadata.obj
 0002:0000c7a8       $chain$0$?append@?$basic_string@DU?$char_traits@D@std@@V?$allocator@D@2@@std@@QEAAAEAV12@PEBD_K@Z 00000001800387a8     metadata.obj
 0002:0000c7bc       $chain$1$?append@?$basic_string@DU?$char_traits@D@std@@V?$allocator@D@2@@std@@QEAAAEAV12@PEBD_K@Z 00000001800387bc     metadata.obj
 0002:0000c7cc       $chain$2$?append@?$basic_string@DU?$char_traits@D@std@@V?$allocator@D@2@@std@@QEAAAEAV12@PEBD_K@Z 00000001800387cc     metadata.obj
 0002:0000c7e0       $unwind$?append@?$basic_string@DU?$char_traits@D@std@@V?$allocator@D@2@@std@@QEAAAEAV12@AEBV12@_K1@Z 00000001800387e0     metadata.obj
 0002:0000c7f4       $chain$0$?append@?$basic_string@DU?$char_traits@D@std@@V?$allocator@D@2@@std@@QEAAAEAV12@AEBV12@_K1@Z 00000001800387f4     metadata.obj
 0002:0000c808       $chain$1$?append@?$basic_string@DU?$char_traits@D@std@@V?$allocator@D@2@@std@@QEAAAEAV12@AEBV12@_K1@Z 0000000180038808     metadata.obj
 0002:0000c818       $chain$2$?append@?$basic_string@DU?$char_traits@D@std@@V?$allocator@D@2@@std@@QEAAAEAV12@AEBV12@_K1@Z 0000000180038818     metadata.obj
 0002:0000c82c       $unwind$??$_Accumulate_unchecked@PEBV?$Local@VObject@v8@@@v8@@HV<lambda_1cf14cbc5c28648f7ac9038b3f6db2a5>@@@std@@YAHPEBV?$Local@VObject@v8@@@v8@@0HAEAV<lambda_1cf14cbc5c28648f7ac9038b3f6db2a5>@@@Z 000000018003882c     pipeline.obj
 0002:0000c82c       $unwind$??$_Accumulate_unchecked@PEBV?$Local@VObject@v8@@@v8@@HV<lambda_9252aa89fe9814f85e2a072fe573e6da>@@@std@@YAHPEBV?$Local@VObject@v8@@@v8@@0HAEAV<lambda_9252aa89fe9814f85e2a072fe573e6da>@@@Z 000000018003882c     metadata.obj
 0002:0000c850       $ip2state$??$_Accumulate_unchecked@PEBV?$Local@VObject@v8@@@v8@@HV<lambda_9252aa89fe9814f85e2a072fe573e6da>@@@std@@YAHPEBV?$Local@VObject@v8@@@v8@@0HAEAV<lambda_9252aa89fe9814f85e2a072fe573e6da>@@@Z 0000000180038850     metadata.obj
 0002:0000c850       $ip2state$??$_Accumulate_unchecked@PEBV?$Local@VObject@v8@@@v8@@HV<lambda_1cf14cbc5c28648f7ac9038b3f6db2a5>@@@std@@YAHPEBV?$Local@VObject@v8@@@v8@@0HAEAV<lambda_1cf14cbc5c28648f7ac9038b3f6db2a5>@@@Z 0000000180038850     pipeline.obj
 0002:0000c868       $unwind$?Composite@sharp@@YA?AVVImage@vips@@V23@0H@Z 0000000180038868     operations.obj
 0002:0000c890       $stateUnwindMap$?Composite@sharp@@YA?AVVImage@vips@@V23@0HH@Z 0000000180038890     operations.obj
 0002:0000c890       $stateUnwindMap$?Composite@sharp@@YA?AVVImage@vips@@V23@0H@Z 0000000180038890     operations.obj
 0002:0000c8d0       $ip2state$?Composite@sharp@@YA?AVVImage@vips@@V23@0H@Z 00000001800388d0     operations.obj
 0002:0000c940       $unwind$?Composite@sharp@@YA?AVVImage@vips@@V23@0HH@Z 0000000180038940     operations.obj
 0002:0000c970       $ip2state$?Composite@sharp@@YA?AVVImage@vips@@V23@0HH@Z 0000000180038970     operations.obj
 0002:0000c9e0       $unwind$?IsInputValidForComposition@sharp@@YA_NVVImage@vips@@0@Z 00000001800389e0     operations.obj
 0002:0000ca04       $stateUnwindMap$?IsInputValidForComposition@sharp@@YA_NVVImage@vips@@0@Z 0000000180038a04     operations.obj
 0002:0000ca20       $ip2state$?IsInputValidForComposition@sharp@@YA_NVVImage@vips@@0@Z 0000000180038a20     operations.obj
 0002:0000ca60       $unwind$?CompositeImage@sharp@@YA?AVVImage@vips@@V23@0@Z 0000000180038a60     operations.obj
 0002:0000ca7c       $stateUnwindMap$?CompositeImage@sharp@@YA?AVVImage@vips@@V23@0@Z 0000000180038a7c     operations.obj
 0002:0000caf0       $ip2state$?CompositeImage@sharp@@YA?AVVImage@vips@@V23@0@Z 0000000180038af0     operations.obj
 0002:0000cbc0       $unwind$?Cutout@sharp@@YA?AVVImage@vips@@V23@0H@Z 0000000180038bc0     operations.obj
 0002:0000cbf0       $stateUnwindMap$?Cutout@sharp@@YA?AVVImage@vips@@V23@0H@Z 0000000180038bf0     operations.obj
 0002:0000cc50       $ip2state$?Cutout@sharp@@YA?AVVImage@vips@@V23@0H@Z 0000000180038c50     operations.obj
 0002:0000cd20       $unwind$?Normalise@sharp@@YA?AVVImage@vips@@V23@@Z 0000000180038d20     operations.obj
 0002:0000cd48       $stateUnwindMap$?Normalise@sharp@@YA?AVVImage@vips@@V23@@Z 0000000180038d48     operations.obj
 0002:0000cdb0       $ip2state$?Normalise@sharp@@YA?AVVImage@vips@@V23@@Z 0000000180038db0     operations.obj
 0002:0000ce48       $unwind$?Gamma@sharp@@YA?AVVImage@vips@@V23@N@Z 0000000180038e48     operations.obj
 0002:0000ce64       $stateUnwindMap$?Gamma@sharp@@YA?AVVImage@vips@@V23@N@Z 0000000180038e64     operations.obj
 0002:0000cea0       $ip2state$?Gamma@sharp@@YA?AVVImage@vips@@V23@N@Z 0000000180038ea0     operations.obj
 0002:0000cf00       $unwind$?Blur@sharp@@YA?AVVImage@vips@@V23@N@Z 0000000180038f00     operations.obj
 0002:0000cf14       $stateUnwindMap$?Blur@sharp@@YA?AVVImage@vips@@V23@N@Z 0000000180038f14     operations.obj
 0002:0000cf28       $ip2state$?Blur@sharp@@YA?AVVImage@vips@@V23@N@Z 0000000180038f28     operations.obj
 0002:0000cf50       $unwind$?Convolve@sharp@@YA?AVVImage@vips@@V23@HHNNAEBV?$unique_ptr@$$BY0A@NU?$default_delete@$$BY0A@N@std@@@std@@@Z 0000000180038f50     operations.obj
 0002:0000cf64       $stateUnwindMap$?Convolve@sharp@@YA?AVVImage@vips@@V23@HHNNAEBV?$unique_ptr@$$BY0A@NU?$default_delete@$$BY0A@N@std@@@std@@@Z 0000000180038f64     operations.obj
 0002:0000cf78       $ip2state$?Convolve@sharp@@YA?AVVImage@vips@@V23@HHNNAEBV?$unique_ptr@$$BY0A@NU?$default_delete@$$BY0A@N@std@@@std@@@Z 0000000180038f78     operations.obj
 0002:0000cfa0       $unwind$?Sharpen@sharp@@YA?AVVImage@vips@@V23@NNN@Z 0000000180038fa0     operations.obj
 0002:0000cfc4       $stateUnwindMap$?Sharpen@sharp@@YA?AVVImage@vips@@V23@NNN@Z 0000000180038fc4     operations.obj
 0002:0000cfe0       $ip2state$?Sharpen@sharp@@YA?AVVImage@vips@@V23@NNN@Z 0000000180038fe0     operations.obj
 0002:0000d018       $unwind$??RAttentionStrategy@sharp@@QEAANVVImage@vips@@@Z 0000000180039018     operations.obj
 0002:0000d040       $stateUnwindMap$??RAttentionStrategy@sharp@@QEAANVVImage@vips@@@Z 0000000180039040     operations.obj
 0002:0000d110       $ip2state$??RAttentionStrategy@sharp@@QEAANVVImage@vips@@@Z 0000000180039110     operations.obj
 0002:0000d280       $unwind$?Crop@sharp@@YA?AV?$tuple@HH@std@@VVImage@vips@@HHV?$function@$$A6ANVVImage@vips@@@Z@3@@Z 0000000180039280     operations.obj
 0002:0000d2ac       $stateUnwindMap$?Crop@sharp@@YA?AV?$tuple@HH@std@@VVImage@vips@@HHV?$function@$$A6ANVVImage@vips@@@Z@3@@Z 00000001800392ac     operations.obj
 0002:0000d2e0       $ip2state$?Crop@sharp@@YA?AV?$tuple@HH@std@@VVImage@vips@@HHV?$function@$$A6ANVVImage@vips@@@Z@3@@Z 00000001800392e0     operations.obj
 0002:0000d370       $unwind$?TileCache@sharp@@YA?AVVImage@vips@@V23@N@Z 0000000180039370     operations.obj
 0002:0000d38c       $stateUnwindMap$?TileCache@sharp@@YA?AVVImage@vips@@V23@N@Z 000000018003938c     operations.obj
 0002:0000d398       $ip2state$?TileCache@sharp@@YA?AVVImage@vips@@V23@N@Z 0000000180039398     operations.obj
 0002:0000d3b0       $unwind$?Threshold@sharp@@YA?AVVImage@vips@@V23@N_N@Z 00000001800393b0     operations.obj
 0002:0000d3c8       $stateUnwindMap$?Threshold@sharp@@YA?AVVImage@vips@@V23@N_N@Z 00000001800393c8     operations.obj
 0002:0000d3d0       $ip2state$?Threshold@sharp@@YA?AVVImage@vips@@V23@N_N@Z 00000001800393d0     operations.obj
 0002:0000d3e8       $unwind$?Bandbool@sharp@@YA?AVVImage@vips@@V23@W4VipsOperationBoolean@@@Z 00000001800393e8     operations.obj
 0002:0000d3fc       $stateUnwindMap$?Bandbool@sharp@@YA?AVVImage@vips@@V23@W4VipsOperationBoolean@@@Z 00000001800393fc     operations.obj
 0002:0000d410       $ip2state$?Bandbool@sharp@@YA?AVVImage@vips@@V23@W4VipsOperationBoolean@@@Z 0000000180039410     operations.obj
 0002:0000d438       $unwind$?Boolean@sharp@@YA?AVVImage@vips@@V23@0W4VipsOperationBoolean@@@Z 0000000180039438     operations.obj
 0002:0000d450       $stateUnwindMap$?Boolean@sharp@@YA?AVVImage@vips@@V23@0W4VipsOperationBoolean@@@Z 0000000180039450     operations.obj
 0002:0000d460       $ip2state$?Boolean@sharp@@YA?AVVImage@vips@@V23@0W4VipsOperationBoolean@@@Z 0000000180039460     operations.obj
 0002:0000d480       $unwind$?Trim@sharp@@YA?AVVImage@vips@@V23@H@Z 0000000180039480     operations.obj
 0002:0000d4ac       $stateUnwindMap$?Trim@sharp@@YA?AVVImage@vips@@V23@H@Z 00000001800394ac     operations.obj
 0002:0000d550       $ip2state$?Trim@sharp@@YA?AVVImage@vips@@V23@H@Z 0000000180039550     operations.obj
 0002:0000d660       $unwind$??$_Construct@PEBN@?$vector@NV?$allocator@N@std@@@std@@QEAAXPEBN0Uforward_iterator_tag@1@@Z 0000000180039660     operations.obj
 0002:0000d674       $chain$0$??$_Construct@PEBN@?$vector@NV?$allocator@N@std@@@std@@QEAAXPEBN0Uforward_iterator_tag@1@@Z 0000000180039674     operations.obj
 0002:0000d688       $chain$1$??$_Construct@PEBN@?$vector@NV?$allocator@N@std@@@std@@QEAAXPEBN0Uforward_iterator_tag@1@@Z 0000000180039688     operations.obj
 0002:0000d698       $unwind$?convert@?$ToFactory@N@imp@Nan@@SA?AV?$Maybe@N@3@V?$Local@VValue@v8@@@v8@@@Z 0000000180039698     pipeline.obj
 0002:0000d6b0       $stateUnwindMap$?convert@?$ToFactory@N@imp@Nan@@SA?AV?$Maybe@N@3@V?$Local@VValue@v8@@@v8@@@Z 00000001800396b0     pipeline.obj
 0002:0000d6b8       $ip2state$?convert@?$ToFactory@N@imp@Nan@@SA?AV?$Maybe@N@3@V?$Local@VValue@v8@@@v8@@@Z 00000001800396b8     pipeline.obj
 0002:0000d6d0       $unwind$?convert@?$ToFactory@H@imp@Nan@@SA?AV?$Maybe@H@3@V?$Local@VValue@v8@@@v8@@@Z 00000001800396d0     pipeline.obj
 0002:0000d6e8       $ip2state$?convert@?$ToFactory@H@imp@Nan@@SA?AV?$Maybe@H@3@V?$Local@VValue@v8@@@v8@@@Z 00000001800396e8     pipeline.obj
 0002:0000d700       $unwind$?convert@?$ToFactory@_N@imp@Nan@@SA?AV?$Maybe@_N@3@V?$Local@VValue@v8@@@v8@@@Z 0000000180039700     pipeline.obj
 0002:0000d718       $ip2state$?convert@?$ToFactory@_N@imp@Nan@@SA?AV?$Maybe@_N@3@V?$Local@VValue@v8@@@v8@@@Z 0000000180039718     pipeline.obj
 0002:0000d730       $unwind$??0PipelineBaton@@QEAA@XZ 0000000180039730     pipeline.obj
 0002:0000d744       $stateUnwindMap$??0PipelineBaton@@QEAA@XZ 0000000180039744     pipeline.obj
 0002:0000d780       $ip2state$??0PipelineBaton@@QEAA@XZ 0000000180039780     pipeline.obj
 0002:0000d7c0       $unwind$??0PipelineWorker@@QEAA@PEAVCallback@Nan@@PEAUPipelineBaton@@0V?$vector@V?$Local@VObject@v8@@@v8@@V?$allocator@V?$Local@VObject@v8@@@v8@@@std@@@std@@@Z 00000001800397c0     pipeline.obj
 0002:0000d7d8       $stateUnwindMap$??0PipelineWorker@@QEAA@PEAVCallback@Nan@@PEAUPipelineBaton@@0V?$vector@V?$Local@VObject@v8@@@v8@@V?$allocator@V?$Local@VObject@v8@@@v8@@@std@@@std@@@Z 00000001800397d8     pipeline.obj
 0002:0000d7f0       $ip2state$??0PipelineWorker@@QEAA@PEAVCallback@Nan@@PEAUPipelineBaton@@0V?$vector@V?$Local@VObject@v8@@@v8@@V?$allocator@V?$Local@VObject@v8@@@v8@@@std@@@std@@@Z 00000001800397f0     pipeline.obj
 0002:0000d818       $unwind$?Execute@PipelineWorker@@UEAAXXZ 0000000180039818     pipeline.obj
 0002:0000d864       $stateUnwindMap$?Execute@PipelineWorker@@UEAAXXZ 0000000180039864     pipeline.obj
 0002:0000dc84       $tryMap$?Execute@PipelineWorker@@UEAAXXZ 0000000180039c84     pipeline.obj
 0002:0000dcac       $handlerMap$0$?Execute@PipelineWorker@@UEAAXXZ 0000000180039cac     pipeline.obj
 0002:0000dcc0       $handlerMap$1$?Execute@PipelineWorker@@UEAAXXZ 0000000180039cc0     pipeline.obj
 0002:0000dce0       $ip2state$?Execute@PipelineWorker@@UEAAXXZ 0000000180039ce0     pipeline.obj
 0002:0000e4f0       $unwind$?catch$191@?0??Execute@PipelineWorker@@UEAAXXZ@4HA 000000018003a4f0     pipeline.obj
 0002:0000e4f0       $unwind$?catch$192@?0??Execute@PipelineWorker@@UEAAXXZ@4HA 000000018003a4f0     pipeline.obj
 0002:0000e500       $unwind$?HandleOKCallback@PipelineWorker@@UEAAXXZ 000000018003a500     pipeline.obj
 0002:0000e528       $ip2state$?HandleOKCallback@PipelineWorker@@UEAAXXZ 000000018003a528     pipeline.obj
 0002:0000e540       $unwind$?CalculateRotationAndFlip@PipelineWorker@@AEAA?AV?$tuple@W4VipsAngle@@_N_N@std@@HVVImage@vips@@@Z 000000018003a540     pipeline.obj
 0002:0000e55c       $stateUnwindMap$?CalculateRotationAndFlip@PipelineWorker@@AEAA?AV?$tuple@W4VipsAngle@@_N_N@std@@HVVImage@vips@@@Z 000000018003a55c     pipeline.obj
 0002:0000e570       $ip2state$?CalculateRotationAndFlip@PipelineWorker@@AEAA?AV?$tuple@W4VipsAngle@@_N_N@std@@HVVImage@vips@@@Z 000000018003a570     pipeline.obj
 0002:0000e5a0       $unwind$?AssembleSuffixString@PipelineWorker@@AEAA?AV?$basic_string@DU?$char_traits@D@std@@V?$allocator@D@2@@std@@V23@V?$vector@U?$pair@V?$basic_string@DU?$char_traits@D@std@@V?$allocator@D@2@@std@@V12@@std@@V?$allocator@U?$pair@V?$basic_string@DU?$char_traits@D@std@@V?$allocator@D@2@@std@@V12@@std@@@2@@3@@Z 000000018003a5a0     pipeline.obj
 0002:0000e5c4       $stateUnwindMap$?AssembleSuffixString@PipelineWorker@@AEAA?AV?$basic_string@DU?$char_traits@D@std@@V?$allocator@D@2@@std@@V23@V?$vector@U?$pair@V?$basic_string@DU?$char_traits@D@std@@V?$allocator@D@2@@std@@V12@@std@@V?$allocator@U?$pair@V?$basic_string@DU?$char_traits@D@std@@V?$allocator@D@2@@std@@V12@@std@@@2@@3@@Z 000000018003a5c4     pipeline.obj
 0002:0000e600       $ip2state$?AssembleSuffixString@PipelineWorker@@AEAA?AV?$basic_string@DU?$char_traits@D@std@@V?$allocator@D@2@@std@@V23@V?$vector@U?$pair@V?$basic_string@DU?$char_traits@D@std@@V?$allocator@D@2@@std@@V12@@std@@V?$allocator@U?$pair@V?$basic_string@DU?$char_traits@D@std@@V?$allocator@D@2@@std@@V12@@std@@@2@@3@@Z 000000018003a600     pipeline.obj
 0002:0000e680       $unwind$?pipeline@@YAXAEBV?$FunctionCallbackInfo@VValue@v8@@@Nan@@@Z 000000018003a680     pipeline.obj
 0002:0000e6ac       $stateUnwindMap$?pipeline@@YAXAEBV?$FunctionCallbackInfo@VValue@v8@@@Nan@@@Z 000000018003a6ac     pipeline.obj
 0002:0000e750       $ip2state$?pipeline@@YAXAEBV?$FunctionCallbackInfo@VValue@v8@@@Nan@@@Z 000000018003a750     pipeline.obj
 0002:0000e888       $unwind$??0?$vector@U?$pair@V?$basic_string@DU?$char_traits@D@std@@V?$allocator@D@2@@std@@V12@@std@@V?$allocator@U?$pair@V?$basic_string@DU?$char_traits@D@std@@V?$allocator@D@2@@std@@V12@@std@@@2@@std@@QEAA@V?$initializer_list@U?$pair@V?$basic_string@DU?$char_traits@D@std@@V?$allocator@D@2@@std@@V12@@std@@@1@AEBV?$allocator@U?$pair@V?$basic_string@DU?$char_traits@D@std@@V?$allocator@D@2@@std@@V12@@std@@@1@@Z 000000018003a888     pipeline.obj
 0002:0000e898       $unwind$??0?$vector@U?$pair@V?$basic_string@DU?$char_traits@D@std@@V?$allocator@D@2@@std@@V12@@std@@V?$allocator@U?$pair@V?$basic_string@DU?$char_traits@D@std@@V?$allocator@D@2@@std@@V12@@std@@@2@@std@@QEAA@AEBV01@@Z 000000018003a898     pipeline.obj
 0002:0000e8a4       $chain$0$??4?$vector@NV?$allocator@N@std@@@std@@QEAAAEAV01@$$QEAV01@@Z 000000018003a8a4     pipeline.obj
 0002:0000e8b8       $chain$1$??4?$vector@NV?$allocator@N@std@@@std@@QEAAAEAV01@$$QEAV01@@Z 000000018003a8b8     pipeline.obj
 0002:0000e8c8       $unwind$?erase@?$_Tree@V?$_Tmap_traits@W4VipsInterpretation@@V?$basic_string@DU?$char_traits@D@std@@V?$allocator@D@2@@std@@U?$less@W4VipsInterpretation@@@3@V?$allocator@U?$pair@$$CBW4VipsInterpretation@@V?$basic_string@DU?$char_traits@D@std@@V?$allocator@D@2@@std@@@std@@@3@$0A@@std@@@std@@QEAA?AV?$_Tree_iterator@V?$_Tree_val@U?$_Tree_simple_types@U?$pair@$$CBW4VipsInterpretation@@V?$basic_string@DU?$char_traits@D@std@@V?$allocator@D@2@@std@@@std@@@std@@@std@@@2@V?$_Tree_const_iterator@V?$_Tree_val@U?$_Tree_simple_types@U?$pair@$$CBW4VipsInterpretation@@V?$basic_string@DU?$char_traits@D@std@@V?$allocator@D@2@@std@@@std@@@std@@@std@@@2@0@Z 000000018003a8c8     pipeline.obj
 0002:0000e8d4       $unwind$?type_case_c_tchar@?$output_processor@_WV?$stream_output_adapter@_W@__crt_stdio_output@@V?$standard_base@_WV?$stream_output_adapter@_W@__crt_stdio_output@@@2@@__crt_stdio_output@@AEAA_N_W@Z 000000018003a8d4     libucrt:output.obj
 0002:0000e8d4       $unwind$??R<lambda_b721fa326cdb32351d23dfa67958c160>@@QEBAHXZ 000000018003a8d4     libucrt:setvbuf.obj
 0002:0000e8d4       $unwind$?_Reallocate@?$vector@NV?$allocator@N@std@@@std@@IEAAX_K@Z 000000018003a8d4     pipeline.obj
 0002:0000e8d4       $unwind$?type_case_c_tchar@?$output_processor@_WV?$string_output_adapter@_W@__crt_stdio_output@@V?$standard_base@_WV?$string_output_adapter@_W@__crt_stdio_output@@@2@@__crt_stdio_output@@AEAA_N_W@Z 000000018003a8d4     libucrt:output.obj
 0002:0000e8d4       $unwind$?_Reallocate@?$vector@PEAUInputDescriptor@sharp@@V?$allocator@PEAUInputDescriptor@sharp@@@std@@@std@@IEAAX_K@Z 000000018003a8d4     pipeline.obj
 0002:0000e8e4       $chain$0$?_Reallocate@?$vector@NV?$allocator@N@std@@@std@@IEAAX_K@Z 000000018003a8e4     pipeline.obj
 0002:0000e8e4       $chain$0$?_Reallocate@?$vector@PEAUInputDescriptor@sharp@@V?$allocator@PEAUInputDescriptor@sharp@@@std@@@std@@IEAAX_K@Z 000000018003a8e4     pipeline.obj
 0002:0000e8f8       $chain$1$?_Reallocate@?$vector@NV?$allocator@N@std@@@std@@IEAAX_K@Z 000000018003a8f8     pipeline.obj
 0002:0000e8f8       $chain$1$?_Reallocate@?$vector@PEAUInputDescriptor@sharp@@V?$allocator@PEAUInputDescriptor@sharp@@@std@@@std@@IEAAX_K@Z 000000018003a8f8     pipeline.obj
 0002:0000e908       $unwind$?erase@?$_Tree@V?$_Tmap_traits@W4VipsInterpretation@@V?$basic_string@DU?$char_traits@D@std@@V?$allocator@D@2@@std@@U?$less@W4VipsInterpretation@@@3@V?$allocator@U?$pair@$$CBW4VipsInterpretation@@V?$basic_string@DU?$char_traits@D@std@@V?$allocator@D@2@@std@@@std@@@3@$0A@@std@@@std@@QEAA?AV?$_Tree_iterator@V?$_Tree_val@U?$_Tree_simple_types@U?$pair@$$CBW4VipsInterpretation@@V?$basic_string@DU?$char_traits@D@std@@V?$allocator@D@2@@std@@@std@@@std@@@std@@@2@V?$_Tree_const_iterator@V?$_Tree_val@U?$_Tree_simple_types@U?$pair@$$CBW4VipsInterpretation@@V?$basic_string@DU?$char_traits@D@std@@V?$allocator@D@2@@std@@@std@@@std@@@std@@@2@@Z 000000018003a908     pipeline.obj
 0002:0000e91c       $unwind$?_Erase@?$_Tree@V?$_Tmap_traits@W4VipsInterpretation@@V?$basic_string@DU?$char_traits@D@std@@V?$allocator@D@2@@std@@U?$less@W4VipsInterpretation@@@3@V?$allocator@U?$pair@$$CBW4VipsInterpretation@@V?$basic_string@DU?$char_traits@D@std@@V?$allocator@D@2@@std@@@std@@@3@$0A@@std@@@std@@IEAAXPEAU?$_Tree_node@U?$pair@$$CBW4VipsInterpretation@@V?$basic_string@DU?$char_traits@D@std@@V?$allocator@D@2@@std@@@std@@PEAX@2@@Z 000000018003a91c     pipeline.obj
 0002:0000e92c       $chain$0$?_Erase@?$_Tree@V?$_Tmap_traits@W4VipsInterpretation@@V?$basic_string@DU?$char_traits@D@std@@V?$allocator@D@2@@std@@U?$less@W4VipsInterpretation@@@3@V?$allocator@U?$pair@$$CBW4VipsInterpretation@@V?$basic_string@DU?$char_traits@D@std@@V?$allocator@D@2@@std@@@std@@@3@$0A@@std@@@std@@IEAAXPEAU?$_Tree_node@U?$pair@$$CBW4VipsInterpretation@@V?$basic_string@DU?$char_traits@D@std@@V?$allocator@D@2@@std@@@std@@PEAX@2@@Z 000000018003a92c     pipeline.obj
 0002:0000e940       $chain$1$?_Erase@?$_Tree@V?$_Tmap_traits@W4VipsInterpretation@@V?$basic_string@DU?$char_traits@D@std@@V?$allocator@D@2@@std@@U?$less@W4VipsInterpretation@@@3@V?$allocator@U?$pair@$$CBW4VipsInterpretation@@V?$basic_string@DU?$char_traits@D@std@@V?$allocator@D@2@@std@@@std@@@3@$0A@@std@@@std@@IEAAXPEAU?$_Tree_node@U?$pair@$$CBW4VipsInterpretation@@V?$basic_string@DU?$char_traits@D@std@@V?$allocator@D@2@@std@@@std@@PEAX@2@@Z 000000018003a940     pipeline.obj
 0002:0000e950       $chain$2$?_Erase@?$_Tree@V?$_Tmap_traits@W4VipsInterpretation@@V?$basic_string@DU?$char_traits@D@std@@V?$allocator@D@2@@std@@U?$less@W4VipsInterpretation@@@3@V?$allocator@U?$pair@$$CBW4VipsInterpretation@@V?$basic_string@DU?$char_traits@D@std@@V?$allocator@D@2@@std@@@std@@@3@$0A@@std@@@std@@IEAAXPEAU?$_Tree_node@U?$pair@$$CBW4VipsInterpretation@@V?$basic_string@DU?$char_traits@D@std@@V?$allocator@D@2@@std@@@std@@PEAX@2@@Z 000000018003a950     pipeline.obj
 0002:0000e964       $unwind$??$?HDU?$char_traits@D@std@@V?$allocator@D@1@@std@@YA?AV?$basic_string@DU?$char_traits@D@std@@V?$allocator@D@2@@0@AEBV10@PEBD@Z 000000018003a964     pipeline.obj
 0002:0000e980       $ip2state$??$?HDU?$char_traits@D@std@@V?$allocator@D@1@@std@@YA?AV?$basic_string@DU?$char_traits@D@std@@V?$allocator@D@2@@0@AEBV10@PEBD@Z 000000018003a980     pipeline.obj
 0002:0000e990       $unwind$??$?0AEAY09$$CBDPEBDX$0A@@?$pair@V?$basic_string@DU?$char_traits@D@std@@V?$allocator@D@2@@std@@V12@@std@@QEAA@AEAY09$$CBD$$QEAPEBD@Z 000000018003a990     pipeline.obj
 0002:0000e9a8       $ip2state$??$?0AEAY09$$CBDPEBDX$0A@@?$pair@V?$basic_string@DU?$char_traits@D@std@@V?$allocator@D@2@@std@@V12@@std@@QEAA@AEAY09$$CBD$$QEAPEBD@Z 000000018003a9a8     pipeline.obj
 0002:0000e9c0       $unwind$??$?0AEAY06$$CBDPEBDX$0A@@?$pair@V?$basic_string@DU?$char_traits@D@std@@V?$allocator@D@2@@std@@V12@@std@@QEAA@AEAY06$$CBD$$QEAPEBD@Z 000000018003a9c0     pipeline.obj
 0002:0000e9d8       $ip2state$??$?0AEAY06$$CBDPEBDX$0A@@?$pair@V?$basic_string@DU?$char_traits@D@std@@V?$allocator@D@2@@std@@V12@@std@@QEAA@AEAY06$$CBD$$QEAPEBD@Z 000000018003a9d8     pipeline.obj
 0002:0000e9f0       $unwind$??$?0AEAY0N@$$CBDPEBDX$0A@@?$pair@V?$basic_string@DU?$char_traits@D@std@@V?$allocator@D@2@@std@@V12@@std@@QEAA@AEAY0N@$$CBD$$QEAPEBD@Z 000000018003a9f0     pipeline.obj
 0002:0000ea08       $ip2state$??$?0AEAY0N@$$CBDPEBDX$0A@@?$pair@V?$basic_string@DU?$char_traits@D@std@@V?$allocator@D@2@@std@@V12@@std@@QEAA@AEAY0N@$$CBD$$QEAPEBD@Z 000000018003aa08     pipeline.obj
 0002:0000ea20       $unwind$??$?0AEAY0O@$$CBDPEBDX$0A@@?$pair@V?$basic_string@DU?$char_traits@D@std@@V?$allocator@D@2@@std@@V12@@std@@QEAA@AEAY0O@$$CBD$$QEAPEBD@Z 000000018003aa20     pipeline.obj
 0002:0000ea38       $ip2state$??$?0AEAY0O@$$CBDPEBDX$0A@@?$pair@V?$basic_string@DU?$char_traits@D@std@@V?$allocator@D@2@@std@@V12@@std@@QEAA@AEAY0O@$$CBD$$QEAPEBD@Z 000000018003aa38     pipeline.obj
 0002:0000ea50       $unwind$??$?0AEAY0BE@$$CBDPEBDX$0A@@?$pair@V?$basic_string@DU?$char_traits@D@std@@V?$allocator@D@2@@std@@V12@@std@@QEAA@AEAY0BE@$$CBD$$QEAPEBD@Z 000000018003aa50     pipeline.obj
 0002:0000ea68       $ip2state$??$?0AEAY0BE@$$CBDPEBDX$0A@@?$pair@V?$basic_string@DU?$char_traits@D@std@@V?$allocator@D@2@@std@@V12@@std@@QEAA@AEAY0BE@$$CBD$$QEAPEBD@Z 000000018003aa68     pipeline.obj
 0002:0000ea80       $unwind$??$?0AEAY0P@$$CBDPEBDX$0A@@?$pair@V?$basic_string@DU?$char_traits@D@std@@V?$allocator@D@2@@std@@V12@@std@@QEAA@AEAY0P@$$CBD$$QEAPEBD@Z 000000018003aa80     pipeline.obj
 0002:0000ea98       $ip2state$??$?0AEAY0P@$$CBDPEBDX$0A@@?$pair@V?$basic_string@DU?$char_traits@D@std@@V?$allocator@D@2@@std@@V12@@std@@QEAA@AEAY0P@$$CBD$$QEAPEBD@Z 000000018003aa98     pipeline.obj
 0002:0000eab0       $unwind$??$?0AEAY0BA@$$CBDAEAY04$$CBDX$0A@@?$pair@V?$basic_string@DU?$char_traits@D@std@@V?$allocator@D@2@@std@@V12@@std@@QEAA@AEAY0BA@$$CBDAEAY04$$CBD@Z 000000018003aab0     pipeline.obj
 0002:0000eac0       $ip2state$??$?0AEAY0BA@$$CBDAEAY04$$CBDX$0A@@?$pair@V?$basic_string@DU?$char_traits@D@std@@V?$allocator@D@2@@std@@V12@@std@@QEAA@AEAY0BA@$$CBDAEAY04$$CBD@Z 000000018003aac0     pipeline.obj
 0002:0000ead8       $unwind$??$?HDU?$char_traits@D@std@@V?$allocator@D@1@@std@@YA?AV?$basic_string@DU?$char_traits@D@std@@V?$allocator@D@2@@0@PEBDAEBV10@@Z 000000018003aad8     pipeline.obj
 0002:0000eaf0       $ip2state$??$?HDU?$char_traits@D@std@@V?$allocator@D@1@@std@@YA?AV?$basic_string@DU?$char_traits@D@std@@V?$allocator@D@2@@0@PEBDAEBV10@@Z 000000018003aaf0     pipeline.obj
 0002:0000eb00       $unwind$??$AttrTo@_N@sharp@@YA_NV?$Local@VObject@v8@@@v8@@V?$basic_string@DU?$char_traits@D@std@@V?$allocator@D@2@@std@@@Z 000000018003ab00     pipeline.obj
 0002:0000eb18       $ip2state$??$AttrTo@_N@sharp@@YA_NV?$Local@VObject@v8@@@v8@@V?$basic_string@DU?$char_traits@D@std@@V?$allocator@D@2@@std@@@Z 000000018003ab18     pipeline.obj
 0002:0000eb30       $unwind$??$AttrTo@H@sharp@@YAHV?$Local@VObject@v8@@@v8@@V?$basic_string@DU?$char_traits@D@std@@V?$allocator@D@2@@std@@@Z 000000018003ab30     pipeline.obj
 0002:0000eb48       $ip2state$??$AttrTo@H@sharp@@YAHV?$Local@VObject@v8@@@v8@@V?$basic_string@DU?$char_traits@D@std@@V?$allocator@D@2@@std@@@Z 000000018003ab48     pipeline.obj
 0002:0000eb60       $unwind$??$AttrTo@N@sharp@@YANV?$Local@VObject@v8@@@v8@@V?$basic_string@DU?$char_traits@D@std@@V?$allocator@D@2@@std@@@Z 000000018003ab60     pipeline.obj
 0002:0000eb78       $stateUnwindMap$??$AttrTo@N@sharp@@YANV?$Local@VObject@v8@@@v8@@V?$basic_string@DU?$char_traits@D@std@@V?$allocator@D@2@@std@@@Z 000000018003ab78     pipeline.obj
 0002:0000eb80       $ip2state$??$AttrTo@N@sharp@@YANV?$Local@VObject@v8@@@v8@@V?$basic_string@DU?$char_traits@D@std@@V?$allocator@D@2@@std@@@Z 000000018003ab80     pipeline.obj
 0002:0000eb98       $unwind$??$_For_each_unchecked@PEAPEAUInputDescriptor@sharp@@V<lambda_c3ae18baaead4f54367c36d71046f7c6>@@@std@@YAXPEAPEAUInputDescriptor@sharp@@0AEAV<lambda_c3ae18baaead4f54367c36d71046f7c6>@@@Z 000000018003ab98     pipeline.obj
 0002:0000eba4       $chain$2$??$_For_each_unchecked@PEAPEAUInputDescriptor@sharp@@V<lambda_c3ae18baaead4f54367c36d71046f7c6>@@@std@@YAXPEAPEAUInputDescriptor@sharp@@0AEAV<lambda_c3ae18baaead4f54367c36d71046f7c6>@@@Z 000000018003aba4     pipeline.obj
 0002:0000ebc0       $chain$3$??$_For_each_unchecked@PEAPEAUInputDescriptor@sharp@@V<lambda_c3ae18baaead4f54367c36d71046f7c6>@@@std@@YAXPEAPEAUInputDescriptor@sharp@@0AEAV<lambda_c3ae18baaead4f54367c36d71046f7c6>@@@Z 000000018003abc0     pipeline.obj
 0002:0000ebd0       $chain$4$??$_For_each_unchecked@PEAPEAUInputDescriptor@sharp@@V<lambda_c3ae18baaead4f54367c36d71046f7c6>@@@std@@YAXPEAPEAUInputDescriptor@sharp@@0AEAV<lambda_c3ae18baaead4f54367c36d71046f7c6>@@@Z 000000018003abd0     pipeline.obj
 0002:0000ebec       $unwind$??$_Try_emplace@AEBW4VipsInterpretation@@$$V@?$map@W4VipsInterpretation@@V?$basic_string@DU?$char_traits@D@std@@V?$allocator@D@2@@std@@U?$less@W4VipsInterpretation@@@3@V?$allocator@U?$pair@$$CBW4VipsInterpretation@@V?$basic_string@DU?$char_traits@D@std@@V?$allocator@D@2@@std@@@std@@@3@@std@@QEAA?AU?$pair@V?$_Tree_iterator@V?$_Tree_val@U?$_Tree_simple_types@U?$pair@$$CBW4VipsInterpretation@@V?$basic_string@DU?$char_traits@D@std@@V?$allocator@D@2@@std@@@std@@@std@@@std@@@std@@_N@1@AEBW4VipsInterpretation@@@Z 000000018003abec     pipeline.obj
 0002:0000ebec       $unwind$??$_Try_emplace@W4VipsInterpretation@@$$V@?$map@W4VipsInterpretation@@V?$basic_string@DU?$char_traits@D@std@@V?$allocator@D@2@@std@@U?$less@W4VipsInterpretation@@@3@V?$allocator@U?$pair@$$CBW4VipsInterpretation@@V?$basic_string@DU?$char_traits@D@std@@V?$allocator@D@2@@std@@@std@@@3@@std@@QEAA?AU?$pair@V?$_Tree_iterator@V?$_Tree_val@U?$_Tree_simple_types@U?$pair@$$CBW4VipsInterpretation@@V?$basic_string@DU?$char_traits@D@std@@V?$allocator@D@2@@std@@@std@@@std@@@std@@@std@@_N@1@$$QEAW4VipsInterpretation@@@Z 000000018003abec     pipeline.obj
 0002:0000ec00       $unwind$??$_Assign@PEBN@?$vector@NV?$allocator@N@std@@@std@@QEAAXPEBN0Uforward_iterator_tag@1@@Z 000000018003ac00     pipeline.obj
 0002:0000ec14       $chain$0$??$_Assign@PEBN@?$vector@NV?$allocator@N@std@@@std@@QEAAXPEBN0Uforward_iterator_tag@1@@Z 000000018003ac14     pipeline.obj
 0002:0000ec28       $chain$1$??$_Assign@PEBN@?$vector@NV?$allocator@N@std@@@std@@QEAAXPEBN0Uforward_iterator_tag@1@@Z 000000018003ac28     pipeline.obj
 0002:0000ec38       $unwind$??$_Destroy_range1@V?$allocator@U?$pair@V?$basic_string@DU?$char_traits@D@std@@V?$allocator@D@2@@std@@V12@@std@@@std@@PEAU?$pair@V?$basic_string@DU?$char_traits@D@std@@V?$allocator@D@2@@std@@V12@@2@@std@@YAXPEAU?$pair@V?$basic_string@DU?$char_traits@D@std@@V?$allocator@D@2@@std@@V12@@0@0AEAU?$_Wrap_alloc@V?$allocator@U?$pair@V?$basic_string@DU?$char_traits@D@std@@V?$allocator@D@2@@std@@V12@@std@@@std@@@0@U?$integral_constant@_N$0A@@0@@Z 000000018003ac38     pipeline.obj
 0002:0000ec40       $chain$1$??$_Destroy_range1@V?$allocator@U?$pair@V?$basic_string@DU?$char_traits@D@std@@V?$allocator@D@2@@std@@V12@@std@@@std@@PEAU?$pair@V?$basic_string@DU?$char_traits@D@std@@V?$allocator@D@2@@std@@V12@@2@@std@@YAXPEAU?$pair@V?$basic_string@DU?$char_traits@D@std@@V?$allocator@D@2@@std@@V12@@0@0AEAU?$_Wrap_alloc@V?$allocator@U?$pair@V?$basic_string@DU?$char_traits@D@std@@V?$allocator@D@2@@std@@V12@@std@@@std@@@0@U?$integral_constant@_N$0A@@0@@Z 000000018003ac40     pipeline.obj
 0002:0000ec58       $chain$2$??$_Destroy_range1@V?$allocator@U?$pair@V?$basic_string@DU?$char_traits@D@std@@V?$allocator@D@2@@std@@V12@@std@@@std@@PEAU?$pair@V?$basic_string@DU?$char_traits@D@std@@V?$allocator@D@2@@std@@V12@@2@@std@@YAXPEAU?$pair@V?$basic_string@DU?$char_traits@D@std@@V?$allocator@D@2@@std@@V12@@0@0AEAU?$_Wrap_alloc@V?$allocator@U?$pair@V?$basic_string@DU?$char_traits@D@std@@V?$allocator@D@2@@std@@V12@@std@@@std@@@0@U?$integral_constant@_N$0A@@0@@Z 000000018003ac58     pipeline.obj
 0002:0000ec68       $chain$3$??$_Destroy_range1@V?$allocator@U?$pair@V?$basic_string@DU?$char_traits@D@std@@V?$allocator@D@2@@std@@V12@@std@@@std@@PEAU?$pair@V?$basic_string@DU?$char_traits@D@std@@V?$allocator@D@2@@std@@V12@@2@@std@@YAXPEAU?$pair@V?$basic_string@DU?$char_traits@D@std@@V?$allocator@D@2@@std@@V12@@0@0AEAU?$_Wrap_alloc@V?$allocator@U?$pair@V?$basic_string@DU?$char_traits@D@std@@V?$allocator@D@2@@std@@V12@@std@@@std@@@0@U?$integral_constant@_N$0A@@0@@Z 000000018003ac68     pipeline.obj
 0002:0000ec80       $unwind$??$_Insert_nohint@AEAU?$pair@$$CBW4VipsInterpretation@@V?$basic_string@DU?$char_traits@D@std@@V?$allocator@D@2@@std@@@std@@PEAU?$_Tree_node@U?$pair@$$CBW4VipsInterpretation@@V?$basic_string@DU?$char_traits@D@std@@V?$allocator@D@2@@std@@@std@@PEAX@2@@?$_Tree@V?$_Tmap_traits@W4VipsInterpretation@@V?$basic_string@DU?$char_traits@D@std@@V?$allocator@D@2@@std@@U?$less@W4VipsInterpretation@@@3@V?$allocator@U?$pair@$$CBW4VipsInterpretation@@V?$basic_string@DU?$char_traits@D@std@@V?$allocator@D@2@@std@@@std@@@3@$0A@@std@@@std@@IEAA?AU?$pair@V?$_Tree_iterator@V?$_Tree_val@U?$_Tree_simple_types@U?$pair@$$CBW4VipsInterpretation@@V?$basic_string@DU?$char_traits@D@std@@V?$allocator@D@2@@std@@@std@@@std@@@std@@@std@@_N@1@_NAEAU?$pair@$$CBW4VipsInterpretation@@V?$basic_string@DU?$char_traits@D@std@@V?$allocator@D@2@@std@@@1@PEAU?$_Tree_node@U?$pair@$$CBW4VipsInterpretation@@V?$basic_string@DU?$char_traits@D@std@@V?$allocator@D@2@@std@@@std@@PEAX@1@@Z 000000018003ac80     pipeline.obj
 0002:0000ec90       $unwind$?_Do_call@?$_Func_impl@UEntropyStrategy@sharp@@V?$allocator@H@std@@NVVImage@vips@@@std@@EEAAN$$QEAVVImage@vips@@@Z 000000018003ac90     pipeline.obj
 0002:0000eca4       $stateUnwindMap$?_Do_call@?$_Func_impl@UEntropyStrategy@sharp@@V?$allocator@H@std@@NVVImage@vips@@@std@@EEAAN$$QEAVVImage@vips@@@Z 000000018003aca4     pipeline.obj
 0002:0000ecb8       $ip2state$?_Do_call@?$_Func_impl@UEntropyStrategy@sharp@@V?$allocator@H@std@@NVVImage@vips@@@std@@EEAAN$$QEAVVImage@vips@@@Z 000000018003acb8     pipeline.obj
 0002:0000ece0       $unwind$??$_Insert_hint@AEAU?$pair@$$CBW4VipsInterpretation@@V?$basic_string@DU?$char_traits@D@std@@V?$allocator@D@2@@std@@@std@@PEAU?$_Tree_node@U?$pair@$$CBW4VipsInterpretation@@V?$basic_string@DU?$char_traits@D@std@@V?$allocator@D@2@@std@@@std@@PEAX@2@@?$_Tree@V?$_Tmap_traits@W4VipsInterpretation@@V?$basic_string@DU?$char_traits@D@std@@V?$allocator@D@2@@std@@U?$less@W4VipsInterpretation@@@3@V?$allocator@U?$pair@$$CBW4VipsInterpretation@@V?$basic_string@DU?$char_traits@D@std@@V?$allocator@D@2@@std@@@std@@@3@$0A@@std@@@std@@IEAA?AV?$_Tree_iterator@V?$_Tree_val@U?$_Tree_simple_types@U?$pair@$$CBW4VipsInterpretation@@V?$basic_string@DU?$char_traits@D@std@@V?$allocator@D@2@@std@@@std@@@std@@@std@@@1@V?$_Tree_const_iterator@V?$_Tree_val@U?$_Tree_simple_types@U?$pair@$$CBW4VipsInterpretation@@V?$basic_string@DU?$char_traits@D@std@@V?$allocator@D@2@@std@@@std@@@std@@@std@@@1@AEAU?$pair@$$CBW4VipsInterpretation@@V?$basic_string@DU?$char_traits@D@std@@V?$allocator@D@2@@std@@@1@PEAU?$_Tree_node@U?$pair@$$CBW4VipsInterpretation@@V?$basic_string@DU?$char_traits@D@std@@V?$allocator@D@2@@std@@@std@@PEAX@1@@Z 000000018003ace0     pipeline.obj
 0002:0000ecec       $chain$0$??$_Insert_hint@AEAU?$pair@$$CBW4VipsInterpretation@@V?$basic_string@DU?$char_traits@D@std@@V?$allocator@D@2@@std@@@std@@PEAU?$_Tree_node@U?$pair@$$CBW4VipsInterpretation@@V?$basic_string@DU?$char_traits@D@std@@V?$allocator@D@2@@std@@@std@@PEAX@2@@?$_Tree@V?$_Tmap_traits@W4VipsInterpretation@@V?$basic_string@DU?$char_traits@D@std@@V?$allocator@D@2@@std@@U?$less@W4VipsInterpretation@@@3@V?$allocator@U?$pair@$$CBW4VipsInterpretation@@V?$basic_string@DU?$char_traits@D@std@@V?$allocator@D@2@@std@@@std@@@3@$0A@@std@@@std@@IEAA?AV?$_Tree_iterator@V?$_Tree_val@U?$_Tree_simple_types@U?$pair@$$CBW4VipsInterpretation@@V?$basic_string@DU?$char_traits@D@std@@V?$allocator@D@2@@std@@@std@@@std@@@std@@@1@V?$_Tree_const_iterator@V?$_Tree_val@U?$_Tree_simple_types@U?$pair@$$CBW4VipsInterpretation@@V?$basic_string@DU?$char_traits@D@std@@V?$allocator@D@2@@std@@@std@@@std@@@std@@@1@AEAU?$pair@$$CBW4VipsInterpretation@@V?$basic_string@DU?$char_traits@D@std@@V?$allocator@D@2@@std@@@1@PEAU?$_Tree_node@U?$pair@$$CBW4VipsInterpretation@@V?$basic_string@DU?$char_traits@D@std@@V?$allocator@D@2@@std@@@std@@PEAX@1@@Z 000000018003acec     pipeline.obj
 0002:0000ed00       $chain$6$??$_Insert_hint@AEAU?$pair@$$CBW4VipsInterpretation@@V?$basic_string@DU?$char_traits@D@std@@V?$allocator@D@2@@std@@@std@@PEAU?$_Tree_node@U?$pair@$$CBW4VipsInterpretation@@V?$basic_string@DU?$char_traits@D@std@@V?$allocator@D@2@@std@@@std@@PEAX@2@@?$_Tree@V?$_Tmap_traits@W4VipsInterpretation@@V?$basic_string@DU?$char_traits@D@std@@V?$allocator@D@2@@std@@U?$less@W4VipsInterpretation@@@3@V?$allocator@U?$pair@$$CBW4VipsInterpretation@@V?$basic_string@DU?$char_traits@D@std@@V?$allocator@D@2@@std@@@std@@@3@$0A@@std@@@std@@IEAA?AV?$_Tree_iterator@V?$_Tree_val@U?$_Tree_simple_types@U?$pair@$$CBW4VipsInterpretation@@V?$basic_string@DU?$char_traits@D@std@@V?$allocator@D@2@@std@@@std@@@std@@@std@@@1@V?$_Tree_const_iterator@V?$_Tree_val@U?$_Tree_simple_types@U?$pair@$$CBW4VipsInterpretation@@V?$basic_string@DU?$char_traits@D@std@@V?$allocator@D@2@@std@@@std@@@std@@@std@@@1@AEAU?$pair@$$CBW4VipsInterpretation@@V?$basic_string@DU?$char_traits@D@std@@V?$allocator@D@2@@std@@@1@PEAU?$_Tree_node@U?$pair@$$CBW4VipsInterpretation@@V?$basic_string@DU?$char_traits@D@std@@V?$allocator@D@2@@std@@@std@@PEAX@1@@Z 000000018003ad00     pipeline.obj
 0002:0000ed00       $chain$8$??$_Insert_hint@AEAU?$pair@$$CBW4VipsInterpretation@@V?$basic_string@DU?$char_traits@D@std@@V?$allocator@D@2@@std@@@std@@PEAU?$_Tree_node@U?$pair@$$CBW4VipsInterpretation@@V?$basic_string@DU?$char_traits@D@std@@V?$allocator@D@2@@std@@@std@@PEAX@2@@?$_Tree@V?$_Tmap_traits@W4VipsInterpretation@@V?$basic_string@DU?$char_traits@D@std@@V?$allocator@D@2@@std@@U?$less@W4VipsInterpretation@@@3@V?$allocator@U?$pair@$$CBW4VipsInterpretation@@V?$basic_string@DU?$char_traits@D@std@@V?$allocator@D@2@@std@@@std@@@3@$0A@@std@@@std@@IEAA?AV?$_Tree_iterator@V?$_Tree_val@U?$_Tree_simple_types@U?$pair@$$CBW4VipsInterpretation@@V?$basic_string@DU?$char_traits@D@std@@V?$allocator@D@2@@std@@@std@@@std@@@std@@@1@V?$_Tree_const_iterator@V?$_Tree_val@U?$_Tree_simple_types@U?$pair@$$CBW4VipsInterpretation@@V?$basic_string@DU?$char_traits@D@std@@V?$allocator@D@2@@std@@@std@@@std@@@std@@@1@AEAU?$pair@$$CBW4VipsInterpretation@@V?$basic_string@DU?$char_traits@D@std@@V?$allocator@D@2@@std@@@1@PEAU?$_Tree_node@U?$pair@$$CBW4VipsInterpretation@@V?$basic_string@DU?$char_traits@D@std@@V?$allocator@D@2@@std@@@std@@PEAX@1@@Z 000000018003ad00     pipeline.obj
 0002:0000ed00       $chain$2$??$_Insert_hint@AEAU?$pair@$$CBW4VipsInterpretation@@V?$basic_string@DU?$char_traits@D@std@@V?$allocator@D@2@@std@@@std@@PEAU?$_Tree_node@U?$pair@$$CBW4VipsInterpretation@@V?$basic_string@DU?$char_traits@D@std@@V?$allocator@D@2@@std@@@std@@PEAX@2@@?$_Tree@V?$_Tmap_traits@W4VipsInterpretation@@V?$basic_string@DU?$char_traits@D@std@@V?$allocator@D@2@@std@@U?$less@W4VipsInterpretation@@@3@V?$allocator@U?$pair@$$CBW4VipsInterpretation@@V?$basic_string@DU?$char_traits@D@std@@V?$allocator@D@2@@std@@@std@@@3@$0A@@std@@@std@@IEAA?AV?$_Tree_iterator@V?$_Tree_val@U?$_Tree_simple_types@U?$pair@$$CBW4VipsInterpretation@@V?$basic_string@DU?$char_traits@D@std@@V?$allocator@D@2@@std@@@std@@@std@@@std@@@1@V?$_Tree_const_iterator@V?$_Tree_val@U?$_Tree_simple_types@U?$pair@$$CBW4VipsInterpretation@@V?$basic_string@DU?$char_traits@D@std@@V?$allocator@D@2@@std@@@std@@@std@@@std@@@1@AEAU?$pair@$$CBW4VipsInterpretation@@V?$basic_string@DU?$char_traits@D@std@@V?$allocator@D@2@@std@@@1@PEAU?$_Tree_node@U?$pair@$$CBW4VipsInterpretation@@V?$basic_string@DU?$char_traits@D@std@@V?$allocator@D@2@@std@@@std@@PEAX@1@@Z 000000018003ad00     pipeline.obj
 0002:0000ed00       $chain$4$??$_Insert_hint@AEAU?$pair@$$CBW4VipsInterpretation@@V?$basic_string@DU?$char_traits@D@std@@V?$allocator@D@2@@std@@@std@@PEAU?$_Tree_node@U?$pair@$$CBW4VipsInterpretation@@V?$basic_string@DU?$char_traits@D@std@@V?$allocator@D@2@@std@@@std@@PEAX@2@@?$_Tree@V?$_Tmap_traits@W4VipsInterpretation@@V?$basic_string@DU?$char_traits@D@std@@V?$allocator@D@2@@std@@U?$less@W4VipsInterpretation@@@3@V?$allocator@U?$pair@$$CBW4VipsInterpretation@@V?$basic_string@DU?$char_traits@D@std@@V?$allocator@D@2@@std@@@std@@@3@$0A@@std@@@std@@IEAA?AV?$_Tree_iterator@V?$_Tree_val@U?$_Tree_simple_types@U?$pair@$$CBW4VipsInterpretation@@V?$basic_string@DU?$char_traits@D@std@@V?$allocator@D@2@@std@@@std@@@std@@@std@@@1@V?$_Tree_const_iterator@V?$_Tree_val@U?$_Tree_simple_types@U?$pair@$$CBW4VipsInterpretation@@V?$basic_string@DU?$char_traits@D@std@@V?$allocator@D@2@@std@@@std@@@std@@@std@@@1@AEAU?$pair@$$CBW4VipsInterpretation@@V?$basic_string@DU?$char_traits@D@std@@V?$allocator@D@2@@std@@@1@PEAU?$_Tree_node@U?$pair@$$CBW4VipsInterpretation@@V?$basic_string@DU?$char_traits@D@std@@V?$allocator@D@2@@std@@@std@@PEAX@1@@Z 000000018003ad00     pipeline.obj
 0002:0000ed14       $unwind$??$_Uninitialized_copy_al_unchecked1@PEBU?$pair@V?$basic_string@DU?$char_traits@D@std@@V?$allocator@D@2@@std@@V12@@std@@PEAU12@V?$allocator@U?$pair@V?$basic_string@DU?$char_traits@D@std@@V?$allocator@D@2@@std@@V12@@std@@@2@@std@@YAPEAU?$pair@V?$basic_string@DU?$char_traits@D@std@@V?$allocator@D@2@@std@@V12@@0@PEBU10@0PEAU10@AEAU?$_Wrap_alloc@V?$allocator@U?$pair@V?$basic_string@DU?$char_traits@D@std@@V?$allocator@D@2@@std@@V12@@std@@@std@@@0@U_General_ptr_iterator_tag@0@U_Any_tag@0@@Z 000000018003ad14     pipeline.obj
 0002:0000ed2c       $stateUnwindMap$??$_Uninitialized_copy_al_unchecked1@PEBU?$pair@V?$basic_string@DU?$char_traits@D@std@@V?$allocator@D@2@@std@@V12@@std@@PEAU12@V?$allocator@U?$pair@V?$basic_string@DU?$char_traits@D@std@@V?$allocator@D@2@@std@@V12@@std@@@2@@std@@YAPEAU?$pair@V?$basic_string@DU?$char_traits@D@std@@V?$allocator@D@2@@std@@V12@@0@PEBU10@0PEAU10@AEAU?$_Wrap_alloc@V?$allocator@U?$pair@V?$basic_string@DU?$char_traits@D@std@@V?$allocator@D@2@@std@@V12@@std@@@std@@@0@U_General_ptr_iterator_tag@0@U_Any_tag@0@@Z 000000018003ad2c     pipeline.obj
 0002:0000ed40       $ip2state$??$_Uninitialized_copy_al_unchecked1@PEBU?$pair@V?$basic_string@DU?$char_traits@D@std@@V?$allocator@D@2@@std@@V12@@std@@PEAU12@V?$allocator@U?$pair@V?$basic_string@DU?$char_traits@D@std@@V?$allocator@D@2@@std@@V12@@std@@@2@@std@@YAPEAU?$pair@V?$basic_string@DU?$char_traits@D@std@@V?$allocator@D@2@@std@@V12@@0@PEBU10@0PEAU10@AEAU?$_Wrap_alloc@V?$allocator@U?$pair@V?$basic_string@DU?$char_traits@D@std@@V?$allocator@D@2@@std@@V12@@std@@@std@@@0@U_General_ptr_iterator_tag@0@U_Any_tag@0@@Z 000000018003ad40     pipeline.obj
 0002:0000ed60       $unwind$?FunctionCallbackWrapper@imp@Nan@@YAXAEBV?$FunctionCallbackInfo@VValue@v8@@@v8@@@Z 000000018003ad60     sharp.obj
 0002:0000ed70       $unwind$?NewInstance@Nan@@YA?AV?$MaybeLocal@VObject@v8@@@v8@@V?$Local@VObjectTemplate@v8@@@3@@Z 000000018003ad70     sharp.obj
 0002:0000ed88       $ip2state$?NewInstance@Nan@@YA?AV?$MaybeLocal@VObject@v8@@@v8@@V?$Local@VObjectTemplate@v8@@@3@@Z 000000018003ad88     sharp.obj
 0002:0000eda0       $unwind$?GetFunction@Nan@@YA?AV?$MaybeLocal@VFunction@v8@@@v8@@V?$Local@VFunctionTemplate@v8@@@3@@Z 000000018003ada0     sharp.obj
 0002:0000edb8       $ip2state$?GetFunction@Nan@@YA?AV?$MaybeLocal@VFunction@v8@@@v8@@V?$Local@VFunctionTemplate@v8@@@3@@Z 000000018003adb8     sharp.obj
 0002:0000edd0       $unwind$?New@?$Factory@VFunctionTemplate@v8@@@imp@Nan@@SA?AV?$Local@VFunctionTemplate@v8@@@v8@@P6AXAEBV?$FunctionCallbackInfo@VValue@v8@@@3@@ZV?$Local@VValue@v8@@@5@V?$Local@VSignature@v8@@@5@@Z 000000018003add0     sharp.obj
 0002:0000ede8       $stateUnwindMap$?New@?$Factory@VFunctionTemplate@v8@@@imp@Nan@@SA?AV?$Local@VFunctionTemplate@v8@@@v8@@P6AXAEBV?$FunctionCallbackInfo@VValue@v8@@@3@@ZV?$Local@VValue@v8@@@5@V?$Local@VSignature@v8@@@5@@Z 000000018003ade8     sharp.obj
 0002:0000edf0       $ip2state$?New@?$Factory@VFunctionTemplate@v8@@@imp@Nan@@SA?AV?$Local@VFunctionTemplate@v8@@@v8@@P6AXAEBV?$FunctionCallbackInfo@VValue@v8@@@3@@ZV?$Local@VValue@v8@@@5@V?$Local@VSignature@v8@@@5@@Z 000000018003adf0     sharp.obj
 0002:0000ee08       $unwind$?init@@YAXV?$Local@VObject@v8@@@v8@@@Z 000000018003ae08     sharp.obj
 0002:0000ee14       $unwind$?convert@?$ToFactory@VInteger@v8@@@imp@Nan@@SA?AV?$MaybeLocal@VInteger@v8@@@v8@@V?$Local@VValue@v8@@@5@@Z 000000018003ae14     utilities.obj
 0002:0000ee28       $ip2state$?convert@?$ToFactory@VInteger@v8@@@imp@Nan@@SA?AV?$MaybeLocal@VInteger@v8@@@v8@@V?$Local@VValue@v8@@@5@@Z 000000018003ae28     utilities.obj
 0002:0000ee40       $unwind$?ThrowError@Nan@@YAXPEBD@Z 000000018003ae40     utilities.obj
 0002:0000ee50       $ip2state$?ThrowError@Nan@@YAXPEBD@Z 000000018003ae50     utilities.obj
 0002:0000ee68       $unwind$?cache@@YAXAEBV?$FunctionCallbackInfo@VValue@v8@@@Nan@@@Z 000000018003ae68     utilities.obj
 0002:0000ee74       $unwind$?concurrency@@YAXAEBV?$FunctionCallbackInfo@VValue@v8@@@Nan@@@Z 000000018003ae74     utilities.obj
 0002:0000ee80       $unwind$?counters@@YAXAEBV?$FunctionCallbackInfo@VValue@v8@@@Nan@@@Z 000000018003ae80     utilities.obj
 0002:0000ee8c       $unwind$?simd@@YAXAEBV?$FunctionCallbackInfo@VValue@v8@@@Nan@@@Z 000000018003ae8c     utilities.obj
 0002:0000ee98       $unwind$?libvipsVersion@@YAXAEBV?$FunctionCallbackInfo@VValue@v8@@@Nan@@@Z 000000018003ae98     utilities.obj
 0002:0000eeb0       $unwind$?format@@YAXAEBV?$FunctionCallbackInfo@VValue@v8@@@Nan@@@Z 000000018003aeb0     utilities.obj
 0002:0000eedc       $stateUnwindMap$?format@@YAXAEBV?$FunctionCallbackInfo@VValue@v8@@@Nan@@@Z 000000018003aedc     utilities.obj
 0002:0000ef10       $ip2state$?format@@YAXAEBV?$FunctionCallbackInfo@VValue@v8@@@Nan@@@Z 000000018003af10     utilities.obj
 0002:0000ef78       $unwind$?_maxColourDistance@@YAXAEBV?$FunctionCallbackInfo@VValue@v8@@@Nan@@@Z 000000018003af78     utilities.obj
 0002:0000ef9c       $stateUnwindMap$?_maxColourDistance@@YAXAEBV?$FunctionCallbackInfo@VValue@v8@@@Nan@@@Z 000000018003af9c     utilities.obj
 0002:0000f03c       $tryMap$?_maxColourDistance@@YAXAEBV?$FunctionCallbackInfo@VValue@v8@@@Nan@@@Z 000000018003b03c     utilities.obj
 0002:0000f078       $handlerMap$0$?_maxColourDistance@@YAXAEBV?$FunctionCallbackInfo@VValue@v8@@@Nan@@@Z 000000018003b078     utilities.obj
 0002:0000f08c       $handlerMap$1$?_maxColourDistance@@YAXAEBV?$FunctionCallbackInfo@VValue@v8@@@Nan@@@Z 000000018003b08c     utilities.obj
 0002:0000f0a0       $handlerMap$2$?_maxColourDistance@@YAXAEBV?$FunctionCallbackInfo@VValue@v8@@@Nan@@@Z 000000018003b0a0     utilities.obj
 0002:0000f0c0       $ip2state$?_maxColourDistance@@YAXAEBV?$FunctionCallbackInfo@VValue@v8@@@Nan@@@Z 000000018003b0c0     utilities.obj
 0002:0000f238       $unwind$?catch$25@?0??_maxColourDistance@@YAXAEBV?$FunctionCallbackInfo@VValue@v8@@@Nan@@@Z@4HA 000000018003b238     utilities.obj
 0002:0000f238       $unwind$?catch$24@?0??_maxColourDistance@@YAXAEBV?$FunctionCallbackInfo@VValue@v8@@@Nan@@@Z@4HA 000000018003b238     utilities.obj
 0002:0000f238       $unwind$?catch$26@?0??_maxColourDistance@@YAXAEBV?$FunctionCallbackInfo@VValue@v8@@@Nan@@@Z@4HA 000000018003b238     utilities.obj
 0002:0000f248       $xdatasym                  000000018003b248     LIBCMT:_amdsecgs_.obj
 0002:0000f24c       $unwind$??_M@YAXPEAX_K1P6AX0@Z@Z 000000018003b24c     LIBCMT:ehvecdtr.obj
 0002:0000f274       $unwind$?__ArrayUnwind@@YAXPEAX_K1P6AX0@Z@Z 000000018003b274     LIBCMT:ehvecdtr.obj
 0002:0000f2a0       $unwind$?dllmain_crt_process_attach@@YAHQEAUHINSTANCE__@@QEAX@Z 000000018003b2a0     LIBCMT:dll_dllmain.obj
 0002:0000f2cc       $unwind$?dllmain_crt_process_detach@@YAH_N@Z 000000018003b2cc     LIBCMT:dll_dllmain.obj
 0002:0000f2f4       $unwind$?dllmain_dispatch@@YAHQEAUHINSTANCE__@@KQEAX@Z 000000018003b2f4     LIBCMT:dll_dllmain.obj
 0002:0000f31c       $unwind$?filt$0@?0??dllmain_dispatch@@YAHQEAUHINSTANCE__@@KQEAX@Z@4HA 000000018003b31c     LIBCMT:dll_dllmain.obj
 0002:0000f324       $unwind$__report_securityfailure 000000018003b324     LIBCMT:gs_report.obj
 0002:0000f32c       $unwind$capture_current_context 000000018003b32c     LIBCMT:gs_report.obj
 0002:0000f338       $unwind$capture_previous_context 000000018003b338     LIBCMT:gs_report.obj
 0002:0000f344       $unwind$__scrt_is_nonwritable_in_current_image 000000018003b344     LIBCMT:utility.obj
 0002:0000f364       $unwind$__scrt_is_nonwritable_in_current_image$filt$0 000000018003b364     LIBCMT:utility.obj
 0002:0000f36c       $unwind$__scrt_initialize_onexit_tables 000000018003b36c     LIBCMT:utility.obj
 0002:0000f378       $unwind$__security_init_cookie 000000018003b378     LIBCMT:gs_support.obj
 0002:0000f384       $unwind$__scrt_fastfail    000000018003b384     LIBCMT:utility_desktop.obj
 0002:0000f394       $unwind$__isa_available_init 000000018003b394     LIBCMT:_cpu_disp_.obj
 0002:0000f3a8       $xdatasym                  000000018003b3a8     LIBCMT:_guard_dispatch_.obj
 0002:0000f3b0       $xdatasym                  000000018003b3b0     libvcruntime:memcpy.obj
 0002:0000f3b4       $unwind$__CxxCallCatchBlock 000000018003b3b4     libvcruntime:frame.obj
 0002:0000f3f0       $unwind$__CxxCallCatchBlock$fin$1 000000018003b3f0     libvcruntime:frame.obj
 0002:0000f3fc       $unwind$__FrameUnwindToState 000000018003b3fc     libvcruntime:frame.obj
 0002:0000f438       $unwind$?FindHandler@@YAXPEAUEHExceptionRecord@@PEA_KPEAU_CONTEXT@@PEAU_xDISPATCHER_CONTEXT@@PEBU_s_FuncInfo@@EH1@Z 000000018003b438     libvcruntime:frame.obj
 0002:0000f458       $unwind$?CatchIt@@YAXPEAUEHExceptionRecord@@PEA_KPEAU_CONTEXT@@PEAU_xDISPATCHER_CONTEXT@@PEBU_s_FuncInfo@@PEBU_s_HandlerType@@PEBU_s_CatchableType@@PEBU_s_TryBlockMapEntry@@H1EE@Z 000000018003b458     libvcruntime:frame.obj
 0002:0000f470       $unwind$__BuildCatchObject 000000018003b470     libvcruntime:frame.obj
 0002:0000f49c       $unwind$?FindHandlerForForeignException@@YAXPEAUEHExceptionRecord@@PEA_KPEAU_CONTEXT@@PEAU_xDISPATCHER_CONTEXT@@PEBU_s_FuncInfo@@HH1@Z 000000018003b49c     libvcruntime:frame.obj
 0002:0000f4b4       $unwind$__DestructExceptionObject 000000018003b4b4     libvcruntime:frame.obj
 0002:0000f4d8       $unwind$?write_string@?$string_output_adapter@_W@__crt_stdio_output@@QEBAXQEB_WHQEAH1@Z 000000018003b4d8     libucrt:output.obj
 0002:0000f4d8       $unwind$?try_get_function@@YAPEAXW4function_id@?A0x679b24ab@@QEBDQEBW4module_id@2@2@Z 000000018003b4d8     libvcruntime:winapi_downlevel.obj
 0002:0000f4d8       $unwind$?IsInExceptionSpec@@YAEPEAUEHExceptionRecord@@PEBU_s_ESTypeList@@@Z 000000018003b4d8     libvcruntime:frame.obj
 0002:0000f4d8       $unwind$?try_get_function@@YAPEAXW4function_id@?A0x63058377@@QEBDQEBW4module_id@2@2@Z 000000018003b4d8     libucrt:winapi_thunks.obj
 0002:0000f4f4       $unwind$__BuildCatchObjectHelper 000000018003b4f4     libvcruntime:frame.obj
 0002:0000f534       $unwind$_CxxThrowException 000000018003b534     libvcruntime:throw.obj
 0002:0000f548       $unwind$__C_specific_handler 000000018003b548     libvcruntime:_chandler_.obj
 0002:0000f548       $unwind$__InternalCxxFrameHandler 000000018003b548     libvcruntime:frame.obj
 0002:0000f568       $xdatasym                  000000018003b568     libvcruntime:memset.obj
 0002:0000f570       $xdatasym                  000000018003b570     libvcruntime:handlers.obj
 0002:0000f578       $unwind$?_GetEstablisherFrame@@YAPEA_KPEA_KPEAU_xDISPATCHER_CONTEXT@@PEBU_s_FuncInfo@@0@Z 000000018003b578     libvcruntime:trnsctrl.obj
 0002:0000f590       $unwind$?__FrameUnwindToEmptyState@@YAXPEA_KPEAU_xDISPATCHER_CONTEXT@@PEBU_s_FuncInfo@@@Z 000000018003b590     libvcruntime:trnsctrl.obj
 0002:0000f5a4       $unwind$_CallSETranslator  000000018003b5a4     libvcruntime:trnsctrl.obj
 0002:0000f5c8       $unwind$_CallSETranslator$filt$0 000000018003b5c8     libvcruntime:trnsctrl.obj
 0002:0000f5d0       $unwind$_UnwindNestedFrames 000000018003b5d0     libvcruntime:trnsctrl.obj
 0002:0000f5e4       $unwind$__CxxFrameHandler3 000000018003b5e4     libvcruntime:trnsctrl.obj
 0002:0000f5f4       $unwind$?__SehTransFilter@@YAHPEAU_EXCEPTION_POINTERS@@PEAUEHExceptionRecord@@PEA_KPEAU_CONTEXT@@PEAU_xDISPATCHER_CONTEXT@@PEBU_s_FuncInfo@@PEAH@Z 000000018003b5f4     libvcruntime:trnsctrl.obj
 0002:0000f608       $xdatasym                  000000018003b608     libvcruntime:_jmpuwind_.obj
 0002:0000f61c       $unwind$round              000000018003b61c     libucrt:round.obj
 0002:0000f624       $unwind$fwprintf           000000018003b624     libucrt:assert.obj
 0002:0000f630       $unwind$swprintf           000000018003b630     libucrt:assert.obj
 0002:0000f640       $unwind$??$common_assert_to_stderr@_W@@YAXQEB_W0I@Z 000000018003b640     libucrt:assert.obj
 0002:0000f65c       $unwind$??$common_assert_to_message_box@_W@@YAXQEB_W0IQEAX@Z 000000018003b65c     libucrt:assert.obj
 0002:0000f678       $unwind$??$common_assert_to_message_box_build_string@_W@@YAXQEA_W_KQEB_W2IQEAX@Z 000000018003b678     libucrt:assert.obj
 0002:0000f698       $unwind$__acrt_call_reportfault 000000018003b698     libucrt:invalid_parameter.obj
 0002:0000f6b8       $unwind$_invalid_parameter 000000018003b6b8     libucrt:invalid_parameter.obj
 0002:0000f6d0       $unwind$_query_new_handler 000000018003b6d0     libucrt:new_handler.obj
 0002:0000f6f0       $unwind$terminate          000000018003b6f0     libucrt:terminate.obj
 0002:0000f710       $unwind$?common_exit@@YAXHW4_crt_exit_cleanup_mode@@W4_crt_exit_return_mode@@@Z 000000018003b710     libucrt:exit.obj
 0002:0000f750       $unwind$_configure_narrow_argv 000000018003b750     libucrt:argv_parsing.obj
 0002:0000f764       $unwind$??$parse_command_line@D@@YAXPEADPEAPEAD0PEA_K2@Z 000000018003b764     libucrt:argv_parsing.obj
 0002:0000f764       $unwind$??R<lambda_4e60a939b0d047cfe11ddc22648dfba9>@@QEBAHXZ 000000018003b764     libucrt:onexit.obj
 0002:0000f764       $unwind$?_GetRangeOfTrysToCheck@@YAPEBU_s_TryBlockMapEntry@@PEA_KPEBU_s_FuncInfo@@HHPEAI2PEAU_xDISPATCHER_CONTEXT@@@Z 000000018003b764     libvcruntime:trnsctrl.obj
 0002:0000f780       $unwind$??$free_environment@_W@@YAXQEAPEA_W@Z 000000018003b780     libucrt:environment_initialization.obj
 0002:0000f780       $unwind$??$free_environment@D@@YAXQEAPEAD@Z 000000018003b780     libucrt:environment_initialization.obj
 0002:0000f78c       $unwind$??$create_environment@D@@YAQEAPEADQEAD@Z 000000018003b78c     libucrt:environment_initialization.obj
 0002:0000f7a4       $unwind$_register_onexit_function 000000018003b7a4     libucrt:onexit.obj
 0002:0000f7ac       $unwind$_execute_onexit_table 000000018003b7ac     libucrt:onexit.obj
 0002:0000f7b4       $unwind$??$?RV<lambda_b8c45f8f788dd370798f47cfe8ac3a86>@@AEAV<lambda_4e60a939b0d047cfe11ddc22648dfba9>@@V<lambda_332c3edc96d0294ec56c57d38c1cdfd5>@@@?$__crt_seh_guarded_call@H@@QEAAH$$QEAV<lambda_b8c45f8f788dd370798f47cfe8ac3a86>@@AEAV<lambda_4e60a939b0d047cfe11ddc22648dfba9>@@$$QEAV<lambda_332c3edc96d0294ec56c57d38c1cdfd5>@@@Z 000000018003b7b4     libucrt:onexit.obj
 0002:0000f7d8       $unwind$??$?RV<lambda_e24bbb7b643b32fcea6fa61b31d4c984>@@AEAV<lambda_275893d493268fdec8709772e3fcec0e>@@V<lambda_9d71df4d7cf3f480f8d633942495c3b0>@@@?$__crt_seh_guarded_call@H@@QEAAH$$QEAV<lambda_e24bbb7b643b32fcea6fa61b31d4c984>@@AEAV<lambda_275893d493268fdec8709772e3fcec0e>@@$$QEAV<lambda_9d71df4d7cf3f480f8d633942495c3b0>@@@Z 000000018003b7d8     libucrt:onexit.obj
 0002:0000f808       $unwind$__stdio_common_vfwprintf 000000018003b808     libucrt:output.obj
 0002:0000f810       $unwind$__stdio_common_vswprintf 000000018003b810     libucrt:output.obj
 0002:0000f834       $unwind$?write_string@?$stream_output_adapter@_W@__crt_stdio_output@@QEBAXQEB_WHQEAH1@Z 000000018003b834     libucrt:output.obj
 0002:0000f84c       $unwind$?process@?$output_processor@_WV?$stream_output_adapter@_W@__crt_stdio_output@@V?$standard_base@_WV?$stream_output_adapter@_W@__crt_stdio_output@@@2@@__crt_stdio_output@@QEAAHXZ 000000018003b84c     libucrt:output.obj
 0002:0000f864       $unwind$?state_case_type@?$output_processor@_WV?$string_output_adapter@_W@__crt_stdio_output@@V?$standard_base@_WV?$string_output_adapter@_W@__crt_stdio_output@@@2@@__crt_stdio_output@@AEAA_NXZ 000000018003b864     libucrt:output.obj
 0002:0000f864       $unwind$?state_case_type@?$output_processor@_WV?$stream_output_adapter@_W@__crt_stdio_output@@V?$standard_base@_WV?$stream_output_adapter@_W@__crt_stdio_output@@@2@@__crt_stdio_output@@AEAA_NXZ 000000018003b864     libucrt:output.obj
 0002:0000f888       $unwind$?write_stored_string_tchar@?$output_processor@_WV?$stream_output_adapter@_W@__crt_stdio_output@@V?$standard_base@_WV?$stream_output_adapter@_W@__crt_stdio_output@@@2@@__crt_stdio_output@@AEAA_N_W@Z 000000018003b888     libucrt:output.obj
 0002:0000f89c       $unwind$??R<lambda_dd75445284c072d0bd3768540cc698fa>@@QEBAHXZ 000000018003b89c     libucrt:output.obj
 0002:0000f8b8       $unwind$?parse_int_from_format_string@?$output_processor@_WV?$stream_output_adapter@_W@__crt_stdio_output@@V?$standard_base@_WV?$stream_output_adapter@_W@__crt_stdio_output@@@2@@__crt_stdio_output@@AEAA_NQEAH@Z 000000018003b8b8     libucrt:output.obj
 0002:0000f8b8       $unwind$?parse_int_from_format_string@?$output_processor@_WV?$string_output_adapter@_W@__crt_stdio_output@@V?$standard_base@_WV?$string_output_adapter@_W@__crt_stdio_output@@@2@@__crt_stdio_output@@AEAA_NQEAH@Z 000000018003b8b8     libucrt:output.obj
 0002:0000f8cc       $unwind$?type_case_a@?$output_processor@_WV?$string_output_adapter@_W@__crt_stdio_output@@V?$standard_base@_WV?$string_output_adapter@_W@__crt_stdio_output@@@2@@__crt_stdio_output@@AEAA_NXZ 000000018003b8cc     libucrt:output.obj
 0002:0000f8cc       $unwind$?type_case_a@?$output_processor@_WV?$stream_output_adapter@_W@__crt_stdio_output@@V?$standard_base@_WV?$stream_output_adapter@_W@__crt_stdio_output@@@2@@__crt_stdio_output@@AEAA_NXZ 000000018003b8cc     libucrt:output.obj
 0002:0000f8dc       $unwind$?write_stored_string_tchar@?$output_processor@_WV?$string_output_adapter@_W@__crt_stdio_output@@V?$standard_base@_WV?$string_output_adapter@_W@__crt_stdio_output@@@2@@__crt_stdio_output@@AEAA_N_W@Z 000000018003b8dc     libucrt:output.obj
 0002:0000f8f0       $unwind$??$write_multiple_characters@V?$stream_output_adapter@_W@__crt_stdio_output@@D@__crt_stdio_output@@YAXAEBV?$stream_output_adapter@_W@0@DHQEAH@Z 000000018003b8f0     libucrt:output.obj
 0002:0000f908       $unwind$??$write_multiple_characters@V?$string_output_adapter@_W@__crt_stdio_output@@D@__crt_stdio_output@@YAXAEBV?$string_output_adapter@_W@0@DHQEAH@Z 000000018003b908     libucrt:output.obj
 0002:0000f914       $unwind$??$?RV<lambda_7b91131dde12e1c3dfc74ff76b3f2eac>@@AEAV<lambda_dd75445284c072d0bd3768540cc698fa>@@V<lambda_16bc4ecb55b4718497c16bceaea2ceaf>@@@?$__crt_seh_guarded_call@H@@QEAAH$$QEAV<lambda_7b91131dde12e1c3dfc74ff76b3f2eac>@@AEAV<lambda_dd75445284c072d0bd3768540cc698fa>@@$$QEAV<lambda_16bc4ecb55b4718497c16bceaea2ceaf>@@@Z 000000018003b914     libucrt:output.obj
 0002:0000f938       $unwind$??$parse_integer@KV?$c_string_character_source@_W@__crt_strtox@@@__crt_strtox@@YAKQEAU__crt_locale_pointers@@V?$c_string_character_source@_W@0@H_N@Z 000000018003b938     libucrt:atox.obj
 0002:0000f954       $unwind$fflush             000000018003b954     libucrt:fflush.obj
 0002:0000f978       $unwind$common_flush_all   000000018003b978     libucrt:fflush.obj
 0002:0000f9b4       $unwind$setvbuf            000000018003b9b4     libucrt:setvbuf.obj
 0002:0000f9bc       $unwind$??$?RV<lambda_7a5ef57ff966f610505f1d28a3d40618>@@AEAV<lambda_b721fa326cdb32351d23dfa67958c160>@@V<lambda_5e0fb27672408a07956fe59e48ccb2aa>@@@?$__crt_seh_guarded_call@H@@QEAAH$$QEAV<lambda_7a5ef57ff966f610505f1d28a3d40618>@@AEAV<lambda_b721fa326cdb32351d23dfa67958c160>@@$$QEAV<lambda_5e0fb27672408a07956fe59e48ccb2aa>@@@Z 000000018003b9bc     libucrt:setvbuf.obj
 0002:0000f9e0       $unwind$__acrt_get_sigabrt_handler 000000018003b9e0     libucrt:signal.obj
 0002:0000f9e8       $unwind$raise              000000018003b9e8     libucrt:signal.obj
 0002:0000fa14       $unwind$??$?RV<lambda_c36588078e9f5dfd39652860aa6b3aaf>@@AEAV<lambda_ec61778202f4f5fc7e7711acc23c3bca>@@V<lambda_dc9d2797ccde5d239b4a0efae8ebd7db>@@@?$__crt_seh_guarded_call@P6AXH@Z@@QEAAP6AXH@Z$$QEAV<lambda_c36588078e9f5dfd39652860aa6b3aaf>@@AEAV<lambda_ec61778202f4f5fc7e7711acc23c3bca>@@$$QEAV<lambda_dc9d2797ccde5d239b4a0efae8ebd7db>@@@Z 000000018003ba14     libucrt:signal.obj
 0002:0000fa38       $unwind$?construct_ptd_array@@YAXQEAU__acrt_ptd@@@Z 000000018003ba38     libucrt:per_thread_data.obj
 0002:0000fa40       $unwind$?destroy_ptd_array@@YAXQEAU__acrt_ptd@@@Z 000000018003ba40     libucrt:per_thread_data.obj
 0002:0000fa48       $unwind$??$?RV<lambda_72d1df2b273a38828b1ce30cbf4cdab5>@@AEAV<lambda_876a65b173b8412d3a47c70a915b0cf4>@@V<lambda_41932305e351933ebe8f8be3ed8bb5dc>@@@?$__crt_seh_guarded_call@X@@QEAAX$$QEAV<lambda_72d1df2b273a38828b1ce30cbf4cdab5>@@AEAV<lambda_876a65b173b8412d3a47c70a915b0cf4>@@$$QEAV<lambda_41932305e351933ebe8f8be3ed8bb5dc>@@@Z 000000018003ba48     libucrt:per_thread_data.obj
 0002:0000fa6c       $unwind$??$?RV<lambda_5e887d1dcbef67a5eb4283622ba103bf>@@AEAV<lambda_4466841279450cc726390878d4a41900>@@V<lambda_341c25c0346d94847f1f3c463c57e077>@@@?$__crt_seh_guarded_call@X@@QEAAX$$QEAV<lambda_5e887d1dcbef67a5eb4283622ba103bf>@@AEAV<lambda_4466841279450cc726390878d4a41900>@@$$QEAV<lambda_341c25c0346d94847f1f3c463c57e077>@@@Z 000000018003ba6c     libucrt:per_thread_data.obj
 0002:0000fa90       $unwind$??$?RV<lambda_46352004c1216016012b18bd6f87e700>@@AEAV<lambda_3bd07e1a1191394380780325891bf33f>@@V<lambda_334532d3f185bcaa59b5be82d7d22bff>@@@?$__crt_seh_guarded_call@X@@QEAAX$$QEAV<lambda_46352004c1216016012b18bd6f87e700>@@AEAV<lambda_3bd07e1a1191394380780325891bf33f>@@$$QEAV<lambda_334532d3f185bcaa59b5be82d7d22bff>@@@Z 000000018003ba90     libucrt:per_thread_data.obj
 0002:0000fab4       $unwind$??$?RV<lambda_fb3a7dec4e47f37f22dae91bb15c9095>@@AEAV<lambda_698284760c8add0bfb0756c19673e34b>@@V<lambda_dfb8eca1e75fef3034a8fb18dd509707>@@@?$__crt_seh_guarded_call@X@@QEAAX$$QEAV<lambda_fb3a7dec4e47f37f22dae91bb15c9095>@@AEAV<lambda_698284760c8add0bfb0756c19673e34b>@@$$QEAV<lambda_dfb8eca1e75fef3034a8fb18dd509707>@@@Z 000000018003bab4     libucrt:per_thread_data.obj
 0002:0000fad8       $unwind$_tolower_l         000000018003bad8     libucrt:tolower_toupper.obj
 0002:0000fae8       $unwind$__acrt_uninitialize_locale 000000018003bae8     libucrt:wsetlocale.obj
 0002:0000fb08       $unwind$__acrt_initialize_winapi_thunks 000000018003bb08     libucrt:winapi_thunks.obj
 0002:0000fb10       $unwind$__acrt_initialize_stdio 000000018003bb10     libucrt:_file.obj
 0002:0000fb10       $unwind$__TypeMatch        000000018003bb10     libvcruntime:frame.obj
 0002:0000fb10       $unwind$__acrt_MessageBoxW 000000018003bb10     libucrt:winapi_thunks.obj
 0002:0000fb10       $unwind$__GSHandlerCheck_EH 000000018003bb10     LIBCMT:gshandlereh.obj
 0002:0000fb10       $unwind$?process@?$output_processor@_WV?$string_output_adapter@_W@__crt_stdio_output@@V?$standard_base@_WV?$string_output_adapter@_W@__crt_stdio_output@@@2@@__crt_stdio_output@@QEAAHXZ 000000018003bb10     libucrt:output.obj
 0002:0000fb10       $unwind$_initterm          000000018003bb10     libucrt:initterm.obj
 0002:0000fb28       $unwind$__acrt_is_interactive 000000018003bb28     libucrt:winapi_thunks.obj
 0002:0000fb3c       $unwind$??$common_expand_argv_wildcards@D@@YAHQEAPEADQEAPEAPEAD@Z 000000018003bb3c     libucrt:argv_wildcards.obj
 0002:0000fb54       $unwind$??$copy_and_add_argument_to_buffer@D@@YAHQEBD0_KAEAV?$argument_list@D@?A0xca0879c4@@@Z 000000018003bb54     libucrt:argv_wildcards.obj
 0002:0000fb70       $unwind$??$expand_argument_wildcards@D@@YAHQEAD0AEAV?$argument_list@D@?A0xca0879c4@@@Z 000000018003bb70     libucrt:argv_wildcards.obj
 0002:0000fb90       $unwind$__acrt_update_thread_multibyte_data 000000018003bb90     libucrt:mbctype.obj
 0002:0000fbb4       $unwind$_setmbcp_nolock    000000018003bbb4     libucrt:mbctype.obj
 0002:0000fbd4       $unwind$?setSBUpLow@@YAXPEAU__crt_multibyte_data@@@Z 000000018003bbd4     libucrt:mbctype.obj
 0002:0000fbf0       $unwind$?setmbcp_internal@@YAHH_N@Z 000000018003bbf0     libucrt:mbctype.obj
 0002:0000fc00       $unwind$??$?RV<lambda_99476a1ad63dd22509b5d3e65b0ffc95>@@AEAV<lambda_ad1ced32f4ac17aa236e5ef05d6b3b7c>@@V<lambda_f7424dd8d45958661754dc4f2697e9c3>@@@?$__crt_seh_guarded_call@X@@QEAAX$$QEAV<lambda_99476a1ad63dd22509b5d3e65b0ffc95>@@AEAV<lambda_ad1ced32f4ac17aa236e5ef05d6b3b7c>@@$$QEAV<lambda_f7424dd8d45958661754dc4f2697e9c3>@@@Z 000000018003bc00     libucrt:mbctype.obj
 0002:0000fc24       $unwind$?x_ismbbtype_l@@YAHPEAU__crt_locale_pointers@@IHH@Z 000000018003bc24     libucrt:ismbbyte.obj
 0002:0000fc34       $unwind$?fp_format_f_internal@@YAHQEAD_KHQEAU_strflt@@_NQEAU__crt_locale_pointers@@@Z 000000018003bc34     libucrt:cvt.obj
 0002:0000fc34       $unwind$__dcrt_get_narrow_environment_from_os 000000018003bc34     libucrt:get_environment_from_os.obj
 0002:0000fc4c       $unwind$__acrt_initialize_lowio 000000018003bc4c     libucrt:ioinit.obj
 0002:0000fc6c       $unwind$?initialize_inherited_file_handles_nolock@@YAXXZ 000000018003bc6c     libucrt:ioinit.obj
 0002:0000fc88       $unwind$__acrt_stdio_end_temporary_buffering_nolock 000000018003bc88     libucrt:_sftbuf.obj
 0002:0000fc88       $unwind$__vcrt_uninitialize_winapi_thunks 000000018003bc88     libvcruntime:winapi_downlevel.obj
 0002:0000fc90       $unwind$_mbtowc_l          000000018003bc90     libucrt:mbtowc.obj
 0002:0000fc90       $unwind$__acrt_LCMapStringEx 000000018003bc90     libucrt:winapi_thunks.obj
 0002:0000fc90       $unwind$__acrt_show_wide_message_box 000000018003bc90     libucrt:crtmbox.obj
 0002:0000fca8       $unwind$_wctomb_s_l        000000018003bca8     libucrt:wctomb.obj
 0002:0000fcb8       $unwind$wcsnlen            000000018003bcb8     libucrt:strnlen.obj
 0002:0000fcc0       $unwind$__acrt_fp_format   000000018003bcc0     libucrt:cvt.obj
 0002:0000fcdc       $unwind$?fp_format_nan_or_infinity@@YAHW4__acrt_fp_class@@_NPEAD_K1@Z 000000018003bcdc     libucrt:cvt.obj
 0002:0000fcf0       $unwind$?fp_format_e_internal@@YAHQEAD_KH_NIQEAU_strflt@@2QEAU__crt_locale_pointers@@@Z 000000018003bcf0     libucrt:cvt.obj
 0002:0000fd08       $unwind$?fp_format_e@@YAHQEBNQEAD_K12H_NIQEAU__crt_locale_pointers@@@Z 000000018003bd08     libucrt:cvt.obj
 0002:0000fd1c       $unwind$?fp_format_a@@YAHQEBNPEAD_KQEAD2H_NIQEAU__crt_locale_pointers@@@Z 000000018003bd1c     libucrt:cvt.obj
 0002:0000fd38       $unwind$?fp_format_g@@YAHQEBNQEAD_K12H_NIQEAU__crt_locale_pointers@@@Z 000000018003bd38     libucrt:cvt.obj
 0002:0000fd4c       $unwind$_fputwc_nolock     000000018003bd4c     libucrt:fputwc.obj
 0002:0000fd68       $unwind$_isctype_l         000000018003bd68     libucrt:isctype.obj
 0002:0000fd84       $unwind$_fcloseall         000000018003bd84     libucrt:closeall.obj
 0002:0000fda8       $unwind$??$?RV<lambda_b521505b218e5242e90febf6bfebc422>@@AEAV<lambda_6978c1fb23f02e42e1d9e99668cc68aa>@@V<lambda_314360699dd331753a4119843814e9a7>@@@?$__crt_seh_guarded_call@H@@QEAAH$$QEAV<lambda_b521505b218e5242e90febf6bfebc422>@@AEAV<lambda_6978c1fb23f02e42e1d9e99668cc68aa>@@$$QEAV<lambda_314360699dd331753a4119843814e9a7>@@@Z 000000018003bda8     libucrt:commit.obj
 0002:0000fdcc       $unwind$_write             000000018003bdcc     libucrt:write.obj
 0002:0000fdfc       $unwind$_write_nolock      000000018003bdfc     libucrt:write.obj
 0002:0000fe14       $unwind$?write_double_translated_ansi_nolock@@YA?AUwrite_result@?A0x9c548279@@HQEBDI@Z 000000018003be14     libucrt:write.obj
 0002:0000fe34       $unwind$?write_text_utf16le_nolock@@YA?AUwrite_result@?A0x9c548279@@HQEBDI@Z 000000018003be34     libucrt:write.obj
 0002:0000fe34       $unwind$?write_text_ansi_nolock@@YA?AUwrite_result@?A0x9c548279@@HQEBDI@Z 000000018003be34     libucrt:write.obj
 0002:0000fe54       $unwind$?write_text_utf8_nolock@@YA?AUwrite_result@?A0x9c548279@@HQEBDI@Z 000000018003be54     libucrt:write.obj
 0002:0000fe78       $unwind$__acrt_update_thread_locale_data 000000018003be78     libucrt:locale_refcounting.obj
 0002:0000fe9c       $unwind$__acrt_LCMapStringA 000000018003be9c     libucrt:lcmapstringa.obj
 0002:0000feac       $unwind$?__acrt_LCMapStringA_stat@@YAHPEAU__crt_locale_pointers@@PEB_WKPEBDHPEADHHH@Z 000000018003beac     libucrt:lcmapstringa.obj
 0002:0000fed4       $unwind$__acrt_locale_free_monetary 000000018003bed4     libucrt:initmon.obj
 0002:0000fedc       $unwind$__acrt_locale_free_lc_time_if_unreferenced 000000018003bedc     libucrt:locale_refcounting.obj
 0002:0000fedc       $unwind$__acrt_locale_free_numeric 000000018003bedc     libucrt:initnum.obj
 0002:0000fedc       $unwind$_free_base         000000018003bedc     libucrt:free_base.obj
 0002:0000fedc       $unwind$?destroy_fls@@YAXPEAX@Z 000000018003bedc     libucrt:per_thread_data.obj
 0002:0000fee4       $unwind$__acrt_locale_free_time 000000018003bee4     libucrt:inittime.obj
 0002:0000fef4       $unwind$__acrt_GetStringTypeA 000000018003bef4     libucrt:getstringtypea.obj
 0002:0000ff1c       $unwind$?GetTableIndexFromLocaleName@@YAHPEB_W@Z 000000018003bf1c     libucrt:lcidtoname_downlevel.obj
 0002:0000ff34       $unwind$qsort              000000018003bf34     libucrt:qsort.obj
 0002:0000ff4c       $chain$4$qsort             000000018003bf4c     libucrt:qsort.obj
 0002:0000ff70       $chain$5$qsort             000000018003bf70     libucrt:qsort.obj
 0002:0000ff80       $unwind$?shortsort@@YAXPEAD0_KP6AHPEBX2@Z@Z 000000018003bf80     libucrt:qsort.obj
 0002:0000ff90       $chain$2$?shortsort@@YAXPEAD0_KP6AHPEBX2@Z@Z 000000018003bf90     libucrt:qsort.obj
 0002:0000ffac       $chain$3$?shortsort@@YAXPEAD0_KP6AHPEBX2@Z@Z 000000018003bfac     libucrt:qsort.obj
 0002:0000ffbc       $unwind$strpbrk            000000018003bfbc     libucrt:strpbrk.obj
 0002:0000ffcc       $unwind$_mbsdec_l          000000018003bfcc     libucrt:mbsdec.obj
 0002:0000ffd8       $unwind$__acrt_lowio_destroy_handle_array 000000018003bfd8     libucrt:osfinfo.obj
 0002:0000ffe8       $unwind$__acrt_lowio_ensure_fh_exists 000000018003bfe8     libucrt:osfinfo.obj
 0002:00010014       $unwind$__acrt_fltout      000000018003c014     libucrt:cfout.obj
 0002:00010034       $unwind$?divide@__crt_strtox@@YA_KAEAUbig_integer@1@AEBU21@@Z 000000018003c034     libucrt:cfout.obj
 0002:00010054       $chain$5$?divide@__crt_strtox@@YA_KAEAUbig_integer@1@AEBU21@@Z 000000018003c054     libucrt:cfout.obj
 0002:00010068       $chain$6$?divide@__crt_strtox@@YA_KAEAUbig_integer@1@AEBU21@@Z 000000018003c068     libucrt:cfout.obj
 0002:00010078       $unwind$??$write_buffer_nolock@D@@YA_NDV__crt_stdio_stream@@@Z 000000018003c078     libucrt:_flsbuf.obj
 0002:00010088       $unwind$??$write_buffer_nolock@_W@@YA_N_WV__crt_stdio_stream@@@Z 000000018003c088     libucrt:_flsbuf.obj
 0002:00010098       $unwind$common_control87   000000018003c098     libucrt:ieee.obj
 0002:000100c8       $xdatasym                  000000018003c0c8     libucrt:fpsr.obj
 0002:000100d0       $unwind$fclose             000000018003c0d0     libucrt:fclose.obj
 0002:000100f4       $unwind$??$common_lseek@_J@@YA_JH_JH@Z 000000018003c0f4     libucrt:lseek.obj
 0002:00010124       $unwind$_putwch_nolock     000000018003c124     libucrt:putwch.obj
 0002:00010124       $unwind$__report_gsfailure 000000018003c124     LIBCMT:gs_report.obj
 0002:00010130       $xdatasym                  000000018003c130     libucrt:log10.obj
 0002:0001013c       $unwind$_close             000000018003c13c     libucrt:close.obj
 0002:0001013c       $unwind$_commit            000000018003c13c     libucrt:commit.obj
 0002:00010144       $unwind$??$?RV<lambda_bfedae4ebbf01fab1bb6dcc6a9e276e0>@@AEAV<lambda_2fe9b910cf3cbf4a0ab98a02ba45b3ec>@@V<lambda_237c231691f317818eb88cc1d5d642d6>@@@?$__crt_seh_guarded_call@H@@QEAAH$$QEAV<lambda_bfedae4ebbf01fab1bb6dcc6a9e276e0>@@AEAV<lambda_2fe9b910cf3cbf4a0ab98a02ba45b3ec>@@$$QEAV<lambda_237c231691f317818eb88cc1d5d642d6>@@@Z 000000018003c144     libucrt:close.obj
 0002:00010168       $unwind$_call_matherr      000000018003c168     libucrt:libm_error.obj
 0002:00010170       $unwind$_handle_error      000000018003c170     libucrt:libm_error.obj
 0002:00010190       $unwind$__acrt_initialize_fma3 000000018003c190     libucrt:fma3_available.obj
 0002:00010198       $unwind$_log_special_common 000000018003c198     libucrt:log_special.obj
 0002:000101a4       $unwind$_itow_s            000000018003c1a4     libucrt:xtoa.obj
 0002:000101a4       $unwind$_log10_special     000000018003c1a4     libucrt:log_special.obj
 0002:000101a4       $unwind$_invalid_parameter_noinfo 000000018003c1a4     libucrt:invalid_parameter.obj
 0002:000101a4       $unwind$wctomb_s           000000018003c1a4     libucrt:wctomb.obj
 0002:000101a4       $unwind$_invalid_parameter_noinfo_noreturn 000000018003c1a4     libucrt:invalid_parameter.obj
 0002:000101ac       $unwind$?_Xout_of_range@std@@YAXPEBD@Z 000000018003c1ac     libcpmt:xthrow.obj
 0002:000101ac       $unwind$?_Xbad_function_call@std@@YAXXZ 000000018003c1ac     libcpmt:xthrow.obj
 0002:000101ac       $unwind$_raise_exc         000000018003c1ac     libucrt:fpexcept.obj
 0002:000101ac       $unwind$__dcrt_lowio_initialize_console_output 000000018003c1ac     libucrt:initcon.obj
 0002:000101ac       $unwind$?__scrt_throw_std_bad_alloc@@YAXXZ 000000018003c1ac     LIBCMT:throw_bad_alloc.obj
 0002:000101ac       $unwind$?_Xbad_alloc@std@@YAXXZ 000000018003c1ac     libcpmt:xthrow.obj
 0002:000101ac       $unwind$?__scrt_throw_std_bad_array_new_length@@YAXXZ 000000018003c1ac     LIBCMT:throw_bad_alloc.obj
 0002:000101ac       $unwind$?_Xlength_error@std@@YAXPEBD@Z 000000018003c1ac     libcpmt:xthrow.obj
 0002:000101b4       $unwind$_raise_exc_ex      000000018003c1b4     libucrt:fpexcept.obj
 0002:000101c8       $unwind$_ctrlfp            000000018003c1c8     libucrt:fpctrl.obj
 0002:000101f0       $unwind$_IsNonwritableInCurrentImage 000000018003c1f0     LIBCMT:pesect.obj
 0002:00010218       $xdatasym                  000000018003c218     LIBCMT:_chkstk_.obj
 0002:00010220       $xdatasym                  000000018003c220     libvcruntime:memcmp.obj
 0002:00010224       $unwind$strrchr            000000018003c224     libvcruntime:strrchr.obj
 0002:00010560       .edata                     000000018003c560     sharp.exp
 0002:00010588       rgpv                       000000018003c588     sharp.exp
 0002:0001058c       rgszName                   000000018003c58c     sharp.exp
 0002:00010590       rgwOrd                     000000018003c590     sharp.exp
 0002:00010592       szName                     000000018003c592     sharp.exp
 0002:0001059d       $N00001                    000000018003c59d     sharp.exp
 0002:00010870       .idata$4                   000000018003c870     libglib-2.0:dgoks00074.o
 0002:00010878       .idata$4                   000000018003c878     libglib-2.0:dgoks00077.o
 0002:00010880       .idata$4                   000000018003c880     libglib-2.0:dgoks00380.o
 0002:00010888       .idata$4                   000000018003c888     libglib-2.0:dgoks00673.o
 0002:00010890       .idata$4                   000000018003c890     libglib-2.0:dgoks01081.o
 0002:00010898       .idata$4                   000000018003c898     libglib-2.0:dgoks01122.o
 0002:000108a8       .idata$4                   000000018003c8a8     libvips:dmrks00870.o
 0002:000108b0       .idata$4                   000000018003c8b0     libvips:dmrks00939.o
 0002:000108b8       .idata$4                   000000018003c8b8     libvips:dmrks00940.o
 0002:000108c0       .idata$4                   000000018003c8c0     libvips:dmrks00985.o
 0002:000108c8       .idata$4                   000000018003c8c8     libvips:dmrks00986.o
 0002:000108d0       .idata$4                   000000018003c8d0     libvips:dmrks00987.o
 0002:000108d8       .idata$4                   000000018003c8d8     libvips:dmrks00988.o
 0002:000108e0       .idata$4                   000000018003c8e0     libvips:dmrks00996.o
 0002:000108e8       .idata$4                   000000018003c8e8     libvips:dmrks00997.o
 0002:000108f0       .idata$4                   000000018003c8f0     libvips:dmrks00998.o
 0002:000108f8       .idata$4                   000000018003c8f8     libvips:dmrks01102.o
 0002:00010900       .idata$4                   000000018003c900     libvips:dmrks01103.o
 0002:00010908       .idata$4                   000000018003c908     libvips:dmrks01175.o
 0002:00010910       .idata$4                   000000018003c910     libvips:dmrks01176.o
 0002:00010918       .idata$4                   000000018003c918     libvips:dmrks01186.o
 0002:00010920       .idata$4                   000000018003c920     libvips:dmrks01229.o
 0002:00010928       .idata$4                   000000018003c928     libvips:dmrks01230.o
 0002:00010930       .idata$4                   000000018003c930     libvips:dmrks01338.o
 0002:00010938       .idata$4                   000000018003c938     libvips:dmrks01465.o
 0002:00010940       .idata$4                   000000018003c940     libvips:dmrks01486.o
 0002:00010948       .idata$4                   000000018003c948     libvips:dmrks01506.o
 0002:00010950       .idata$4                   000000018003c950     libvips:dmrks01524.o
 0002:00010958       .idata$4                   000000018003c958     libvips:dmrks01662.o
 0002:00010960       .idata$4                   000000018003c960     libvips:dmrks01887.o
 0002:00010968       .idata$4                   000000018003c968     libvips:dmrks01903.o
 0002:00010970       .idata$4                   000000018003c970     libvips:dmrks01904.o
 0002:00010978       .idata$4                   000000018003c978     libvips:dmrks01905.o
 0002:00010980       .idata$4                   000000018003c980     libvips:dmrks01909.o
 0002:00010988       .idata$4                   000000018003c988     libvips:dmrks01946.o
 0002:00010990       .idata$4                   000000018003c990     libvips:dmrks01950.o
 0002:00010998       .idata$4                   000000018003c998     libvips:dmrks01957.o
 0002:00010ea8       .idata$6                   000000018003cea8     kernel32:KERNEL32.dll
 0002:00011cac       .idata$6                   000000018003dcac     iojs:node.dll
 0002:00011cb6       .idata$6                   000000018003dcb6     libvips:dmrks01465.o
 0002:00011cca       .idata$6                   000000018003dcca     libvips:dmrks01230.o
 0002:00011cea       .idata$6                   000000018003dcea     libvips:dmrks01662.o
 0002:00011d0c       .idata$6                   000000018003dd0c     libvips:dmrks01175.o
 0002:00011d22       .idata$6                   000000018003dd22     libvips:dmrks01506.o
 0002:00011d42       .idata$6                   000000018003dd42     libvips:dmrks01229.o
 0002:00011d5c       .idata$6                   000000018003dd5c     libvips:dmrks00939.o
 0002:00011d72       .idata$6                   000000018003dd72     libvips:dmrks01186.o
 0002:00011d86       .idata$6                   000000018003dd86     libvips:dmrks01176.o
 0002:00011d98       .idata$6                   000000018003dd98     libvips:dmrks01887.o
 0002:00011db0       .idata$6                   000000018003ddb0     libvips:dmrks01338.o
 0002:00011dc6       .idata$6                   000000018003ddc6     libvips:dmrks00940.o
 0002:00011dd6       .idata$6                   000000018003ddd6     libvips:dmrks01524.o
 0002:00011dee       .idata$6                   000000018003ddee     libvips:dmrks00870.o
 0002:00011e00       .idata$6                   000000018003de00     libvips:dmrks01486.o
 0002:00011e0c       .idata$6                   000000018003de0c     libvips:dmrks00987.o
 0002:00011e26       .idata$6                   000000018003de26     libvips:dmrks01957.o
 0002:00011e36       .idata$6                   000000018003de36     libvips:dmrks00988.o
 0002:00011e4c       .idata$6                   000000018003de4c     libvips:dmrks01950.o
 0002:00011e66       .idata$6                   000000018003de66     libvips:dmrks00985.o
 0002:00011e7c       .idata$6                   000000018003de7c     libvips:dmrks00996.o
 0002:00011e92       .idata$6                   000000018003de92     libvips:dmrks00986.o
 0002:00011eae       .idata$6                   000000018003deae     libvips:dmrks00998.o
 0002:00011ec8       .idata$6                   000000018003dec8     libvips:dmrks01102.o
 0002:00011ee0       .idata$6                   000000018003dee0     libvips:dmrks00997.o
 0002:00011efc       .idata$6                   000000018003defc     libvips:dmrks01909.o
 0002:00011f0e       .idata$6                   000000018003df0e     libvips:dmrks01103.o
 0002:00011f26       .idata$6                   000000018003df26     libvips:dmrks01946.o
 0002:00011f3e       .idata$6                   000000018003df3e     libvips:dmrks01905.o
 0002:00011f60       .idata$6                   000000018003df60     libvips:dmrks01904.o
 0002:00011f78       .idata$6                   000000018003df78     libvips:dmrks01903.o
 0002:00011f92       .idata$6                   000000018003df92     libglib-2.0:dgoks00380.o
 0002:00011f9c       .idata$6                   000000018003df9c     libglib-2.0:dgoks00077.o
 0002:00011fb0       .idata$6                   000000018003dfb0     libglib-2.0:dgoks00074.o
 0002:00011fcc       .idata$6                   000000018003dfcc     libglib-2.0:dgoks00673.o
 0002:00011fd8       .idata$6                   000000018003dfd8     libglib-2.0:dgoks01122.o
 0002:00011fe2       .idata$6                   000000018003dfe2     libglib-2.0:dgoks01081.o
 0002:000134c0       .idata$6                   000000018003f4c0     libvips-cpp:libvips-cpp.dll
 0002:00013a1c       .idata$7                   000000018003fa1c     libvips:dmrks01465.o
 0002:00013a20       .idata$7                   000000018003fa20     libvips:dmrks01230.o
 0002:00013a24       .idata$7                   000000018003fa24     libvips:dmrks01662.o
 0002:00013a28       .idata$7                   000000018003fa28     libvips:dmrks01175.o
 0002:00013a2c       .idata$7                   000000018003fa2c     libvips:dmrks01506.o
 0002:00013a30       .idata$7                   000000018003fa30     libvips:dmrks01229.o
 0002:00013a34       .idata$7                   000000018003fa34     libvips:dmrks00939.o
 0002:00013a38       .idata$7                   000000018003fa38     libvips:dmrks01186.o
 0002:00013a3c       .idata$7                   000000018003fa3c     libvips:dmrks01176.o
 0002:00013a40       .idata$7                   000000018003fa40     libvips:dmrks01887.o
 0002:00013a44       .idata$7                   000000018003fa44     libvips:dmrks01338.o
 0002:00013a48       .idata$7                   000000018003fa48     libvips:dmrks00940.o
 0002:00013a4c       .idata$7                   000000018003fa4c     libvips:dmrks01524.o
 0002:00013a50       .idata$7                   000000018003fa50     libvips:dmrks00870.o
 0002:00013a54       .idata$7                   000000018003fa54     libvips:dmrks01486.o
 0002:00013a58       .idata$7                   000000018003fa58     libvips:dmrks00987.o
 0002:00013a5c       .idata$7                   000000018003fa5c     libvips:dmrks01957.o
 0002:00013a60       .idata$7                   000000018003fa60     libvips:dmrks00988.o
 0002:00013a64       .idata$7                   000000018003fa64     libvips:dmrks01950.o
 0002:00013a68       .idata$7                   000000018003fa68     libvips:dmrks00985.o
 0002:00013a6c       .idata$7                   000000018003fa6c     libvips:dmrks00996.o
 0002:00013a70       .idata$7                   000000018003fa70     libvips:dmrks00986.o
 0002:00013a74       .idata$7                   000000018003fa74     libvips:dmrks00998.o
 0002:00013a78       .idata$7                   000000018003fa78     libvips:dmrks01102.o
 0002:00013a7c       .idata$7                   000000018003fa7c     libvips:dmrks00997.o
 0002:00013a80       .idata$7                   000000018003fa80     libvips:dmrks01909.o
 0002:00013a84       .idata$7                   000000018003fa84     libvips:dmrks01103.o
 0002:00013a88       .idata$7                   000000018003fa88     libvips:dmrks01946.o
 0002:00013a8c       .idata$7                   000000018003fa8c     libvips:dmrks01905.o
 0002:00013a90       .idata$7                   000000018003fa90     libvips:dmrks01904.o
 0002:00013a94       .idata$7                   000000018003fa94     libvips:dmrks01903.o
 0002:00013aa8       .idata$7                   000000018003faa8     libglib-2.0:dgoks00380.o
 0002:00013aac       .idata$7                   000000018003faac     libglib-2.0:dgoks00077.o
 0002:00013ab0       .idata$7                   000000018003fab0     libglib-2.0:dgoks00074.o
 0002:00013ab4       .idata$7                   000000018003fab4     libglib-2.0:dgoks00673.o
 0002:00013ab8       .idata$7                   000000018003fab8     libglib-2.0:dgoks01122.o
 0002:00013abc       .idata$7                   000000018003fabc     libglib-2.0:dgoks01081.o
 0003:00000030       ?__vcrt_flsindex@@3KA      0000000180040030     libvcruntime:per_thread_data.obj
 0003:00000044       errno_no_memory            0000000180040044     libucrt:errno.obj
 0003:00000048       doserrno_no_memory         0000000180040048     libucrt:errno.obj
 0003:00000158       __acrt_flsindex            0000000180040158     libucrt:per_thread_data.obj
 0003:00000500       __rgctypeflag              0000000180040500     libucrt:mbctype.obj
 0003:00000510       __rgcode_page_info         0000000180040510     libucrt:mbctype.obj
 0003:00000900       ?dazSupported@?1??common_control87@@9@9 0000000180040900     libucrt:ieee.obj
 0003:00000920       ?dazSupported@?1??_ctrlfp@@9@9 0000000180040920     libucrt:fpctrl.obj
 0003:00000930       _module                    0000000180040930     sharp.obj
 0003:00000b90       ?__proc_attached@@3HA      0000000180040b90     LIBCMT:dll_dllmain.obj
 0003:00000ba0       GS_ExceptionRecord         0000000180040ba0     LIBCMT:gs_report.obj
 0003:00000c40       GS_ContextRecord           0000000180040c40     LIBCMT:gs_report.obj
 0003:00001120       ?module_local_atexit_table@@3U_onexit_table_t@@A 0000000180041120     LIBCMT:utility.obj
 0003:00001138       ?module_local_at_quick_exit_table@@3U_onexit_table_t@@A 0000000180041138     LIBCMT:utility.obj
 0003:00001150       ?is_initialized_as_dll@@3_NA 0000000180041150     LIBCMT:utility.obj
 0003:00001190       ?__vcrt_startup_thread_ptd@@3U__vcrt_ptd@@A 0000000180041190     libvcruntime:per_thread_data.obj
 0003:00001210       __vcrt_lock_table          0000000180041210     libvcruntime:locks.obj
 0003:00001238       __vcrt_locks_initialized   0000000180041238     libvcruntime:locks.obj
 0003:00001240       ?module_handles@@3PAPEAUHINSTANCE__@@A 0000000180041240     libvcruntime:winapi_downlevel.obj
 0003:00001260       ?encoded_function_pointers@@3PAPEAXA 0000000180041260     libvcruntime:winapi_downlevel.obj
 0003:000012f0       ?heap@@3V_HeapManager@@A   00000001800412f0     libvcruntime:undname.obj
 0003:00001318       __acrt_invalid_parameter_handler 0000000180041318     libucrt:invalid_parameter.obj
 0003:00001320       __acrt_new_handler         0000000180041320     libucrt:new_handler.obj
 0003:00001328       c_termination_complete     0000000180041328     libucrt:exit.obj
 0003:00001330       thread_local_exit_callback_func 0000000180041330     libucrt:exit.obj
 0003:00001338       ?c_exit_complete@?5??common_exit@@YAXHW4_crt_exit_cleanup_mode@@W4_crt_exit_return_mode@@@Z@4_NA 0000000180041338     libucrt:exit.obj
 0003:00001340       ?program_name@?5???$common_configure_argv@D@@YAHW4_crt_argv_mode@@@Z@4PADA 0000000180041340     libucrt:argv_parsing.obj
 0003:00001498       __acrt_app_type            0000000180041498     libucrt:report_runtime_error.obj
 0003:0000149c       __acrt_error_mode          000000018004149c     libucrt:set_error_mode.obj
 0003:000014b8       ctrlc_action               00000001800414b8     libucrt:signal.obj
 0003:000014c0       ctrlbreak_action           00000001800414c0     libucrt:signal.obj
 0003:000014c8       abort_action               00000001800414c8     libucrt:signal.obj
 0003:000014d0       term_action                00000001800414d0     libucrt:signal.obj
 0003:000014f0       __acrt_lock_table          00000001800414f0     libucrt:locks.obj
 0003:000016f8       __acrt_locks_initialized   00000001800416f8     libucrt:locks.obj
 0003:00001700       module_handles             0000000180041700     libucrt:winapi_thunks.obj
 0003:000017a0       encoded_function_pointers  00000001800417a0     libucrt:winapi_thunks.obj
 0003:000018a0       ?state_cache@?1??__acrt_is_packaged_app@@9@4JA 00000001800418a0     libucrt:winapi_thunks.obj
 0003:000018bc       fSystemSet                 00000001800418bc     libucrt:mbctype.obj
 0003:000018c8       ?initialized@?1??__acrt_initialize_multibyte@@9@4_NA 00000001800418c8     libucrt:mbctype.obj
 0003:00001d08       user_matherr               0000000180041d08     libucrt:matherr.obj
 0003:00001d20       __acrt_global_new_mode     0000000180041d20     libucrt:new_mode.obj
 0003:00001d28       enable_percent_n           0000000180041d28     libucrt:printf_count_output.obj
 0004:00000000       $pdata$??_Gexception@stdext@@UEAAPEAXI@Z 0000000180042000     common.obj
 0004:0000000c       $pdata$?_Deallocate@std@@YAXPEAX_K1@Z 000000018004200c     common.obj
 0004:00000018       $pdata$?to_string@std@@YA?AV?$basic_string@DU?$char_traits@D@std@@V?$allocator@D@2@@1@H@Z 0000000180042018     common.obj
 0004:00000024       $pdata$?Get@Nan@@YA?AV?$MaybeLocal@VValue@v8@@@v8@@V?$Local@VObject@v8@@@3@V?$Local@VValue@v8@@@3@@Z 0000000180042024     common.obj
 0004:00000030       $pdata$?Has@Nan@@YA?AV?$Maybe@_N@1@V?$Local@VObject@v8@@@v8@@V?$Local@VString@v8@@@4@@Z 0000000180042030     common.obj
 0004:0000003c       $pdata$?convert@?$ToFactory@I@imp@Nan@@SA?AV?$Maybe@I@3@V?$Local@VValue@v8@@@v8@@@Z 000000018004203c     common.obj
 0004:00000048       $pdata$?New@Nan@@YA?AV?$MaybeLocal@VString@v8@@@v8@@AEBV?$basic_string@DU?$char_traits@D@std@@V?$allocator@D@2@@std@@@Z 0000000180042048     common.obj
 0004:00000054       $pdata$??0Utf8String@Nan@@QEAA@V?$Local@VValue@v8@@@v8@@@Z 0000000180042054     common.obj
 0004:00000060       $pdata$?HasAttr@sharp@@YA_NV?$Local@VObject@v8@@@v8@@V?$basic_string@DU?$char_traits@D@std@@V?$allocator@D@2@@std@@@Z 0000000180042060     common.obj
 0004:0000006c       $pdata$?AttrAsStr@sharp@@YA?AV?$basic_string@DU?$char_traits@D@std@@V?$allocator@D@2@@std@@V?$Local@VObject@v8@@@v8@@V23@@Z 000000018004206c     common.obj
 0004:00000078       $pdata$?CreateInputDescriptor@sharp@@YAPEAUInputDescriptor@1@V?$Local@VObject@v8@@@v8@@V?$vector@V?$Local@VObject@v8@@@v8@@V?$allocator@V?$Local@VObject@v8@@@v8@@@std@@@std@@@Z 0000000180042078     common.obj
 0004:00000084       $pdata$?EndsWith@sharp@@YA_NAEBV?$basic_string@DU?$char_traits@D@std@@V?$allocator@D@2@@std@@0@Z 0000000180042084     common.obj
 0004:00000090       $pdata$?IsJpeg@sharp@@YA_NAEBV?$basic_string@DU?$char_traits@D@std@@V?$allocator@D@2@@std@@@Z 0000000180042090     common.obj
 0004:0000009c       $pdata$?IsPng@sharp@@YA_NAEBV?$basic_string@DU?$char_traits@D@std@@V?$allocator@D@2@@std@@@Z 000000018004209c     common.obj
 0004:000000a8       $pdata$?IsWebp@sharp@@YA_NAEBV?$basic_string@DU?$char_traits@D@std@@V?$allocator@D@2@@std@@@Z 00000001800420a8     common.obj
 0004:000000b4       $pdata$?IsTiff@sharp@@YA_NAEBV?$basic_string@DU?$char_traits@D@std@@V?$allocator@D@2@@std@@@Z 00000001800420b4     common.obj
 0004:000000c0       $pdata$?IsDz@sharp@@YA_NAEBV?$basic_string@DU?$char_traits@D@std@@V?$allocator@D@2@@std@@@Z 00000001800420c0     common.obj
 0004:000000cc       $pdata$?IsDzZip@sharp@@YA_NAEBV?$basic_string@DU?$char_traits@D@std@@V?$allocator@D@2@@std@@@Z 00000001800420cc     common.obj
 0004:000000d8       $pdata$?IsV@sharp@@YA_NAEBV?$basic_string@DU?$char_traits@D@std@@V?$allocator@D@2@@std@@@Z 00000001800420d8     common.obj
 0004:000000e4       $pdata$?ImageTypeId@sharp@@YA?AV?$basic_string@DU?$char_traits@D@std@@V?$allocator@D@2@@std@@W4ImageType@1@@Z 00000001800420e4     common.obj
 0004:000000f0       $pdata$?DetermineImageType@sharp@@YA?AW4ImageType@1@PEAX_K@Z 00000001800420f0     common.obj
 0004:000000fc       $pdata$?DetermineImageType@sharp@@YA?AW4ImageType@1@PEBD@Z 00000001800420fc     common.obj
 0004:00000108       $pdata$?OpenInput@sharp@@YA?AV?$tuple@VVImage@vips@@W4ImageType@sharp@@@std@@PEAUInputDescriptor@1@W4VipsAccess@@@Z 0000000180042108     common.obj
 0004:00000114       $pdata$?HasProfile@sharp@@YA_NVVImage@vips@@@Z 0000000180042114     common.obj
 0004:00000120       $pdata$?HasAlpha@sharp@@YA_NVVImage@vips@@@Z 0000000180042120     common.obj
 0004:0000012c       $pdata$?RemoveExifOrientation@sharp@@YAXVVImage@vips@@@Z 000000018004212c     common.obj
 0004:00000138       $pdata$?SetDensity@sharp@@YAXVVImage@vips@@H@Z 0000000180042138     common.obj
 0004:00000144       $pdata$?CalculateCrop@sharp@@YA?AV?$tuple@HH@std@@HHHHH@Z 0000000180042144     common.obj
 0004:00000150       $pdata$0$?CalculateCrop@sharp@@YA?AV?$tuple@HH@std@@HHHHH@Z 0000000180042150     common.obj
 0004:0000015c       $pdata$1$?CalculateCrop@sharp@@YA?AV?$tuple@HH@std@@HHHHH@Z 000000018004215c     common.obj
 0004:00000168       $pdata$?CalculateCrop@sharp@@YA?AV?$tuple@HH@std@@HHHHHH@Z 0000000180042168     common.obj
 0004:00000174       $pdata$?GetRgbaAsColourspace@sharp@@YA?AV?$vector@NV?$allocator@N@std@@@std@@V23@W4VipsInterpretation@@@Z 0000000180042174     common.obj
 0004:00000180       $pdata$??1?$vector@V?$Local@VObject@v8@@@v8@@V?$allocator@V?$Local@VObject@v8@@@v8@@@std@@@std@@QEAA@XZ 0000000180042180     common.obj
 0004:00000180       $pdata$??1?$vector@NV?$allocator@N@std@@@std@@QEAA@XZ 0000000180042180     common.obj
 0004:00000180       $pdata$??1?$vector@PEAUInputDescriptor@sharp@@V?$allocator@PEAUInputDescriptor@sharp@@@std@@@std@@QEAA@XZ 0000000180042180     pipeline.obj
 0004:0000018c       $pdata$??0?$vector@NV?$allocator@N@std@@@std@@QEAA@AEBV01@@Z 000000018004218c     common.obj
 0004:00000198       $pdata$0$??0?$vector@NV?$allocator@N@std@@@std@@QEAA@AEBV01@@Z 0000000180042198     common.obj
 0004:000001a4       $pdata$1$??0?$vector@NV?$allocator@N@std@@@std@@QEAA@AEBV01@@Z 00000001800421a4     common.obj
 0004:000001b0       $pdata$??1?$basic_string@DU?$char_traits@D@std@@V?$allocator@D@2@@std@@QEAA@XZ 00000001800421b0     common.obj
 0004:000001bc       $pdata$??4?$basic_string@DU?$char_traits@D@std@@V?$allocator@D@2@@std@@QEAAAEAV01@$$QEAV01@@Z 00000001800421bc     common.obj
 0004:000001c8       $pdata$??0?$basic_string@DU?$char_traits@D@std@@V?$allocator@D@2@@std@@QEAA@PEBD@Z 00000001800421c8     common.obj
 0004:000001d4       $pdata$??0?$basic_string@DU?$char_traits@D@std@@V?$allocator@D@2@@std@@QEAA@AEBV01@@Z 00000001800421d4     common.obj
 0004:000001e0       $pdata$?_Reserve@?$vector@V?$Local@VObject@v8@@@v8@@V?$allocator@V?$Local@VObject@v8@@@v8@@@std@@@std@@IEAAX_K@Z 00000001800421e0     common.obj
 0004:000001ec       $pdata$?_Tidy@?$basic_string@DU?$char_traits@D@std@@V?$allocator@D@2@@std@@QEAAX_N_K@Z 00000001800421ec     common.obj
 0004:000001f8       $pdata$?assign@?$basic_string@DU?$char_traits@D@std@@V?$allocator@D@2@@std@@QEAAAEAV12@PEBD_K@Z 00000001800421f8     common.obj
 0004:00000204       $pdata$?assign@?$basic_string@DU?$char_traits@D@std@@V?$allocator@D@2@@std@@QEAAAEAV12@AEBV12@_K1@Z 0000000180042204     common.obj
 0004:00000210       $pdata$?_Assign_rv@?$basic_string@DU?$char_traits@D@std@@V?$allocator@D@2@@std@@QEAAX$$QEAV12@@Z 0000000180042210     common.obj
 0004:0000021c       $pdata$?deallocate@?$_Wrap_alloc@V?$allocator@V?$Local@VObject@v8@@@v8@@@std@@@std@@QEAAXPEAV?$Local@VObject@v8@@@v8@@_K@Z 000000018004221c     common.obj
 0004:0000021c       $pdata$?deallocate@?$_Wrap_alloc@V?$allocator@N@std@@@std@@QEAAXPEAN_K@Z 000000018004221c     common.obj
 0004:0000021c       $pdata$?deallocate@?$_Wrap_alloc@V?$allocator@PEAUInputDescriptor@sharp@@@std@@@std@@QEAAXPEAPEAUInputDescriptor@sharp@@_K@Z 000000018004221c     pipeline.obj
 0004:00000228       $pdata$?_Reallocate@?$vector@V?$Local@VObject@v8@@@v8@@V?$allocator@V?$Local@VObject@v8@@@v8@@@std@@@std@@IEAAX_K@Z 0000000180042228     common.obj
 0004:00000234       $pdata$?allocate@?$_Wrap_alloc@V?$allocator@N@std@@@std@@QEAAPEAN_K@Z 0000000180042234     common.obj
 0004:00000234       $pdata$?allocate@?$_Wrap_alloc@V?$allocator@V?$Local@VObject@v8@@@v8@@@std@@@std@@QEAAPEAV?$Local@VObject@v8@@@v8@@_K@Z 0000000180042234     common.obj
 0004:00000240       $pdata$?erase@?$basic_string@DU?$char_traits@D@std@@V?$allocator@D@2@@std@@QEAAAEAV12@_K0@Z 0000000180042240     common.obj
 0004:0000024c       $pdata$?_Copy@?$basic_string@DU?$char_traits@D@std@@V?$allocator@D@2@@std@@QEAAX_K0@Z 000000018004224c     common.obj
 0004:00000258       $pdata$??$_Integral_to_string@DH@std@@YA?AV?$basic_string@DU?$char_traits@D@std@@V?$allocator@D@2@@0@H@Z 0000000180042258     common.obj
 0004:00000264       $pdata$??$New@VString@v8@@V?$basic_string@DU?$char_traits@D@std@@V?$allocator@D@2@@std@@@Nan@@YA?AV?$MaybeLocal@VString@v8@@@v8@@V?$basic_string@DU?$char_traits@D@std@@V?$allocator@D@2@@std@@@Z 0000000180042264     common.obj
 0004:00000270       $pdata$??$AttrAs@VFunction@v8@@@sharp@@YA?AV?$Local@VFunction@v8@@@v8@@V?$Local@VObject@v8@@@2@V?$basic_string@DU?$char_traits@D@std@@V?$allocator@D@2@@std@@@Z 0000000180042270     pipeline.obj
 0004:00000270       $pdata$??$AttrAs@VArray@v8@@@sharp@@YA?AV?$Local@VArray@v8@@@v8@@V?$Local@VObject@v8@@@2@V?$basic_string@DU?$char_traits@D@std@@V?$allocator@D@2@@std@@@Z 0000000180042270     pipeline.obj
 0004:00000270       $pdata$??$AttrAs@VObject@v8@@@sharp@@YA?AV?$Local@VObject@v8@@@v8@@V12@V?$basic_string@DU?$char_traits@D@std@@V?$allocator@D@2@@std@@@Z 0000000180042270     common.obj
 0004:0000027c       $pdata$??$AttrTo@I@sharp@@YAIV?$Local@VObject@v8@@@v8@@V?$basic_string@DU?$char_traits@D@std@@V?$allocator@D@2@@std@@@Z 000000018004227c     common.obj
 0004:00000288       $pdata$??$make_tuple@AEAVVImage@vips@@AEAW4ImageType@sharp@@@std@@YA?AV?$tuple@VVImage@vips@@W4ImageType@sharp@@@0@AEAVVImage@vips@@AEAW4ImageType@sharp@@@Z 0000000180042288     common.obj
 0004:00000294       $pdata$?Set@Nan@@YA?AV?$Maybe@_N@1@V?$Local@VObject@v8@@@v8@@V?$Local@VValue@v8@@@4@1@Z 0000000180042294     metadata.obj
 0004:000002a0       $pdata$?Set@Nan@@YA?AV?$Maybe@_N@1@V?$Local@VObject@v8@@@v8@@IV?$Local@VValue@v8@@@4@@Z 00000001800422a0     metadata.obj
 0004:000002ac       $pdata$?Get@Nan@@YA?AV?$MaybeLocal@VValue@v8@@@v8@@V?$Local@VObject@v8@@@3@I@Z 00000001800422ac     metadata.obj
 0004:000002b8       $pdata$?convert@?$ToFactory@VUint32@v8@@@imp@Nan@@SA?AV?$MaybeLocal@VUint32@v8@@@v8@@V?$Local@VValue@v8@@@5@@Z 00000001800422b8     metadata.obj
 0004:000002c4       $pdata$?Error@Nan@@YA?AV?$Local@VValue@v8@@@v8@@PEBD@Z 00000001800422c4     metadata.obj
 0004:000002d0       $pdata$??0Callback@Nan@@QEAA@AEBV?$Local@VFunction@v8@@@v8@@@Z 00000001800422d0     metadata.obj
 0004:000002dc       $pdata$?Call@Callback@Nan@@QEBA?AV?$Local@VValue@v8@@@v8@@HQEAV34@@Z 00000001800422dc     metadata.obj
 0004:000002e8       $pdata$?Call@Callback@Nan@@QEBA?AV?$MaybeLocal@VValue@v8@@@v8@@HQEAV?$Local@VValue@v8@@@4@PEAVAsyncResource@2@@Z 00000001800422e8     metadata.obj
 0004:000002f4       $pdata$?Call_@Callback@Nan@@AEBA?AV?$Local@VValue@v8@@@v8@@PEAVIsolate@4@V?$Local@VObject@v8@@@4@HQEAV34@@Z 00000001800422f4     metadata.obj
 0004:00000300       $pdata$??0AsyncWorker@Nan@@QEAA@PEAVCallback@1@PEBD@Z 0000000180042300     metadata.obj
 0004:0000030c       $pdata$??1AsyncWorker@Nan@@UEAA@XZ 000000018004230c     metadata.obj
 0004:00000318       $pdata$?WorkComplete@AsyncWorker@Nan@@UEAAXXZ 0000000180042318     metadata.obj
 0004:00000324       $pdata$?GetFromPersistent@AsyncWorker@Nan@@QEBA?AV?$Local@VValue@v8@@@v8@@I@Z 0000000180042324     metadata.obj
 0004:00000330       $pdata$?HandleOKCallback@AsyncWorker@Nan@@MEAAXXZ 0000000180042330     metadata.obj
 0004:0000033c       $pdata$?HandleErrorCallback@AsyncWorker@Nan@@MEAAXXZ 000000018004233c     metadata.obj
 0004:00000348       $pdata$??_GAsyncWorker@Nan@@UEAAPEAXI@Z 0000000180042348     metadata.obj
 0004:00000354       $pdata$??1?$Persistent@VObject@v8@@V?$NonCopyablePersistentTraits@VObject@v8@@@2@@Nan@@QEAA@XZ 0000000180042354     metadata.obj
 0004:00000360       $pdata$?AsyncExecuteComplete@Nan@@YAXPEAUuv_work_s@@@Z 0000000180042360     metadata.obj
 0004:0000036c       $pdata$?AsyncQueueWorker@Nan@@YAXPEAVAsyncWorker@1@@Z 000000018004236c     metadata.obj
 0004:00000378       $pdata$??0MetadataWorker@@QEAA@PEAVCallback@Nan@@PEAUMetadataBaton@@V?$vector@V?$Local@VObject@v8@@@v8@@V?$allocator@V?$Local@VObject@v8@@@v8@@@std@@@std@@@Z 0000000180042378     metadata.obj
 0004:00000384       $pdata$?Execute@MetadataWorker@@UEAAXXZ 0000000180042384     metadata.obj
 0004:00000390       $pdata$?HandleOKCallback@MetadataWorker@@UEAAXXZ 0000000180042390     metadata.obj
 0004:0000039c       $pdata$1$?HandleOKCallback@MetadataWorker@@UEAAXXZ 000000018004239c     metadata.obj
 0004:000003a8       $pdata$2$?HandleOKCallback@MetadataWorker@@UEAAXXZ 00000001800423a8     metadata.obj
 0004:000003b4       $pdata$3$?HandleOKCallback@MetadataWorker@@UEAAXXZ 00000001800423b4     metadata.obj
 0004:000003c0       $pdata$4$?HandleOKCallback@MetadataWorker@@UEAAXXZ 00000001800423c0     metadata.obj
 0004:000003cc       $pdata$??_GMetadataWorker@@UEAAPEAXI@Z 00000001800423cc     metadata.obj
 0004:000003d8       $pdata$?metadata@@YAXAEBV?$FunctionCallbackInfo@VValue@v8@@@Nan@@@Z 00000001800423d8     metadata.obj
 0004:000003e4       $pdata$??0?$vector@V?$Local@VObject@v8@@@v8@@V?$allocator@V?$Local@VObject@v8@@@v8@@@std@@@std@@QEAA@AEBV01@@Z 00000001800423e4     metadata.obj
 0004:000003f0       $pdata$?append@?$basic_string@DU?$char_traits@D@std@@V?$allocator@D@2@@std@@QEAAAEAV12@PEBD_K@Z 00000001800423f0     metadata.obj
 0004:000003fc       $pdata$0$?append@?$basic_string@DU?$char_traits@D@std@@V?$allocator@D@2@@std@@QEAAAEAV12@PEBD_K@Z 00000001800423fc     metadata.obj
 0004:00000408       $pdata$1$?append@?$basic_string@DU?$char_traits@D@std@@V?$allocator@D@2@@std@@QEAAAEAV12@PEBD_K@Z 0000000180042408     metadata.obj
 0004:00000414       $pdata$2$?append@?$basic_string@DU?$char_traits@D@std@@V?$allocator@D@2@@std@@QEAAAEAV12@PEBD_K@Z 0000000180042414     metadata.obj
 0004:00000420       $pdata$?append@?$basic_string@DU?$char_traits@D@std@@V?$allocator@D@2@@std@@QEAAAEAV12@AEBV12@_K1@Z 0000000180042420     metadata.obj
 0004:0000042c       $pdata$0$?append@?$basic_string@DU?$char_traits@D@std@@V?$allocator@D@2@@std@@QEAAAEAV12@AEBV12@_K1@Z 000000018004242c     metadata.obj
 0004:00000438       $pdata$1$?append@?$basic_string@DU?$char_traits@D@std@@V?$allocator@D@2@@std@@QEAAAEAV12@AEBV12@_K1@Z 0000000180042438     metadata.obj
 0004:00000444       $pdata$2$?append@?$basic_string@DU?$char_traits@D@std@@V?$allocator@D@2@@std@@QEAAAEAV12@AEBV12@_K1@Z 0000000180042444     metadata.obj
 0004:00000450       $pdata$??$New@VUint32@v8@@H@Nan@@YA?AV?$Local@VUint32@v8@@@v8@@H@Z 0000000180042450     metadata.obj
 0004:0000045c       $pdata$??$_Accumulate_unchecked@PEBV?$Local@VObject@v8@@@v8@@HV<lambda_1cf14cbc5c28648f7ac9038b3f6db2a5>@@@std@@YAHPEBV?$Local@VObject@v8@@@v8@@0HAEAV<lambda_1cf14cbc5c28648f7ac9038b3f6db2a5>@@@Z 000000018004245c     pipeline.obj
 0004:0000045c       $pdata$??$_Accumulate_unchecked@PEBV?$Local@VObject@v8@@@v8@@HV<lambda_9252aa89fe9814f85e2a072fe573e6da>@@@std@@YAHPEBV?$Local@VObject@v8@@@v8@@0HAEAV<lambda_9252aa89fe9814f85e2a072fe573e6da>@@@Z 000000018004245c     metadata.obj
 0004:00000468       $pdata$?Composite@sharp@@YA?AVVImage@vips@@V23@0H@Z 0000000180042468     operations.obj
 0004:00000474       $pdata$?Composite@sharp@@YA?AVVImage@vips@@V23@0HH@Z 0000000180042474     operations.obj
 0004:00000480       $pdata$?IsInputValidForComposition@sharp@@YA_NVVImage@vips@@0@Z 0000000180042480     operations.obj
 0004:0000048c       $pdata$?CompositeImage@sharp@@YA?AVVImage@vips@@V23@0@Z 000000018004248c     operations.obj
 0004:00000498       $pdata$?Cutout@sharp@@YA?AVVImage@vips@@V23@0H@Z 0000000180042498     operations.obj
 0004:000004a4       $pdata$?Normalise@sharp@@YA?AVVImage@vips@@V23@@Z 00000001800424a4     operations.obj
 0004:000004b0       $pdata$?Gamma@sharp@@YA?AVVImage@vips@@V23@N@Z 00000001800424b0     operations.obj
 0004:000004bc       $pdata$?Blur@sharp@@YA?AVVImage@vips@@V23@N@Z 00000001800424bc     operations.obj
 0004:000004c8       $pdata$?Convolve@sharp@@YA?AVVImage@vips@@V23@HHNNAEBV?$unique_ptr@$$BY0A@NU?$default_delete@$$BY0A@N@std@@@std@@@Z 00000001800424c8     operations.obj
 0004:000004d4       $pdata$?Sharpen@sharp@@YA?AVVImage@vips@@V23@NNN@Z 00000001800424d4     operations.obj
 0004:000004e0       $pdata$??RAttentionStrategy@sharp@@QEAANVVImage@vips@@@Z 00000001800424e0     operations.obj
 0004:000004ec       $pdata$?Crop@sharp@@YA?AV?$tuple@HH@std@@VVImage@vips@@HHV?$function@$$A6ANVVImage@vips@@@Z@3@@Z 00000001800424ec     operations.obj
 0004:000004f8       $pdata$?TileCache@sharp@@YA?AVVImage@vips@@V23@N@Z 00000001800424f8     operations.obj
 0004:00000504       $pdata$?Threshold@sharp@@YA?AVVImage@vips@@V23@N_N@Z 0000000180042504     operations.obj
 0004:00000510       $pdata$?Bandbool@sharp@@YA?AVVImage@vips@@V23@W4VipsOperationBoolean@@@Z 0000000180042510     operations.obj
 0004:0000051c       $pdata$?Boolean@sharp@@YA?AVVImage@vips@@V23@0W4VipsOperationBoolean@@@Z 000000018004251c     operations.obj
 0004:00000528       $pdata$?Trim@sharp@@YA?AVVImage@vips@@V23@H@Z 0000000180042528     operations.obj
 0004:00000534       $pdata$??1?$function@$$A6ANVVImage@vips@@@Z@std@@QEAA@XZ 0000000180042534     operations.obj
 0004:00000540       $pdata$??$_Construct@PEBN@?$vector@NV?$allocator@N@std@@@std@@QEAAXPEBN0Uforward_iterator_tag@1@@Z 0000000180042540     operations.obj
 0004:0000054c       $pdata$0$??$_Construct@PEBN@?$vector@NV?$allocator@N@std@@@std@@QEAAXPEBN0Uforward_iterator_tag@1@@Z 000000018004254c     operations.obj
 0004:00000558       $pdata$1$??$_Construct@PEBN@?$vector@NV?$allocator@N@std@@@std@@QEAAXPEBN0Uforward_iterator_tag@1@@Z 0000000180042558     operations.obj
 0004:00000564       $pdata$?convert@?$ToFactory@N@imp@Nan@@SA?AV?$Maybe@N@3@V?$Local@VValue@v8@@@v8@@@Z 0000000180042564     pipeline.obj
 0004:00000570       $pdata$?convert@?$ToFactory@H@imp@Nan@@SA?AV?$Maybe@H@3@V?$Local@VValue@v8@@@v8@@@Z 0000000180042570     pipeline.obj
 0004:0000057c       $pdata$?convert@?$ToFactory@_N@imp@Nan@@SA?AV?$Maybe@_N@3@V?$Local@VValue@v8@@@v8@@@Z 000000018004257c     pipeline.obj
 0004:00000588       $pdata$??0PipelineBaton@@QEAA@XZ 0000000180042588     pipeline.obj
 0004:00000594       $pdata$??0PipelineWorker@@QEAA@PEAVCallback@Nan@@PEAUPipelineBaton@@0V?$vector@V?$Local@VObject@v8@@@v8@@V?$allocator@V?$Local@VObject@v8@@@v8@@@std@@@std@@@Z 0000000180042594     pipeline.obj
 0004:000005a0       $pdata$?Execute@PipelineWorker@@UEAAXXZ 00000001800425a0     pipeline.obj
 0004:000005ac       $pdata$?HandleOKCallback@PipelineWorker@@UEAAXXZ 00000001800425ac     pipeline.obj
 0004:000005b8       $pdata$?CalculateRotationAndFlip@PipelineWorker@@AEAA?AV?$tuple@W4VipsAngle@@_N_N@std@@HVVImage@vips@@@Z 00000001800425b8     pipeline.obj
 0004:000005c4       $pdata$?AssembleSuffixString@PipelineWorker@@AEAA?AV?$basic_string@DU?$char_traits@D@std@@V?$allocator@D@2@@std@@V23@V?$vector@U?$pair@V?$basic_string@DU?$char_traits@D@std@@V?$allocator@D@2@@std@@V12@@std@@V?$allocator@U?$pair@V?$basic_string@DU?$char_traits@D@std@@V?$allocator@D@2@@std@@V12@@std@@@2@@3@@Z 00000001800425c4     pipeline.obj
 0004:000005d0       $pdata$??_GPipelineWorker@@UEAAPEAXI@Z 00000001800425d0     pipeline.obj
 0004:000005dc       $pdata$??1?$map@W4VipsInterpretation@@V?$basic_string@DU?$char_traits@D@std@@V?$allocator@D@2@@std@@U?$less@W4VipsInterpretation@@@3@V?$allocator@U?$pair@$$CBW4VipsInterpretation@@V?$basic_string@DU?$char_traits@D@std@@V?$allocator@D@2@@std@@@std@@@3@@std@@QEAA@XZ 00000001800425dc     pipeline.obj
 0004:000005e8       $pdata$??1?$pair@V?$basic_string@DU?$char_traits@D@std@@V?$allocator@D@2@@std@@V12@@std@@QEAA@XZ 00000001800425e8     pipeline.obj
 0004:000005f4       $pdata$??1PipelineBaton@@QEAA@XZ 00000001800425f4     pipeline.obj
 0004:00000600       $pdata$?pipeline@@YAXAEBV?$FunctionCallbackInfo@VValue@v8@@@Nan@@@Z 0000000180042600     pipeline.obj
 0004:0000060c       $pdata$??0?$vector@U?$pair@V?$basic_string@DU?$char_traits@D@std@@V?$allocator@D@2@@std@@V12@@std@@V?$allocator@U?$pair@V?$basic_string@DU?$char_traits@D@std@@V?$allocator@D@2@@std@@V12@@std@@@2@@std@@QEAA@V?$initializer_list@U?$pair@V?$basic_string@DU?$char_traits@D@std@@V?$allocator@D@2@@std@@V12@@std@@@1@AEBV?$allocator@U?$pair@V?$basic_string@DU?$char_traits@D@std@@V?$allocator@D@2@@std@@V12@@std@@@1@@Z 000000018004260c     pipeline.obj
 0004:00000618       $pdata$??0?$vector@U?$pair@V?$basic_string@DU?$char_traits@D@std@@V?$allocator@D@2@@std@@V12@@std@@V?$allocator@U?$pair@V?$basic_string@DU?$char_traits@D@std@@V?$allocator@D@2@@std@@V12@@std@@@2@@std@@QEAA@AEBV01@@Z 0000000180042618     pipeline.obj
 0004:00000624       $pdata$?push_back@?$vector@PEAUInputDescriptor@sharp@@V?$allocator@PEAUInputDescriptor@sharp@@@std@@@std@@QEAAX$$QEAPEAUInputDescriptor@sharp@@@Z 0000000180042624     pipeline.obj
 0004:00000630       $pdata$??4?$vector@NV?$allocator@N@std@@@std@@QEAAAEAV01@$$QEAV01@@Z 0000000180042630     pipeline.obj
 0004:0000063c       $pdata$0$??4?$vector@NV?$allocator@N@std@@@std@@QEAAAEAV01@$$QEAV01@@Z 000000018004263c     pipeline.obj
 0004:00000648       $pdata$1$??4?$vector@NV?$allocator@N@std@@@std@@QEAAAEAV01@$$QEAV01@@Z 0000000180042648     pipeline.obj
 0004:00000654       $pdata$?compare@?$basic_string@DU?$char_traits@D@std@@V?$allocator@D@2@@std@@QEBAHPEBD@Z 0000000180042654     pipeline.obj
 0004:00000660       $pdata$?_Tidy@?$vector@U?$pair@V?$basic_string@DU?$char_traits@D@std@@V?$allocator@D@2@@std@@V12@@std@@V?$allocator@U?$pair@V?$basic_string@DU?$char_traits@D@std@@V?$allocator@D@2@@std@@V12@@std@@@2@@std@@IEAAXXZ 0000000180042660     pipeline.obj
 0004:0000066c       $pdata$?_Buy@?$vector@U?$pair@V?$basic_string@DU?$char_traits@D@std@@V?$allocator@D@2@@std@@V12@@std@@V?$allocator@U?$pair@V?$basic_string@DU?$char_traits@D@std@@V?$allocator@D@2@@std@@V12@@std@@@2@@std@@IEAA_N_K@Z 000000018004266c     pipeline.obj
 0004:00000678       $pdata$?_Reserve@?$vector@PEAUInputDescriptor@sharp@@V?$allocator@PEAUInputDescriptor@sharp@@@std@@@std@@IEAAX_K@Z 0000000180042678     pipeline.obj
 0004:00000678       $pdata$?_Reserve@?$vector@NV?$allocator@N@std@@@std@@IEAAX_K@Z 0000000180042678     pipeline.obj
 0004:00000684       $pdata$?erase@?$_Tree@V?$_Tmap_traits@W4VipsInterpretation@@V?$basic_string@DU?$char_traits@D@std@@V?$allocator@D@2@@std@@U?$less@W4VipsInterpretation@@@3@V?$allocator@U?$pair@$$CBW4VipsInterpretation@@V?$basic_string@DU?$char_traits@D@std@@V?$allocator@D@2@@std@@@std@@@3@$0A@@std@@@std@@QEAA?AV?$_Tree_iterator@V?$_Tree_val@U?$_Tree_simple_types@U?$pair@$$CBW4VipsInterpretation@@V?$basic_string@DU?$char_traits@D@std@@V?$allocator@D@2@@std@@@std@@@std@@@std@@@2@V?$_Tree_const_iterator@V?$_Tree_val@U?$_Tree_simple_types@U?$pair@$$CBW4VipsInterpretation@@V?$basic_string@DU?$char_traits@D@std@@V?$allocator@D@2@@std@@@std@@@std@@@std@@@2@0@Z 0000000180042684     pipeline.obj
 0004:00000690       $pdata$?_Reallocate@?$vector@NV?$allocator@N@std@@@std@@IEAAX_K@Z 0000000180042690     pipeline.obj
 0004:00000690       $pdata$?_Reallocate@?$vector@PEAUInputDescriptor@sharp@@V?$allocator@PEAUInputDescriptor@sharp@@@std@@@std@@IEAAX_K@Z 0000000180042690     pipeline.obj
 0004:0000069c       $pdata$0$?_Reallocate@?$vector@PEAUInputDescriptor@sharp@@V?$allocator@PEAUInputDescriptor@sharp@@@std@@@std@@IEAAX_K@Z 000000018004269c     pipeline.obj
 0004:0000069c       $pdata$0$?_Reallocate@?$vector@NV?$allocator@N@std@@@std@@IEAAX_K@Z 000000018004269c     pipeline.obj
 0004:000006a8       $pdata$1$?_Reallocate@?$vector@NV?$allocator@N@std@@@std@@IEAAX_K@Z 00000001800426a8     pipeline.obj
 0004:000006a8       $pdata$1$?_Reallocate@?$vector@PEAUInputDescriptor@sharp@@V?$allocator@PEAUInputDescriptor@sharp@@@std@@@std@@IEAAX_K@Z 00000001800426a8     pipeline.obj
 0004:000006b4       $pdata$?erase@?$_Tree@V?$_Tmap_traits@W4VipsInterpretation@@V?$basic_string@DU?$char_traits@D@std@@V?$allocator@D@2@@std@@U?$less@W4VipsInterpretation@@@3@V?$allocator@U?$pair@$$CBW4VipsInterpretation@@V?$basic_string@DU?$char_traits@D@std@@V?$allocator@D@2@@std@@@std@@@3@$0A@@std@@@std@@QEAA?AV?$_Tree_iterator@V?$_Tree_val@U?$_Tree_simple_types@U?$pair@$$CBW4VipsInterpretation@@V?$basic_string@DU?$char_traits@D@std@@V?$allocator@D@2@@std@@@std@@@std@@@std@@@2@V?$_Tree_const_iterator@V?$_Tree_val@U?$_Tree_simple_types@U?$pair@$$CBW4VipsInterpretation@@V?$basic_string@DU?$char_traits@D@std@@V?$allocator@D@2@@std@@@std@@@std@@@std@@@2@@Z 00000001800426b4     pipeline.obj
 0004:000006c0       $pdata$?_Erase@?$_Tree@V?$_Tmap_traits@W4VipsInterpretation@@V?$basic_string@DU?$char_traits@D@std@@V?$allocator@D@2@@std@@U?$less@W4VipsInterpretation@@@3@V?$allocator@U?$pair@$$CBW4VipsInterpretation@@V?$basic_string@DU?$char_traits@D@std@@V?$allocator@D@2@@std@@@std@@@3@$0A@@std@@@std@@IEAAXPEAU?$_Tree_node@U?$pair@$$CBW4VipsInterpretation@@V?$basic_string@DU?$char_traits@D@std@@V?$allocator@D@2@@std@@@std@@PEAX@2@@Z 00000001800426c0     pipeline.obj
 0004:000006cc       $pdata$0$?_Erase@?$_Tree@V?$_Tmap_traits@W4VipsInterpretation@@V?$basic_string@DU?$char_traits@D@std@@V?$allocator@D@2@@std@@U?$less@W4VipsInterpretation@@@3@V?$allocator@U?$pair@$$CBW4VipsInterpretation@@V?$basic_string@DU?$char_traits@D@std@@V?$allocator@D@2@@std@@@std@@@3@$0A@@std@@@std@@IEAAXPEAU?$_Tree_node@U?$pair@$$CBW4VipsInterpretation@@V?$basic_string@DU?$char_traits@D@std@@V?$allocator@D@2@@std@@@std@@PEAX@2@@Z 00000001800426cc     pipeline.obj
 0004:000006d8       $pdata$1$?_Erase@?$_Tree@V?$_Tmap_traits@W4VipsInterpretation@@V?$basic_string@DU?$char_traits@D@std@@V?$allocator@D@2@@std@@U?$less@W4VipsInterpretation@@@3@V?$allocator@U?$pair@$$CBW4VipsInterpretation@@V?$basic_string@DU?$char_traits@D@std@@V?$allocator@D@2@@std@@@std@@@3@$0A@@std@@@std@@IEAAXPEAU?$_Tree_node@U?$pair@$$CBW4VipsInterpretation@@V?$basic_string@DU?$char_traits@D@std@@V?$allocator@D@2@@std@@@std@@PEAX@2@@Z 00000001800426d8     pipeline.obj
 0004:000006e4       $pdata$2$?_Erase@?$_Tree@V?$_Tmap_traits@W4VipsInterpretation@@V?$basic_string@DU?$char_traits@D@std@@V?$allocator@D@2@@std@@U?$less@W4VipsInterpretation@@@3@V?$allocator@U?$pair@$$CBW4VipsInterpretation@@V?$basic_string@DU?$char_traits@D@std@@V?$allocator@D@2@@std@@@std@@@3@$0A@@std@@@std@@IEAAXPEAU?$_Tree_node@U?$pair@$$CBW4VipsInterpretation@@V?$basic_string@DU?$char_traits@D@std@@V?$allocator@D@2@@std@@@std@@PEAX@2@@Z 00000001800426e4     pipeline.obj
 0004:000006f0       $pdata$??$?HDU?$char_traits@D@std@@V?$allocator@D@1@@std@@YA?AV?$basic_string@DU?$char_traits@D@std@@V?$allocator@D@2@@0@AEBV10@PEBD@Z 00000001800426f0     pipeline.obj
 0004:000006fc       $pdata$??$?HDU?$char_traits@D@std@@V?$allocator@D@1@@std@@YA?AV?$basic_string@DU?$char_traits@D@std@@V?$allocator@D@2@@0@$$QEAV10@PEBD@Z 00000001800426fc     pipeline.obj
 0004:00000708       $pdata$??$?8DU?$char_traits@D@std@@V?$allocator@D@1@@std@@YA_NAEBV?$basic_string@DU?$char_traits@D@std@@V?$allocator@D@2@@0@PEBD@Z 0000000180042708     pipeline.obj
 0004:00000714       $pdata$??$?0AEAY09$$CBDPEBDX$0A@@?$pair@V?$basic_string@DU?$char_traits@D@std@@V?$allocator@D@2@@std@@V12@@std@@QEAA@AEAY09$$CBD$$QEAPEBD@Z 0000000180042714     pipeline.obj
 0004:00000720       $pdata$??$?0AEAY0M@$$CBDV?$basic_string@DU?$char_traits@D@std@@V?$allocator@D@2@@std@@X$0A@@?$pair@V?$basic_string@DU?$char_traits@D@std@@V?$allocator@D@2@@std@@V12@@std@@QEAA@AEAY0M@$$CBD$$QEAV?$basic_string@DU?$char_traits@D@std@@V?$allocator@D@2@@1@@Z 0000000180042720     pipeline.obj
 0004:0000072c       $pdata$??$?0AEAY06$$CBDPEBDX$0A@@?$pair@V?$basic_string@DU?$char_traits@D@std@@V?$allocator@D@2@@std@@V12@@std@@QEAA@AEAY06$$CBD$$QEAPEBD@Z 000000018004272c     pipeline.obj
 0004:00000738       $pdata$??$?0AEAY01$$CBDV?$basic_string@DU?$char_traits@D@std@@V?$allocator@D@2@@std@@X$0A@@?$pair@V?$basic_string@DU?$char_traits@D@std@@V?$allocator@D@2@@std@@V12@@std@@QEAA@AEAY01$$CBD$$QEAV?$basic_string@DU?$char_traits@D@std@@V?$allocator@D@2@@1@@Z 0000000180042738     pipeline.obj
 0004:00000744       $pdata$??$?0AEAY0N@$$CBDPEBDX$0A@@?$pair@V?$basic_string@DU?$char_traits@D@std@@V?$allocator@D@2@@std@@V12@@std@@QEAA@AEAY0N@$$CBD$$QEAPEBD@Z 0000000180042744     pipeline.obj
 0004:00000750       $pdata$??$?0AEAY0O@$$CBDPEBDX$0A@@?$pair@V?$basic_string@DU?$char_traits@D@std@@V?$allocator@D@2@@std@@V12@@std@@QEAA@AEAY0O@$$CBD$$QEAPEBD@Z 0000000180042750     pipeline.obj
 0004:0000075c       $pdata$??$?0AEAY0BE@$$CBDPEBDX$0A@@?$pair@V?$basic_string@DU?$char_traits@D@std@@V?$allocator@D@2@@std@@V12@@std@@QEAA@AEAY0BE@$$CBD$$QEAPEBD@Z 000000018004275c     pipeline.obj
 0004:00000768       $pdata$??$?0AEAY0P@$$CBDPEBDX$0A@@?$pair@V?$basic_string@DU?$char_traits@D@std@@V?$allocator@D@2@@std@@V12@@std@@QEAA@AEAY0P@$$CBD$$QEAPEBD@Z 0000000180042768     pipeline.obj
 0004:00000774       $pdata$??$?0AEAY0BA@$$CBDAEAY04$$CBDX$0A@@?$pair@V?$basic_string@DU?$char_traits@D@std@@V?$allocator@D@2@@std@@V12@@std@@QEAA@AEAY0BA@$$CBDAEAY04$$CBD@Z 0000000180042774     pipeline.obj
 0004:00000780       $pdata$??$?HDU?$char_traits@D@std@@V?$allocator@D@1@@std@@YA?AV?$basic_string@DU?$char_traits@D@std@@V?$allocator@D@2@@0@PEBDAEBV10@@Z 0000000180042780     pipeline.obj
 0004:0000078c       $pdata$??$?HDU?$char_traits@D@std@@V?$allocator@D@1@@std@@YA?AV?$basic_string@DU?$char_traits@D@std@@V?$allocator@D@2@@0@$$QEAV10@AEBV10@@Z 000000018004278c     pipeline.obj
 0004:00000798       $pdata$??$AttrTo@_N@sharp@@YA_NV?$Local@VObject@v8@@@v8@@V?$basic_string@DU?$char_traits@D@std@@V?$allocator@D@2@@std@@@Z 0000000180042798     pipeline.obj
 0004:000007a4       $pdata$??$AttrTo@H@sharp@@YAHV?$Local@VObject@v8@@@v8@@V?$basic_string@DU?$char_traits@D@std@@V?$allocator@D@2@@std@@@Z 00000001800427a4     pipeline.obj
 0004:000007b0       $pdata$??$AttrTo@N@sharp@@YANV?$Local@VObject@v8@@@v8@@V?$basic_string@DU?$char_traits@D@std@@V?$allocator@D@2@@std@@@Z 00000001800427b0     pipeline.obj
 0004:000007bc       $pdata$?reserve@?$basic_string@DU?$char_traits@D@std@@V?$allocator@D@2@@std@@QEAAX_K@Z 00000001800427bc     pipeline.obj
 0004:000007c8       $pdata$??$?8DU?$char_traits@D@std@@V?$allocator@D@1@@std@@YA_NAEBV?$basic_string@DU?$char_traits@D@std@@V?$allocator@D@2@@0@0@Z 00000001800427c8     pipeline.obj
 0004:000007d4       $pdata$??$_For_each_unchecked@PEAPEAUInputDescriptor@sharp@@V<lambda_c3ae18baaead4f54367c36d71046f7c6>@@@std@@YAXPEAPEAUInputDescriptor@sharp@@0AEAV<lambda_c3ae18baaead4f54367c36d71046f7c6>@@@Z 00000001800427d4     pipeline.obj
 0004:000007e0       $pdata$2$??$_For_each_unchecked@PEAPEAUInputDescriptor@sharp@@V<lambda_c3ae18baaead4f54367c36d71046f7c6>@@@std@@YAXPEAPEAUInputDescriptor@sharp@@0AEAV<lambda_c3ae18baaead4f54367c36d71046f7c6>@@@Z 00000001800427e0     pipeline.obj
 0004:000007ec       $pdata$3$??$_For_each_unchecked@PEAPEAUInputDescriptor@sharp@@V<lambda_c3ae18baaead4f54367c36d71046f7c6>@@@std@@YAXPEAPEAUInputDescriptor@sharp@@0AEAV<lambda_c3ae18baaead4f54367c36d71046f7c6>@@@Z 00000001800427ec     pipeline.obj
 0004:000007f8       $pdata$4$??$_For_each_unchecked@PEAPEAUInputDescriptor@sharp@@V<lambda_c3ae18baaead4f54367c36d71046f7c6>@@@std@@YAXPEAPEAUInputDescriptor@sharp@@0AEAV<lambda_c3ae18baaead4f54367c36d71046f7c6>@@@Z 00000001800427f8     pipeline.obj
 0004:00000804       $pdata$??$_Try_emplace@W4VipsInterpretation@@$$V@?$map@W4VipsInterpretation@@V?$basic_string@DU?$char_traits@D@std@@V?$allocator@D@2@@std@@U?$less@W4VipsInterpretation@@@3@V?$allocator@U?$pair@$$CBW4VipsInterpretation@@V?$basic_string@DU?$char_traits@D@std@@V?$allocator@D@2@@std@@@std@@@3@@std@@QEAA?AU?$pair@V?$_Tree_iterator@V?$_Tree_val@U?$_Tree_simple_types@U?$pair@$$CBW4VipsInterpretation@@V?$basic_string@DU?$char_traits@D@std@@V?$allocator@D@2@@std@@@std@@@std@@@std@@@std@@_N@1@$$QEAW4VipsInterpretation@@@Z 0000000180042804     pipeline.obj
 0004:00000804       $pdata$??$_Try_emplace@AEBW4VipsInterpretation@@$$V@?$map@W4VipsInterpretation@@V?$basic_string@DU?$char_traits@D@std@@V?$allocator@D@2@@std@@U?$less@W4VipsInterpretation@@@3@V?$allocator@U?$pair@$$CBW4VipsInterpretation@@V?$basic_string@DU?$char_traits@D@std@@V?$allocator@D@2@@std@@@std@@@3@@std@@QEAA?AU?$pair@V?$_Tree_iterator@V?$_Tree_val@U?$_Tree_simple_types@U?$pair@$$CBW4VipsInterpretation@@V?$basic_string@DU?$char_traits@D@std@@V?$allocator@D@2@@std@@@std@@@std@@@std@@@std@@_N@1@AEBW4VipsInterpretation@@@Z 0000000180042804     pipeline.obj
 0004:00000810       $pdata$??$_Assign@PEBN@?$vector@NV?$allocator@N@std@@@std@@QEAAXPEBN0Uforward_iterator_tag@1@@Z 0000000180042810     pipeline.obj
 0004:0000081c       $pdata$0$??$_Assign@PEBN@?$vector@NV?$allocator@N@std@@@std@@QEAAXPEBN0Uforward_iterator_tag@1@@Z 000000018004281c     pipeline.obj
 0004:00000828       $pdata$1$??$_Assign@PEBN@?$vector@NV?$allocator@N@std@@@std@@QEAAXPEBN0Uforward_iterator_tag@1@@Z 0000000180042828     pipeline.obj
 0004:00000834       $pdata$??$_Destroy_range1@V?$allocator@U?$pair@V?$basic_string@DU?$char_traits@D@std@@V?$allocator@D@2@@std@@V12@@std@@@std@@PEAU?$pair@V?$basic_string@DU?$char_traits@D@std@@V?$allocator@D@2@@std@@V12@@2@@std@@YAXPEAU?$pair@V?$basic_string@DU?$char_traits@D@std@@V?$allocator@D@2@@std@@V12@@0@0AEAU?$_Wrap_alloc@V?$allocator@U?$pair@V?$basic_string@DU?$char_traits@D@std@@V?$allocator@D@2@@std@@V12@@std@@@std@@@0@U?$integral_constant@_N$0A@@0@@Z 0000000180042834     pipeline.obj
 0004:00000840       $pdata$1$??$_Destroy_range1@V?$allocator@U?$pair@V?$basic_string@DU?$char_traits@D@std@@V?$allocator@D@2@@std@@V12@@std@@@std@@PEAU?$pair@V?$basic_string@DU?$char_traits@D@std@@V?$allocator@D@2@@std@@V12@@2@@std@@YAXPEAU?$pair@V?$basic_string@DU?$char_traits@D@std@@V?$allocator@D@2@@std@@V12@@0@0AEAU?$_Wrap_alloc@V?$allocator@U?$pair@V?$basic_string@DU?$char_traits@D@std@@V?$allocator@D@2@@std@@V12@@std@@@std@@@0@U?$integral_constant@_N$0A@@0@@Z 0000000180042840     pipeline.obj
 0004:0000084c       $pdata$2$??$_Destroy_range1@V?$allocator@U?$pair@V?$basic_string@DU?$char_traits@D@std@@V?$allocator@D@2@@std@@V12@@std@@@std@@PEAU?$pair@V?$basic_string@DU?$char_traits@D@std@@V?$allocator@D@2@@std@@V12@@2@@std@@YAXPEAU?$pair@V?$basic_string@DU?$char_traits@D@std@@V?$allocator@D@2@@std@@V12@@0@0AEAU?$_Wrap_alloc@V?$allocator@U?$pair@V?$basic_string@DU?$char_traits@D@std@@V?$allocator@D@2@@std@@V12@@std@@@std@@@0@U?$integral_constant@_N$0A@@0@@Z 000000018004284c     pipeline.obj
 0004:00000858       $pdata$3$??$_Destroy_range1@V?$allocator@U?$pair@V?$basic_string@DU?$char_traits@D@std@@V?$allocator@D@2@@std@@V12@@std@@@std@@PEAU?$pair@V?$basic_string@DU?$char_traits@D@std@@V?$allocator@D@2@@std@@V12@@2@@std@@YAXPEAU?$pair@V?$basic_string@DU?$char_traits@D@std@@V?$allocator@D@2@@std@@V12@@0@0AEAU?$_Wrap_alloc@V?$allocator@U?$pair@V?$basic_string@DU?$char_traits@D@std@@V?$allocator@D@2@@std@@V12@@std@@@std@@@0@U?$integral_constant@_N$0A@@0@@Z 0000000180042858     pipeline.obj
 0004:00000864       $pdata$??$_Insert_nohint@AEAU?$pair@$$CBW4VipsInterpretation@@V?$basic_string@DU?$char_traits@D@std@@V?$allocator@D@2@@std@@@std@@PEAU?$_Tree_node@U?$pair@$$CBW4VipsInterpretation@@V?$basic_string@DU?$char_traits@D@std@@V?$allocator@D@2@@std@@@std@@PEAX@2@@?$_Tree@V?$_Tmap_traits@W4VipsInterpretation@@V?$basic_string@DU?$char_traits@D@std@@V?$allocator@D@2@@std@@U?$less@W4VipsInterpretation@@@3@V?$allocator@U?$pair@$$CBW4VipsInterpretation@@V?$basic_string@DU?$char_traits@D@std@@V?$allocator@D@2@@std@@@std@@@3@$0A@@std@@@std@@IEAA?AU?$pair@V?$_Tree_iterator@V?$_Tree_val@U?$_Tree_simple_types@U?$pair@$$CBW4VipsInterpretation@@V?$basic_string@DU?$char_traits@D@std@@V?$allocator@D@2@@std@@@std@@@std@@@std@@@std@@_N@1@_NAEAU?$pair@$$CBW4VipsInterpretation@@V?$basic_string@DU?$char_traits@D@std@@V?$allocator@D@2@@std@@@1@PEAU?$_Tree_node@U?$pair@$$CBW4VipsInterpretation@@V?$basic_string@DU?$char_traits@D@std@@V?$allocator@D@2@@std@@@std@@PEAX@1@@Z 0000000180042864     pipeline.obj
 0004:00000870       $pdata$?_Do_call@?$_Func_impl@UAttentionStrategy@sharp@@V?$allocator@H@std@@NVVImage@vips@@@std@@EEAAN$$QEAVVImage@vips@@@Z 0000000180042870     pipeline.obj
 0004:0000087c       $pdata$?_Do_call@?$_Func_impl@UEntropyStrategy@sharp@@V?$allocator@H@std@@NVVImage@vips@@@std@@EEAAN$$QEAVVImage@vips@@@Z 000000018004287c     pipeline.obj
 0004:00000888       $pdata$??$_Insert_at@AEAU?$pair@$$CBW4VipsInterpretation@@V?$basic_string@DU?$char_traits@D@std@@V?$allocator@D@2@@std@@@std@@PEAU?$_Tree_node@U?$pair@$$CBW4VipsInterpretation@@V?$basic_string@DU?$char_traits@D@std@@V?$allocator@D@2@@std@@@std@@PEAX@2@@?$_Tree@V?$_Tmap_traits@W4VipsInterpretation@@V?$basic_string@DU?$char_traits@D@std@@V?$allocator@D@2@@std@@U?$less@W4VipsInterpretation@@@3@V?$allocator@U?$pair@$$CBW4VipsInterpretation@@V?$basic_string@DU?$char_traits@D@std@@V?$allocator@D@2@@std@@@std@@@3@$0A@@std@@@std@@IEAA?AV?$_Tree_iterator@V?$_Tree_val@U?$_Tree_simple_types@U?$pair@$$CBW4VipsInterpretation@@V?$basic_string@DU?$char_traits@D@std@@V?$allocator@D@2@@std@@@std@@@std@@@std@@@1@_NPEAU?$_Tree_node@U?$pair@$$CBW4VipsInterpretation@@V?$basic_string@DU?$char_traits@D@std@@V?$allocator@D@2@@std@@@std@@PEAX@1@AEAU?$pair@$$CBW4VipsInterpretation@@V?$basic_string@DU?$char_traits@D@std@@V?$allocator@D@2@@std@@@1@1@Z 0000000180042888     pipeline.obj
 0004:00000894       $pdata$??$_Insert_hint@AEAU?$pair@$$CBW4VipsInterpretation@@V?$basic_string@DU?$char_traits@D@std@@V?$allocator@D@2@@std@@@std@@PEAU?$_Tree_node@U?$pair@$$CBW4VipsInterpretation@@V?$basic_string@DU?$char_traits@D@std@@V?$allocator@D@2@@std@@@std@@PEAX@2@@?$_Tree@V?$_Tmap_traits@W4VipsInterpretation@@V?$basic_string@DU?$char_traits@D@std@@V?$allocator@D@2@@std@@U?$less@W4VipsInterpretation@@@3@V?$allocator@U?$pair@$$CBW4VipsInterpretation@@V?$basic_string@DU?$char_traits@D@std@@V?$allocator@D@2@@std@@@std@@@3@$0A@@std@@@std@@IEAA?AV?$_Tree_iterator@V?$_Tree_val@U?$_Tree_simple_types@U?$pair@$$CBW4VipsInterpretation@@V?$basic_string@DU?$char_traits@D@std@@V?$allocator@D@2@@std@@@std@@@std@@@std@@@1@V?$_Tree_const_iterator@V?$_Tree_val@U?$_Tree_simple_types@U?$pair@$$CBW4VipsInterpretation@@V?$basic_string@DU?$char_traits@D@std@@V?$allocator@D@2@@std@@@std@@@std@@@std@@@1@AEAU?$pair@$$CBW4VipsInterpretation@@V?$basic_string@DU?$char_traits@D@std@@V?$allocator@D@2@@std@@@1@PEAU?$_Tree_node@U?$pair@$$CBW4VipsInterpretation@@V?$basic_string@DU?$char_traits@D@std@@V?$allocator@D@2@@std@@@std@@PEAX@1@@Z 0000000180042894     pipeline.obj
 0004:000008a0       $pdata$0$??$_Insert_hint@AEAU?$pair@$$CBW4VipsInterpretation@@V?$basic_string@DU?$char_traits@D@std@@V?$allocator@D@2@@std@@@std@@PEAU?$_Tree_node@U?$pair@$$CBW4VipsInterpretation@@V?$basic_string@DU?$char_traits@D@std@@V?$allocator@D@2@@std@@@std@@PEAX@2@@?$_Tree@V?$_Tmap_traits@W4VipsInterpretation@@V?$basic_string@DU?$char_traits@D@std@@V?$allocator@D@2@@std@@U?$less@W4VipsInterpretation@@@3@V?$allocator@U?$pair@$$CBW4VipsInterpretation@@V?$basic_string@DU?$char_traits@D@std@@V?$allocator@D@2@@std@@@std@@@3@$0A@@std@@@std@@IEAA?AV?$_Tree_iterator@V?$_Tree_val@U?$_Tree_simple_types@U?$pair@$$CBW4VipsInterpretation@@V?$basic_string@DU?$char_traits@D@std@@V?$allocator@D@2@@std@@@std@@@std@@@std@@@1@V?$_Tree_const_iterator@V?$_Tree_val@U?$_Tree_simple_types@U?$pair@$$CBW4VipsInterpretation@@V?$basic_string@DU?$char_traits@D@std@@V?$allocator@D@2@@std@@@std@@@std@@@std@@@1@AEAU?$pair@$$CBW4VipsInterpretation@@V?$basic_string@DU?$char_traits@D@std@@V?$allocator@D@2@@std@@@1@PEAU?$_Tree_node@U?$pair@$$CBW4VipsInterpretation@@V?$basic_string@DU?$char_traits@D@std@@V?$allocator@D@2@@std@@@std@@PEAX@1@@Z 00000001800428a0     pipeline.obj
 0004:000008ac       $pdata$2$??$_Insert_hint@AEAU?$pair@$$CBW4VipsInterpretation@@V?$basic_string@DU?$char_traits@D@std@@V?$allocator@D@2@@std@@@std@@PEAU?$_Tree_node@U?$pair@$$CBW4VipsInterpretation@@V?$basic_string@DU?$char_traits@D@std@@V?$allocator@D@2@@std@@@std@@PEAX@2@@?$_Tree@V?$_Tmap_traits@W4VipsInterpretation@@V?$basic_string@DU?$char_traits@D@std@@V?$allocator@D@2@@std@@U?$less@W4VipsInterpretation@@@3@V?$allocator@U?$pair@$$CBW4VipsInterpretation@@V?$basic_string@DU?$char_traits@D@std@@V?$allocator@D@2@@std@@@std@@@3@$0A@@std@@@std@@IEAA?AV?$_Tree_iterator@V?$_Tree_val@U?$_Tree_simple_types@U?$pair@$$CBW4VipsInterpretation@@V?$basic_string@DU?$char_traits@D@std@@V?$allocator@D@2@@std@@@std@@@std@@@std@@@1@V?$_Tree_const_iterator@V?$_Tree_val@U?$_Tree_simple_types@U?$pair@$$CBW4VipsInterpretation@@V?$basic_string@DU?$char_traits@D@std@@V?$allocator@D@2@@std@@@std@@@std@@@std@@@1@AEAU?$pair@$$CBW4VipsInterpretation@@V?$basic_string@DU?$char_traits@D@std@@V?$allocator@D@2@@std@@@1@PEAU?$_Tree_node@U?$pair@$$CBW4VipsInterpretation@@V?$basic_string@DU?$char_traits@D@std@@V?$allocator@D@2@@std@@@std@@PEAX@1@@Z 00000001800428ac     pipeline.obj
 0004:000008b8       $pdata$4$??$_Insert_hint@AEAU?$pair@$$CBW4VipsInterpretation@@V?$basic_string@DU?$char_traits@D@std@@V?$allocator@D@2@@std@@@std@@PEAU?$_Tree_node@U?$pair@$$CBW4VipsInterpretation@@V?$basic_string@DU?$char_traits@D@std@@V?$allocator@D@2@@std@@@std@@PEAX@2@@?$_Tree@V?$_Tmap_traits@W4VipsInterpretation@@V?$basic_string@DU?$char_traits@D@std@@V?$allocator@D@2@@std@@U?$less@W4VipsInterpretation@@@3@V?$allocator@U?$pair@$$CBW4VipsInterpretation@@V?$basic_string@DU?$char_traits@D@std@@V?$allocator@D@2@@std@@@std@@@3@$0A@@std@@@std@@IEAA?AV?$_Tree_iterator@V?$_Tree_val@U?$_Tree_simple_types@U?$pair@$$CBW4VipsInterpretation@@V?$basic_string@DU?$char_traits@D@std@@V?$allocator@D@2@@std@@@std@@@std@@@std@@@1@V?$_Tree_const_iterator@V?$_Tree_val@U?$_Tree_simple_types@U?$pair@$$CBW4VipsInterpretation@@V?$basic_string@DU?$char_traits@D@std@@V?$allocator@D@2@@std@@@std@@@std@@@std@@@1@AEAU?$pair@$$CBW4VipsInterpretation@@V?$basic_string@DU?$char_traits@D@std@@V?$allocator@D@2@@std@@@1@PEAU?$_Tree_node@U?$pair@$$CBW4VipsInterpretation@@V?$basic_string@DU?$char_traits@D@std@@V?$allocator@D@2@@std@@@std@@PEAX@1@@Z 00000001800428b8     pipeline.obj
 0004:000008c4       $pdata$6$??$_Insert_hint@AEAU?$pair@$$CBW4VipsInterpretation@@V?$basic_string@DU?$char_traits@D@std@@V?$allocator@D@2@@std@@@std@@PEAU?$_Tree_node@U?$pair@$$CBW4VipsInterpretation@@V?$basic_string@DU?$char_traits@D@std@@V?$allocator@D@2@@std@@@std@@PEAX@2@@?$_Tree@V?$_Tmap_traits@W4VipsInterpretation@@V?$basic_string@DU?$char_traits@D@std@@V?$allocator@D@2@@std@@U?$less@W4VipsInterpretation@@@3@V?$allocator@U?$pair@$$CBW4VipsInterpretation@@V?$basic_string@DU?$char_traits@D@std@@V?$allocator@D@2@@std@@@std@@@3@$0A@@std@@@std@@IEAA?AV?$_Tree_iterator@V?$_Tree_val@U?$_Tree_simple_types@U?$pair@$$CBW4VipsInterpretation@@V?$basic_string@DU?$char_traits@D@std@@V?$allocator@D@2@@std@@@std@@@std@@@std@@@1@V?$_Tree_const_iterator@V?$_Tree_val@U?$_Tree_simple_types@U?$pair@$$CBW4VipsInterpretation@@V?$basic_string@DU?$char_traits@D@std@@V?$allocator@D@2@@std@@@std@@@std@@@std@@@1@AEAU?$pair@$$CBW4VipsInterpretation@@V?$basic_string@DU?$char_traits@D@std@@V?$allocator@D@2@@std@@@1@PEAU?$_Tree_node@U?$pair@$$CBW4VipsInterpretation@@V?$basic_string@DU?$char_traits@D@std@@V?$allocator@D@2@@std@@@std@@PEAX@1@@Z 00000001800428c4     pipeline.obj
 0004:000008d0       $pdata$8$??$_Insert_hint@AEAU?$pair@$$CBW4VipsInterpretation@@V?$basic_string@DU?$char_traits@D@std@@V?$allocator@D@2@@std@@@std@@PEAU?$_Tree_node@U?$pair@$$CBW4VipsInterpretation@@V?$basic_string@DU?$char_traits@D@std@@V?$allocator@D@2@@std@@@std@@PEAX@2@@?$_Tree@V?$_Tmap_traits@W4VipsInterpretation@@V?$basic_string@DU?$char_traits@D@std@@V?$allocator@D@2@@std@@U?$less@W4VipsInterpretation@@@3@V?$allocator@U?$pair@$$CBW4VipsInterpretation@@V?$basic_string@DU?$char_traits@D@std@@V?$allocator@D@2@@std@@@std@@@3@$0A@@std@@@std@@IEAA?AV?$_Tree_iterator@V?$_Tree_val@U?$_Tree_simple_types@U?$pair@$$CBW4VipsInterpretation@@V?$basic_string@DU?$char_traits@D@std@@V?$allocator@D@2@@std@@@std@@@std@@@std@@@1@V?$_Tree_const_iterator@V?$_Tree_val@U?$_Tree_simple_types@U?$pair@$$CBW4VipsInterpretation@@V?$basic_string@DU?$char_traits@D@std@@V?$allocator@D@2@@std@@@std@@@std@@@std@@@1@AEAU?$pair@$$CBW4VipsInterpretation@@V?$basic_string@DU?$char_traits@D@std@@V?$allocator@D@2@@std@@@1@PEAU?$_Tree_node@U?$pair@$$CBW4VipsInterpretation@@V?$basic_string@DU?$char_traits@D@std@@V?$allocator@D@2@@std@@@std@@PEAX@1@@Z 00000001800428d0     pipeline.obj
 0004:000008dc       $pdata$??$_Uninitialized_copy_al_unchecked1@PEBU?$pair@V?$basic_string@DU?$char_traits@D@std@@V?$allocator@D@2@@std@@V12@@std@@PEAU12@V?$allocator@U?$pair@V?$basic_string@DU?$char_traits@D@std@@V?$allocator@D@2@@std@@V12@@std@@@2@@std@@YAPEAU?$pair@V?$basic_string@DU?$char_traits@D@std@@V?$allocator@D@2@@std@@V12@@0@PEBU10@0PEAU10@AEAU?$_Wrap_alloc@V?$allocator@U?$pair@V?$basic_string@DU?$char_traits@D@std@@V?$allocator@D@2@@std@@V12@@std@@@std@@@0@U_General_ptr_iterator_tag@0@U_Any_tag@0@@Z 00000001800428dc     pipeline.obj
 0004:000008e8       $pdata$?FunctionCallbackWrapper@imp@Nan@@YAXAEBV?$FunctionCallbackInfo@VValue@v8@@@v8@@@Z 00000001800428e8     sharp.obj
 0004:000008f4       $pdata$?NewInstance@Nan@@YA?AV?$MaybeLocal@VObject@v8@@@v8@@V?$Local@VObjectTemplate@v8@@@3@@Z 00000001800428f4     sharp.obj
 0004:00000900       $pdata$?GetFunction@Nan@@YA?AV?$MaybeLocal@VFunction@v8@@@v8@@V?$Local@VFunctionTemplate@v8@@@3@@Z 0000000180042900     sharp.obj
 0004:0000090c       $pdata$?New@?$Factory@VFunctionTemplate@v8@@@imp@Nan@@SA?AV?$Local@VFunctionTemplate@v8@@@v8@@P6AXAEBV?$FunctionCallbackInfo@VValue@v8@@@3@@ZV?$Local@VValue@v8@@@5@V?$Local@VSignature@v8@@@5@@Z 000000018004290c     sharp.obj
 0004:00000918       $pdata$?init@@YAXV?$Local@VObject@v8@@@v8@@@Z 0000000180042918     sharp.obj
 0004:00000924       $pdata$?convert@?$ToFactory@VInteger@v8@@@imp@Nan@@SA?AV?$MaybeLocal@VInteger@v8@@@v8@@V?$Local@VValue@v8@@@5@@Z 0000000180042924     utilities.obj
 0004:00000930       $pdata$?ThrowError@Nan@@YAXPEBD@Z 0000000180042930     utilities.obj
 0004:0000093c       $pdata$?cache@@YAXAEBV?$FunctionCallbackInfo@VValue@v8@@@Nan@@@Z 000000018004293c     utilities.obj
 0004:00000948       $pdata$?concurrency@@YAXAEBV?$FunctionCallbackInfo@VValue@v8@@@Nan@@@Z 0000000180042948     utilities.obj
 0004:00000954       $pdata$?counters@@YAXAEBV?$FunctionCallbackInfo@VValue@v8@@@Nan@@@Z 0000000180042954     utilities.obj
 0004:00000960       $pdata$?simd@@YAXAEBV?$FunctionCallbackInfo@VValue@v8@@@Nan@@@Z 0000000180042960     utilities.obj
 0004:0000096c       $pdata$?libvipsVersion@@YAXAEBV?$FunctionCallbackInfo@VValue@v8@@@Nan@@@Z 000000018004296c     utilities.obj
 0004:00000978       $pdata$?format@@YAXAEBV?$FunctionCallbackInfo@VValue@v8@@@Nan@@@Z 0000000180042978     utilities.obj
 0004:00000984       $pdata$?_maxColourDistance@@YAXAEBV?$FunctionCallbackInfo@VValue@v8@@@Nan@@@Z 0000000180042984     utilities.obj
 0004:00000990       $pdata$??0bad_alloc@std@@QEAA@AEBV01@@Z 0000000180042990     libcpmt:xthrow.obj
 0004:0000099c       $pdata$??0bad_function_call@std@@QEAA@AEBV01@@Z 000000018004299c     libcpmt:xthrow.obj
 0004:000009a8       $pdata$??0exception@std@@QEAA@AEBV01@@Z 00000001800429a8     libcpmt:xthrow.obj
 0004:000009b4       $pdata$??0length_error@std@@QEAA@AEBV01@@Z 00000001800429b4     libcpmt:xthrow.obj
 0004:000009c0       $pdata$??0length_error@std@@QEAA@PEBD@Z 00000001800429c0     libcpmt:xthrow.obj
 0004:000009cc       $pdata$??0logic_error@std@@QEAA@AEBV01@@Z 00000001800429cc     libcpmt:xthrow.obj
 0004:000009d8       $pdata$??0out_of_range@std@@QEAA@AEBV01@@Z 00000001800429d8     libcpmt:xthrow.obj
 0004:000009e4       $pdata$??0out_of_range@std@@QEAA@PEBD@Z 00000001800429e4     libcpmt:xthrow.obj
 0004:000009f0       $pdata$??_Glength_error@std@@UEAAPEAXI@Z 00000001800429f0     libcpmt:xthrow.obj
 0004:000009f0       $pdata$??_Gbad_exception@std@@UEAAPEAXI@Z 00000001800429f0     libvcruntime:frame.obj
 0004:000009f0       $pdata$??_Gout_of_range@std@@UEAAPEAXI@Z 00000001800429f0     libcpmt:xthrow.obj
 0004:000009f0       $pdata$??_Gexception@std@@UEAAPEAXI@Z 00000001800429f0     libcpmt:xthrow.obj
 0004:000009f0       $pdata$??_Gbad_function_call@std@@UEAAPEAXI@Z 00000001800429f0     libcpmt:xthrow.obj
 0004:000009f0       $pdata$??_Glogic_error@std@@UEAAPEAXI@Z 00000001800429f0     libcpmt:xthrow.obj
 0004:000009f0       $pdata$??_Gbad_alloc@std@@UEAAPEAXI@Z 00000001800429f0     libcpmt:xthrow.obj
 0004:000009f0       $pdata$??_Gbad_array_new_length@std@@UEAAPEAXI@Z 00000001800429f0     LIBCMT:throw_bad_alloc.obj
 0004:000009fc       $pdata$?_Xbad_function_call@std@@YAXXZ 00000001800429fc     libcpmt:xthrow.obj
 0004:00000a08       $pdata$?_Xlength_error@std@@YAXPEBD@Z 0000000180042a08     libcpmt:xthrow.obj
 0004:00000a14       $pdata$?_Xout_of_range@std@@YAXPEBD@Z 0000000180042a14     libcpmt:xthrow.obj
 0004:00000a2c       $pdata$??2@YAPEAX_K@Z      0000000180042a2c     LIBCMT:new_scalar.obj
 0004:00000a38       $pdata$??_Gtype_info@@UEAAPEAXI@Z 0000000180042a38     LIBCMT:std_type_info_static.obj
 0004:00000a44       $pdata$??_M@YAXPEAX_K1P6AX0@Z@Z 0000000180042a44     LIBCMT:ehvecdtr.obj
 0004:00000a50       $pdata$?__ArrayUnwind@@YAXPEAX_K1P6AX0@Z@Z 0000000180042a50     LIBCMT:ehvecdtr.obj
 0004:00000a5c       $pdata$?dllmain_crt_dispatch@@YAHQEAUHINSTANCE__@@KQEAX@Z 0000000180042a5c     LIBCMT:dll_dllmain.obj
 0004:00000a68       $pdata$?dllmain_crt_process_attach@@YAHQEAUHINSTANCE__@@QEAX@Z 0000000180042a68     LIBCMT:dll_dllmain.obj
 0004:00000a74       $pdata$?dllmain_crt_process_detach@@YAH_N@Z 0000000180042a74     LIBCMT:dll_dllmain.obj
 0004:00000a80       $pdata$?dllmain_dispatch@@YAHQEAUHINSTANCE__@@KQEAX@Z 0000000180042a80     LIBCMT:dll_dllmain.obj
 0004:00000a8c       $pdata$?dllmain_raw@@YAHQEAUHINSTANCE__@@KQEAX@Z 0000000180042a8c     LIBCMT:dll_dllmain.obj
 0004:00000a98       $pdata$_DllMainCRTStartup  0000000180042a98     LIBCMT:dll_dllmain.obj
 0004:00000aa4       $pdata$__raise_securityfailure 0000000180042aa4     LIBCMT:gs_report.obj
 0004:00000ab0       $pdata$__report_gsfailure  0000000180042ab0     LIBCMT:gs_report.obj
 0004:00000abc       $pdata$__report_rangecheckfailure 0000000180042abc     LIBCMT:gs_report.obj
 0004:00000ac8       $pdata$__report_securityfailure 0000000180042ac8     LIBCMT:gs_report.obj
 0004:00000ad4       $pdata$capture_current_context 0000000180042ad4     LIBCMT:gs_report.obj
 0004:00000ae0       $pdata$capture_previous_context 0000000180042ae0     LIBCMT:gs_report.obj
 0004:00000aec       $pdata$??0bad_array_new_length@std@@QEAA@AEBV01@@Z 0000000180042aec     LIBCMT:throw_bad_alloc.obj
 0004:00000af8       $pdata$?_Xbad_alloc@std@@YAXXZ 0000000180042af8     libcpmt:xthrow.obj
 0004:00000af8       $pdata$?__scrt_throw_std_bad_alloc@@YAXXZ 0000000180042af8     LIBCMT:throw_bad_alloc.obj
 0004:00000b04       $pdata$?__scrt_throw_std_bad_array_new_length@@YAXXZ 0000000180042b04     LIBCMT:throw_bad_alloc.obj
 0004:00000b10       $pdata$__scrt_acquire_startup_lock 0000000180042b10     LIBCMT:utility.obj
 0004:00000b1c       $pdata$__scrt_dllmain_after_initialize_c 0000000180042b1c     LIBCMT:utility.obj
 0004:00000b28       $pdata$__scrt_dllmain_before_initialize_c 0000000180042b28     LIBCMT:utility.obj
 0004:00000b34       $pdata$__scrt_dllmain_crt_thread_attach 0000000180042b34     LIBCMT:utility.obj
 0004:00000b40       $pdata$__scrt_dllmain_crt_thread_detach 0000000180042b40     LIBCMT:utility.obj
 0004:00000b4c       $pdata$__scrt_dllmain_exception_filter 0000000180042b4c     LIBCMT:utility.obj
 0004:00000b58       $pdata$__scrt_dllmain_uninitialize_c 0000000180042b58     LIBCMT:utility.obj
 0004:00000b64       $pdata$__scrt_dllmain_uninitialize_critical 0000000180042b64     LIBCMT:utility.obj
 0004:00000b70       $pdata$__scrt_initialize_crt 0000000180042b70     LIBCMT:utility.obj
 0004:00000b7c       $pdata$__scrt_initialize_onexit_tables 0000000180042b7c     LIBCMT:utility.obj
 0004:00000b88       $pdata$__scrt_is_nonwritable_in_current_image 0000000180042b88     LIBCMT:utility.obj
 0004:00000b94       $pdata$__scrt_release_startup_lock 0000000180042b94     LIBCMT:utility.obj
 0004:00000ba0       $pdata$__scrt_uninitialize_crt 0000000180042ba0     LIBCMT:utility.obj
 0004:00000bac       $pdata$_onexit             0000000180042bac     LIBCMT:utility.obj
 0004:00000bb8       $pdata$atexit              0000000180042bb8     LIBCMT:utility.obj
 0004:00000bc4       $pdata$__security_init_cookie 0000000180042bc4     LIBCMT:gs_support.obj
 0004:00000bd0       $pdata$__scrt_initialize_default_local_stdio_options 0000000180042bd0     LIBCMT:default_local_stdio_options.obj
 0004:00000bdc       $pdata$__scrt_fastfail     0000000180042bdc     LIBCMT:utility_desktop.obj
 0004:00000be8       $pdata$_RTC_Initialize     0000000180042be8     LIBCMT:_initsect_.obj
 0004:00000bf4       $pdata$_RTC_Terminate      0000000180042bf4     LIBCMT:_initsect_.obj
 0004:00000c00       $pdata$__isa_available_init 0000000180042c00     LIBCMT:_cpu_disp_.obj
 0004:00000c18       $pdata$__DestructExceptionObject 0000000180042c18     libvcruntime:frame.obj
 0004:00000c24       $pdata$??0bad_exception@std@@QEAA@AEBV01@@Z 0000000180042c24     libvcruntime:frame.obj
 0004:00000c30       $pdata$?CatchIt@@YAXPEAUEHExceptionRecord@@PEA_KPEAU_CONTEXT@@PEAU_xDISPATCHER_CONTEXT@@PEBU_s_FuncInfo@@PEBU_s_HandlerType@@PEBU_s_CatchableType@@PEBU_s_TryBlockMapEntry@@H1EE@Z 0000000180042c30     libvcruntime:frame.obj
 0004:00000c3c       $pdata$?ExFilterRethrow@@YAHPEAU_EXCEPTION_POINTERS@@PEAUEHExceptionRecord@@PEAH@Z 0000000180042c3c     libvcruntime:frame.obj
 0004:00000c48       $pdata$?FindHandler@@YAXPEAUEHExceptionRecord@@PEA_KPEAU_CONTEXT@@PEAU_xDISPATCHER_CONTEXT@@PEBU_s_FuncInfo@@EH1@Z 0000000180042c48     libvcruntime:frame.obj
 0004:00000c54       $pdata$?FindHandlerForForeignException@@YAXPEAUEHExceptionRecord@@PEA_KPEAU_CONTEXT@@PEAU_xDISPATCHER_CONTEXT@@PEBU_s_FuncInfo@@HH1@Z 0000000180042c54     libvcruntime:frame.obj
 0004:00000c60       $pdata$?IsInExceptionSpec@@YAEPEAUEHExceptionRecord@@PEBU_s_ESTypeList@@@Z 0000000180042c60     libvcruntime:frame.obj
 0004:00000c6c       $pdata$__BuildCatchObject  0000000180042c6c     libvcruntime:frame.obj
 0004:00000c78       $pdata$__BuildCatchObjectHelper 0000000180042c78     libvcruntime:frame.obj
 0004:00000c84       $pdata$__CxxCallCatchBlock 0000000180042c84     libvcruntime:frame.obj
 0004:00000c90       $pdata$__FrameUnwindFilter 0000000180042c90     libvcruntime:frame.obj
 0004:00000c9c       $pdata$__FrameUnwindToState 0000000180042c9c     libvcruntime:frame.obj
 0004:00000ca8       $pdata$__InternalCxxFrameHandler 0000000180042ca8     libvcruntime:frame.obj
 0004:00000cb4       $pdata$__TypeMatch         0000000180042cb4     libvcruntime:frame.obj
 0004:00000cc0       $pdata$__std_terminate     0000000180042cc0     libvcruntime:frame.obj
 0004:00000ccc       $pdata$_purecall           0000000180042ccc     libvcruntime:purevirt.obj
 0004:00000cd8       $pdata$__std_exception_copy 0000000180042cd8     libvcruntime:std_exception.obj
 0004:00000ce4       $pdata$__std_exception_destroy 0000000180042ce4     libvcruntime:std_exception.obj
 0004:00000cf0       $pdata$_CxxThrowException  0000000180042cf0     libvcruntime:throw.obj
 0004:00000cfc       $pdata$__C_specific_handler 0000000180042cfc     libvcruntime:_chandler_.obj
 0004:00000d08       $pdata$__vcrt_initialize   0000000180042d08     libvcruntime:initialization.obj
 0004:00000d14       $pdata$__vcrt_thread_attach 0000000180042d14     libvcruntime:initialization.obj
 0004:00000d20       $pdata$__vcrt_thread_detach 0000000180042d20     libvcruntime:initialization.obj
 0004:00000d2c       $pdata$__vcrt_uninitialize 0000000180042d2c     libvcruntime:initialization.obj
 0004:00000d38       $pdata$__vcrt_uninitialize_critical 0000000180042d38     libvcruntime:initialization.obj
 0004:00000d44       $pdata$__std_type_info_destroy_list 0000000180042d44     libvcruntime:std_type_info.obj
 0004:00000d5c       $pdata$__vcrt_freefls      0000000180042d5c     libvcruntime:per_thread_data.obj
 0004:00000d68       $pdata$__vcrt_freeptd      0000000180042d68     libvcruntime:per_thread_data.obj
 0004:00000d74       $pdata$__vcrt_getptd       0000000180042d74     libvcruntime:per_thread_data.obj
 0004:00000d80       $pdata$__vcrt_getptd_noexit 0000000180042d80     libvcruntime:per_thread_data.obj
 0004:00000d8c       $pdata$__vcrt_initialize_ptd 0000000180042d8c     libvcruntime:per_thread_data.obj
 0004:00000d98       $pdata$__vcrt_uninitialize_ptd 0000000180042d98     libvcruntime:per_thread_data.obj
 0004:00000da4       $pdata$?__GetCurrentState@@YAHPEA_KPEAU_xDISPATCHER_CONTEXT@@PEBU_s_FuncInfo@@@Z 0000000180042da4     libvcruntime:ehstate.obj
 0004:00000db0       $pdata$?__GetUnwindTryBlock@@YAHPEA_KPEAU_xDISPATCHER_CONTEXT@@PEBU_s_FuncInfo@@@Z 0000000180042db0     libvcruntime:ehstate.obj
 0004:00000dbc       $pdata$?__SetUnwindTryBlock@@YAXPEA_KPEAU_xDISPATCHER_CONTEXT@@PEBU_s_FuncInfo@@H@Z 0000000180042dbc     libvcruntime:ehstate.obj
 0004:00000dc8       $pdata$?__StateFromIp@@YAHPEBU_s_FuncInfo@@PEAU_xDISPATCHER_CONTEXT@@_J@Z 0000000180042dc8     libvcruntime:ehstate.obj
 0004:00000de0       $pdata$?_ExecutionInCatch@@YAHPEAU_xDISPATCHER_CONTEXT@@PEBU_s_FuncInfo@@@Z 0000000180042de0     libvcruntime:trnsctrl.obj
 0004:00000dec       $pdata$?_GetEstablisherFrame@@YAPEA_KPEA_KPEAU_xDISPATCHER_CONTEXT@@PEBU_s_FuncInfo@@0@Z 0000000180042dec     libvcruntime:trnsctrl.obj
 0004:00000df8       $pdata$?_GetRangeOfTrysToCheck@@YAPEBU_s_TryBlockMapEntry@@PEA_KPEBU_s_FuncInfo@@HHPEAI2PEAU_xDISPATCHER_CONTEXT@@@Z 0000000180042df8     libvcruntime:trnsctrl.obj
 0004:00000e04       $pdata$?__FrameUnwindToEmptyState@@YAXPEA_KPEAU_xDISPATCHER_CONTEXT@@PEBU_s_FuncInfo@@@Z 0000000180042e04     libvcruntime:trnsctrl.obj
 0004:00000e10       $pdata$?__SehTransFilter@@YAHPEAU_EXCEPTION_POINTERS@@PEAUEHExceptionRecord@@PEA_KPEAU_CONTEXT@@PEAU_xDISPATCHER_CONTEXT@@PEBU_s_FuncInfo@@PEAH@Z 0000000180042e10     libvcruntime:trnsctrl.obj
 0004:00000e1c       $pdata$_CallSETranslator   0000000180042e1c     libvcruntime:trnsctrl.obj
 0004:00000e28       $pdata$_CreateFrameInfo    0000000180042e28     libvcruntime:trnsctrl.obj
 0004:00000e34       $pdata$_FindAndUnlinkFrame 0000000180042e34     libvcruntime:trnsctrl.obj
 0004:00000e40       $pdata$_GetImageBase       0000000180042e40     libvcruntime:trnsctrl.obj
 0004:00000e4c       $pdata$_GetThrowImageBase  0000000180042e4c     libvcruntime:trnsctrl.obj
 0004:00000e58       $pdata$_IsExceptionObjectToBeDestroyed 0000000180042e58     libvcruntime:trnsctrl.obj
 0004:00000e64       $pdata$_SetImageBase       0000000180042e64     libvcruntime:trnsctrl.obj
 0004:00000e70       $pdata$_SetThrowImageBase  0000000180042e70     libvcruntime:trnsctrl.obj
 0004:00000e7c       $pdata$_UnwindNestedFrames 0000000180042e7c     libvcruntime:trnsctrl.obj
 0004:00000e88       $pdata$__CxxFrameHandler3  0000000180042e88     libvcruntime:trnsctrl.obj
 0004:00000ec4       $pdata$__vcrt_initialize_locks 0000000180042ec4     libvcruntime:locks.obj
 0004:00000ed0       $pdata$__vcrt_uninitialize_locks 0000000180042ed0     libvcruntime:locks.obj
 0004:00000edc       $pdata$?try_get_function@@YAPEAXW4function_id@?A0x679b24ab@@QEBDQEBW4module_id@2@2@Z 0000000180042edc     libvcruntime:winapi_downlevel.obj
 0004:00000ee8       $pdata$__vcrt_FlsAlloc     0000000180042ee8     libvcruntime:winapi_downlevel.obj
 0004:00000ef4       $pdata$__vcrt_FlsFree      0000000180042ef4     libvcruntime:winapi_downlevel.obj
 0004:00000f00       $pdata$__vcrt_FlsGetValue  0000000180042f00     libvcruntime:winapi_downlevel.obj
 0004:00000f0c       $pdata$__vcrt_FlsSetValue  0000000180042f0c     libvcruntime:winapi_downlevel.obj
 0004:00000f18       $pdata$__vcrt_InitializeCriticalSectionEx 0000000180042f18     libvcruntime:winapi_downlevel.obj
 0004:00000f24       $pdata$__vcrt_uninitialize_winapi_thunks 0000000180042f24     libvcruntime:winapi_downlevel.obj
 0004:00000f30       $pdata$round               0000000180042f30     libucrt:round.obj
 0004:00000f3c       $pdata$??$common_assert_to_message_box@_W@@YAXQEB_W0IQEAX@Z 0000000180042f3c     libucrt:assert.obj
 0004:00000f48       $pdata$??$common_assert_to_message_box_build_string@_W@@YAXQEA_W_KQEB_W2IQEAX@Z 0000000180042f48     libucrt:assert.obj
 0004:00000f54       $pdata$??$common_assert_to_stderr@_W@@YAXQEB_W0I@Z 0000000180042f54     libucrt:assert.obj
 0004:00000f60       $pdata$_wassert            0000000180042f60     libucrt:assert.obj
 0004:00000f6c       $pdata$fwprintf            0000000180042f6c     libucrt:assert.obj
 0004:00000f78       $pdata$swprintf            0000000180042f78     libucrt:assert.obj
 0004:00000f84       $pdata$__acrt_call_reportfault 0000000180042f84     libucrt:invalid_parameter.obj
 0004:00000f90       $pdata$_invalid_parameter  0000000180042f90     libucrt:invalid_parameter.obj
 0004:00000f9c       $pdata$_invalid_parameter_noinfo 0000000180042f9c     libucrt:invalid_parameter.obj
 0004:00000fa8       $pdata$_invalid_parameter_noinfo_noreturn 0000000180042fa8     libucrt:invalid_parameter.obj
 0004:00000fb4       $pdata$_invoke_watson      0000000180042fb4     libucrt:invalid_parameter.obj
 0004:00000fc0       $pdata$??0_LocaleUpdate@@QEAA@QEAU__crt_locale_pointers@@@Z 0000000180042fc0     libucrt:stricmp.obj
 0004:00000fcc       $pdata$_callnewh           0000000180042fcc     libucrt:new_handler.obj
 0004:00000fd8       $pdata$_query_new_handler  0000000180042fd8     libucrt:new_handler.obj
 0004:00000fe4       $pdata$terminate           0000000180042fe4     libucrt:terminate.obj
 0004:00000ff0       $pdata$_initterm           0000000180042ff0     libucrt:initterm.obj
 0004:00000ffc       $pdata$_initterm_e         0000000180042ffc     libucrt:initterm.obj
 0004:00001008       $pdata$_seh_filter_exe     0000000180043008     libucrt:exception_filter.obj
 0004:00001014       $pdata$?common_exit@@YAXHW4_crt_exit_cleanup_mode@@W4_crt_exit_return_mode@@@Z 0000000180043014     libucrt:exit.obj
 0004:00001020       $pdata$?exit_or_terminate_process@@YAXI@Z 0000000180043020     libucrt:exit.obj
 0004:0000102c       $pdata$?try_cor_exit_process@@YAXI@Z 000000018004302c     libucrt:exit.obj
 0004:00001038       $pdata$??$parse_command_line@D@@YAXPEADPEAPEAD0PEA_K2@Z 0000000180043038     libucrt:argv_parsing.obj
 0004:00001044       $pdata$__acrt_allocate_buffer_for_argv 0000000180043044     libucrt:argv_parsing.obj
 0004:00001050       $pdata$_configure_narrow_argv 0000000180043050     libucrt:argv_parsing.obj
 0004:0000105c       $pdata$??$common_initialize_environment_nolock@D@@YAHXZ 000000018004305c     libucrt:environment_initialization.obj
 0004:00001068       $pdata$??$create_environment@D@@YAQEAPEADQEAD@Z 0000000180043068     libucrt:environment_initialization.obj
 0004:00001074       $pdata$??$free_environment@_W@@YAXQEAPEA_W@Z 0000000180043074     libucrt:environment_initialization.obj
 0004:00001074       $pdata$??$free_environment@D@@YAXQEAPEAD@Z 0000000180043074     libucrt:environment_initialization.obj
 0004:00001080       $pdata$??$uninitialize_environment_internal@D@@YAXAEAPEAPEAD@Z 0000000180043080     libucrt:environment_initialization.obj
 0004:0000108c       $pdata$??$uninitialize_environment_internal@_W@@YAXAEAPEAPEA_W@Z 000000018004308c     libucrt:environment_initialization.obj
 0004:00001098       $pdata$__dcrt_uninitialize_environments_nolock 0000000180043098     libucrt:environment_initialization.obj
 0004:000010a4       $pdata$??$?RV<lambda_b8c45f8f788dd370798f47cfe8ac3a86>@@AEAV<lambda_4e60a939b0d047cfe11ddc22648dfba9>@@V<lambda_332c3edc96d0294ec56c57d38c1cdfd5>@@@?$__crt_seh_guarded_call@H@@QEAAH$$QEAV<lambda_b8c45f8f788dd370798f47cfe8ac3a86>@@AEAV<lambda_4e60a939b0d047cfe11ddc22648dfba9>@@$$QEAV<lambda_332c3edc96d0294ec56c57d38c1cdfd5>@@@Z 00000001800430a4     libucrt:onexit.obj
 0004:000010b0       $pdata$??$?RV<lambda_e24bbb7b643b32fcea6fa61b31d4c984>@@AEAV<lambda_275893d493268fdec8709772e3fcec0e>@@V<lambda_9d71df4d7cf3f480f8d633942495c3b0>@@@?$__crt_seh_guarded_call@H@@QEAAH$$QEAV<lambda_e24bbb7b643b32fcea6fa61b31d4c984>@@AEAV<lambda_275893d493268fdec8709772e3fcec0e>@@$$QEAV<lambda_9d71df4d7cf3f480f8d633942495c3b0>@@@Z 00000001800430b0     libucrt:onexit.obj
 0004:000010bc       $pdata$??R<lambda_4e60a939b0d047cfe11ddc22648dfba9>@@QEBAHXZ 00000001800430bc     libucrt:onexit.obj
 0004:000010c8       $pdata$_execute_onexit_table 00000001800430c8     libucrt:onexit.obj
 0004:000010d4       $pdata$_register_onexit_function 00000001800430d4     libucrt:onexit.obj
 0004:000010e0       $pdata$initialize_c        00000001800430e0     libucrt:initialization.obj
 0004:000010ec       $pdata$uninitialize_environment 00000001800430ec     libucrt:initialization.obj
 0004:000010f8       $pdata$initialize_pointers 00000001800430f8     libucrt:initialization.obj
 0004:00001104       $pdata$uninitialize_allocated_memory 0000000180043104     libucrt:initialization.obj
 0004:00001110       $pdata$__acrt_thread_attach 0000000180043110     libucrt:initialization.obj
 0004:0000111c       $pdata$__acrt_thread_detach 000000018004311c     libucrt:initialization.obj
 0004:00001128       $pdata$__acrt_uninitialize_critical 0000000180043128     libucrt:initialization.obj
 0004:00001134       $pdata$abort               0000000180043134     libucrt:abort.obj
 0004:00001140       $pdata$strcpy_s            0000000180043140     libucrt:strcpy_s.obj
 0004:0000114c       $pdata$_free_base          000000018004314c     libucrt:free_base.obj
 0004:00001158       $pdata$_malloc_base        0000000180043158     libucrt:malloc_base.obj
 0004:00001164       $pdata$_calloc_base        0000000180043164     libucrt:calloc_base.obj
 0004:00001170       $pdata$??$?RV<lambda_7b91131dde12e1c3dfc74ff76b3f2eac>@@AEAV<lambda_dd75445284c072d0bd3768540cc698fa>@@V<lambda_16bc4ecb55b4718497c16bceaea2ceaf>@@@?$__crt_seh_guarded_call@H@@QEAAH$$QEAV<lambda_7b91131dde12e1c3dfc74ff76b3f2eac>@@AEAV<lambda_dd75445284c072d0bd3768540cc698fa>@@$$QEAV<lambda_16bc4ecb55b4718497c16bceaea2ceaf>@@@Z 0000000180043170     libucrt:output.obj
 0004:0000117c       $pdata$??$ensure_buffer_is_big_enough@D@formatting_buffer@__crt_stdio_output@@QEAA_N_K@Z 000000018004317c     libucrt:output.obj
 0004:00001188       $pdata$??$type_case_integer_parse_into_buffer@I@?$output_processor@_WV?$stream_output_adapter@_W@__crt_stdio_output@@V?$standard_base@_WV?$stream_output_adapter@_W@__crt_stdio_output@@@2@@__crt_stdio_output@@AEAAXII_N@Z 0000000180043188     libucrt:output.obj
 0004:00001188       $pdata$??$type_case_integer_parse_into_buffer@I@?$output_processor@_WV?$string_output_adapter@_W@__crt_stdio_output@@V?$standard_base@_WV?$string_output_adapter@_W@__crt_stdio_output@@@2@@__crt_stdio_output@@AEAAXII_N@Z 0000000180043188     libucrt:output.obj
 0004:00001194       $pdata$??$type_case_integer_parse_into_buffer@_K@?$output_processor@_WV?$stream_output_adapter@_W@__crt_stdio_output@@V?$standard_base@_WV?$stream_output_adapter@_W@__crt_stdio_output@@@2@@__crt_stdio_output@@AEAAX_KI_N@Z 0000000180043194     libucrt:output.obj
 0004:00001194       $pdata$??$type_case_integer_parse_into_buffer@_K@?$output_processor@_WV?$string_output_adapter@_W@__crt_stdio_output@@V?$standard_base@_WV?$string_output_adapter@_W@__crt_stdio_output@@@2@@__crt_stdio_output@@AEAAX_KI_N@Z 0000000180043194     libucrt:output.obj
 0004:000011a0       $pdata$??$write_multiple_characters@V?$stream_output_adapter@_W@__crt_stdio_output@@D@__crt_stdio_output@@YAXAEBV?$stream_output_adapter@_W@0@DHQEAH@Z 00000001800431a0     libucrt:output.obj
 0004:000011ac       $pdata$??$write_multiple_characters@V?$string_output_adapter@_W@__crt_stdio_output@@D@__crt_stdio_output@@YAXAEBV?$string_output_adapter@_W@0@DHQEAH@Z 00000001800431ac     libucrt:output.obj
 0004:000011b8       $pdata$??0?$output_processor@_WV?$string_output_adapter@_W@__crt_stdio_output@@V?$standard_base@_WV?$string_output_adapter@_W@__crt_stdio_output@@@2@@__crt_stdio_output@@QEAA@AEBV?$string_output_adapter@_W@1@_KQEB_WQEAU__crt_locale_pointers@@QEAD@Z 00000001800431b8     libucrt:output.obj
 0004:000011b8       $pdata$??0?$output_processor@_WV?$stream_output_adapter@_W@__crt_stdio_output@@V?$standard_base@_WV?$stream_output_adapter@_W@__crt_stdio_output@@@2@@__crt_stdio_output@@QEAA@AEBV?$stream_output_adapter@_W@1@_KQEB_WQEAU__crt_locale_pointers@@QEAD@Z 00000001800431b8     libucrt:output.obj
 0004:000011c4       $pdata$??R<lambda_dd75445284c072d0bd3768540cc698fa>@@QEBAHXZ 00000001800431c4     libucrt:output.obj
 0004:000011d0       $pdata$?force_decimal_point@__crt_stdio_output@@YAXPEADQEAU__crt_locale_pointers@@@Z 00000001800431d0     libucrt:output.obj
 0004:000011dc       $pdata$?parse_int_from_format_string@?$output_processor@_WV?$stream_output_adapter@_W@__crt_stdio_output@@V?$standard_base@_WV?$stream_output_adapter@_W@__crt_stdio_output@@@2@@__crt_stdio_output@@AEAA_NQEAH@Z 00000001800431dc     libucrt:output.obj
 0004:000011dc       $pdata$?parse_int_from_format_string@?$output_processor@_WV?$string_output_adapter@_W@__crt_stdio_output@@V?$standard_base@_WV?$string_output_adapter@_W@__crt_stdio_output@@@2@@__crt_stdio_output@@AEAA_NQEAH@Z 00000001800431dc     libucrt:output.obj
 0004:000011e8       $pdata$?process@?$output_processor@_WV?$stream_output_adapter@_W@__crt_stdio_output@@V?$standard_base@_WV?$stream_output_adapter@_W@__crt_stdio_output@@@2@@__crt_stdio_output@@QEAAHXZ 00000001800431e8     libucrt:output.obj
 0004:000011f4       $pdata$?process@?$output_processor@_WV?$string_output_adapter@_W@__crt_stdio_output@@V?$standard_base@_WV?$string_output_adapter@_W@__crt_stdio_output@@@2@@__crt_stdio_output@@QEAAHXZ 00000001800431f4     libucrt:output.obj
 0004:00001200       $pdata$?state_case_size@?$output_processor@_WV?$stream_output_adapter@_W@__crt_stdio_output@@V?$standard_base@_WV?$stream_output_adapter@_W@__crt_stdio_output@@@2@@__crt_stdio_output@@AEAA_NXZ 0000000180043200     libucrt:output.obj
 0004:0000120c       $pdata$?state_case_size@?$output_processor@_WV?$string_output_adapter@_W@__crt_stdio_output@@V?$standard_base@_WV?$string_output_adapter@_W@__crt_stdio_output@@@2@@__crt_stdio_output@@AEAA_NXZ 000000018004320c     libucrt:output.obj
 0004:00001218       $pdata$?state_case_type@?$output_processor@_WV?$stream_output_adapter@_W@__crt_stdio_output@@V?$standard_base@_WV?$stream_output_adapter@_W@__crt_stdio_output@@@2@@__crt_stdio_output@@AEAA_NXZ 0000000180043218     libucrt:output.obj
 0004:00001224       $pdata$?state_case_type@?$output_processor@_WV?$string_output_adapter@_W@__crt_stdio_output@@V?$standard_base@_WV?$string_output_adapter@_W@__crt_stdio_output@@@2@@__crt_stdio_output@@AEAA_NXZ 0000000180043224     libucrt:output.obj
 0004:00001230       $pdata$?type_case_Z@?$output_processor@_WV?$stream_output_adapter@_W@__crt_stdio_output@@V?$standard_base@_WV?$stream_output_adapter@_W@__crt_stdio_output@@@2@@__crt_stdio_output@@AEAA_NXZ 0000000180043230     libucrt:output.obj
 0004:00001230       $pdata$?type_case_Z@?$output_processor@_WV?$string_output_adapter@_W@__crt_stdio_output@@V?$standard_base@_WV?$string_output_adapter@_W@__crt_stdio_output@@@2@@__crt_stdio_output@@AEAA_NXZ 0000000180043230     libucrt:output.obj
 0004:0000123c       $pdata$?type_case_a@?$output_processor@_WV?$string_output_adapter@_W@__crt_stdio_output@@V?$standard_base@_WV?$string_output_adapter@_W@__crt_stdio_output@@@2@@__crt_stdio_output@@AEAA_NXZ 000000018004323c     libucrt:output.obj
 0004:0000123c       $pdata$?type_case_a@?$output_processor@_WV?$stream_output_adapter@_W@__crt_stdio_output@@V?$standard_base@_WV?$stream_output_adapter@_W@__crt_stdio_output@@@2@@__crt_stdio_output@@AEAA_NXZ 000000018004323c     libucrt:output.obj
 0004:00001248       $pdata$?type_case_c_tchar@?$output_processor@_WV?$string_output_adapter@_W@__crt_stdio_output@@V?$standard_base@_WV?$string_output_adapter@_W@__crt_stdio_output@@@2@@__crt_stdio_output@@AEAA_N_W@Z 0000000180043248     libucrt:output.obj
 0004:00001248       $pdata$?type_case_c_tchar@?$output_processor@_WV?$stream_output_adapter@_W@__crt_stdio_output@@V?$standard_base@_WV?$stream_output_adapter@_W@__crt_stdio_output@@@2@@__crt_stdio_output@@AEAA_N_W@Z 0000000180043248     libucrt:output.obj
 0004:00001254       $pdata$?type_case_integer@?$output_processor@_WV?$string_output_adapter@_W@__crt_stdio_output@@V?$standard_base@_WV?$string_output_adapter@_W@__crt_stdio_output@@@2@@__crt_stdio_output@@AEAA_NI_N@Z 0000000180043254     libucrt:output.obj
 0004:00001254       $pdata$?type_case_integer@?$output_processor@_WV?$stream_output_adapter@_W@__crt_stdio_output@@V?$standard_base@_WV?$stream_output_adapter@_W@__crt_stdio_output@@@2@@__crt_stdio_output@@AEAA_NI_N@Z 0000000180043254     libucrt:output.obj
 0004:00001260       $pdata$?type_case_n@?$output_processor@_WV?$string_output_adapter@_W@__crt_stdio_output@@V?$standard_base@_WV?$string_output_adapter@_W@__crt_stdio_output@@@2@@__crt_stdio_output@@AEAA_NXZ 0000000180043260     libucrt:output.obj
 0004:00001260       $pdata$?type_case_n@?$output_processor@_WV?$stream_output_adapter@_W@__crt_stdio_output@@V?$standard_base@_WV?$stream_output_adapter@_W@__crt_stdio_output@@@2@@__crt_stdio_output@@AEAA_NXZ 0000000180043260     libucrt:output.obj
 0004:0000126c       $pdata$?type_case_s@?$output_processor@_WV?$stream_output_adapter@_W@__crt_stdio_output@@V?$standard_base@_WV?$stream_output_adapter@_W@__crt_stdio_output@@@2@@__crt_stdio_output@@AEAA_NXZ 000000018004326c     libucrt:output.obj
 0004:0000126c       $pdata$?type_case_s@?$output_processor@_WV?$string_output_adapter@_W@__crt_stdio_output@@V?$standard_base@_WV?$string_output_adapter@_W@__crt_stdio_output@@@2@@__crt_stdio_output@@AEAA_NXZ 000000018004326c     libucrt:output.obj
 0004:00001278       $pdata$?write_stored_string_tchar@?$output_processor@_WV?$stream_output_adapter@_W@__crt_stdio_output@@V?$standard_base@_WV?$stream_output_adapter@_W@__crt_stdio_output@@@2@@__crt_stdio_output@@AEAA_N_W@Z 0000000180043278     libucrt:output.obj
 0004:00001284       $pdata$?write_stored_string_tchar@?$output_processor@_WV?$string_output_adapter@_W@__crt_stdio_output@@V?$standard_base@_WV?$string_output_adapter@_W@__crt_stdio_output@@@2@@__crt_stdio_output@@AEAA_N_W@Z 0000000180043284     libucrt:output.obj
 0004:00001290       $pdata$?write_string@?$stream_output_adapter@_W@__crt_stdio_output@@QEBAXQEB_WHQEAH1@Z 0000000180043290     libucrt:output.obj
 0004:0000129c       $pdata$?write_string@?$string_output_adapter@_W@__crt_stdio_output@@QEBAXQEB_WHQEAH1@Z 000000018004329c     libucrt:output.obj
 0004:000012a8       $pdata$__stdio_common_vfwprintf 00000001800432a8     libucrt:output.obj
 0004:000012b4       $pdata$__stdio_common_vswprintf 00000001800432b4     libucrt:output.obj
 0004:000012c0       $pdata$??$parse_integer@KV?$c_string_character_source@_W@__crt_strtox@@@__crt_strtox@@YAKQEAU__crt_locale_pointers@@V?$c_string_character_source@_W@0@H_N@Z 00000001800432c0     libucrt:atox.obj
 0004:000012cc       $pdata$__acrt_errno_map_os_error 00000001800432cc     libucrt:errno.obj
 0004:000012d8       $pdata$__doserrno          00000001800432d8     libucrt:errno.obj
 0004:000012e4       $pdata$_errno              00000001800432e4     libucrt:errno.obj
 0004:000012f0       $pdata$??$common_xtox@K_W@@YAHKQEA_W_KI_N@Z 00000001800432f0     libucrt:xtoa.obj
 0004:000012fc       $pdata$??$common_xtox_s@K_W@@YAHKQEA_W_KI_N@Z 00000001800432fc     libucrt:xtoa.obj
 0004:00001308       $pdata$_itow_s             0000000180043308     libucrt:xtoa.obj
 0004:00001314       $pdata$_set_error_mode     0000000180043314     libucrt:set_error_mode.obj
 0004:00001320       $pdata$wcscat_s            0000000180043320     libucrt:wcscat_s.obj
 0004:0000132c       $pdata$wcscpy_s            000000018004332c     libucrt:wcscpy_s.obj
 0004:00001338       $pdata$wcsncat_s           0000000180043338     libucrt:wcsncat_s.obj
 0004:00001344       $pdata$??$message_box_wait_thread@_W@@YAKQEAX@Z 0000000180043344     libucrt:crtmbox.obj
 0004:00001350       $pdata$__acrt_show_wide_message_box 0000000180043350     libucrt:crtmbox.obj
 0004:0000135c       $pdata$__acrt_initialize_stdio 000000018004335c     libucrt:_file.obj
 0004:00001368       $pdata$__acrt_uninitialize_stdio 0000000180043368     libucrt:_file.obj
 0004:00001374       $pdata$__acrt_stdio_flush_nolock 0000000180043374     libucrt:fflush.obj
 0004:00001380       $pdata$_fflush_nolock      0000000180043380     libucrt:fflush.obj
 0004:0000138c       $pdata$common_flush_all    000000018004338c     libucrt:fflush.obj
 0004:00001398       $pdata$fflush              0000000180043398     libucrt:fflush.obj
 0004:000013a4       $pdata$??$?RV<lambda_7a5ef57ff966f610505f1d28a3d40618>@@AEAV<lambda_b721fa326cdb32351d23dfa67958c160>@@V<lambda_5e0fb27672408a07956fe59e48ccb2aa>@@@?$__crt_seh_guarded_call@H@@QEAAH$$QEAV<lambda_7a5ef57ff966f610505f1d28a3d40618>@@AEAV<lambda_b721fa326cdb32351d23dfa67958c160>@@$$QEAV<lambda_5e0fb27672408a07956fe59e48ccb2aa>@@@Z 00000001800433a4     libucrt:setvbuf.obj
 0004:000013b0       $pdata$??R<lambda_b721fa326cdb32351d23dfa67958c160>@@QEBAHXZ 00000001800433b0     libucrt:setvbuf.obj
 0004:000013bc       $pdata$setvbuf             00000001800433bc     libucrt:setvbuf.obj
 0004:000013c8       $pdata$??$?RV<lambda_c36588078e9f5dfd39652860aa6b3aaf>@@AEAV<lambda_ec61778202f4f5fc7e7711acc23c3bca>@@V<lambda_dc9d2797ccde5d239b4a0efae8ebd7db>@@@?$__crt_seh_guarded_call@P6AXH@Z@@QEAAP6AXH@Z$$QEAV<lambda_c36588078e9f5dfd39652860aa6b3aaf>@@AEAV<lambda_ec61778202f4f5fc7e7711acc23c3bca>@@$$QEAV<lambda_dc9d2797ccde5d239b4a0efae8ebd7db>@@@Z 00000001800433c8     libucrt:signal.obj
 0004:000013d4       $pdata$__acrt_get_sigabrt_handler 00000001800433d4     libucrt:signal.obj
 0004:000013e0       $pdata$raise               00000001800433e0     libucrt:signal.obj
 0004:000013ec       $pdata$??$?RV<lambda_46352004c1216016012b18bd6f87e700>@@AEAV<lambda_3bd07e1a1191394380780325891bf33f>@@V<lambda_334532d3f185bcaa59b5be82d7d22bff>@@@?$__crt_seh_guarded_call@X@@QEAAX$$QEAV<lambda_46352004c1216016012b18bd6f87e700>@@AEAV<lambda_3bd07e1a1191394380780325891bf33f>@@$$QEAV<lambda_334532d3f185bcaa59b5be82d7d22bff>@@@Z 00000001800433ec     libucrt:per_thread_data.obj
 0004:000013f8       $pdata$??$?RV<lambda_5e887d1dcbef67a5eb4283622ba103bf>@@AEAV<lambda_4466841279450cc726390878d4a41900>@@V<lambda_341c25c0346d94847f1f3c463c57e077>@@@?$__crt_seh_guarded_call@X@@QEAAX$$QEAV<lambda_5e887d1dcbef67a5eb4283622ba103bf>@@AEAV<lambda_4466841279450cc726390878d4a41900>@@$$QEAV<lambda_341c25c0346d94847f1f3c463c57e077>@@@Z 00000001800433f8     libucrt:per_thread_data.obj
 0004:00001404       $pdata$??$?RV<lambda_72d1df2b273a38828b1ce30cbf4cdab5>@@AEAV<lambda_876a65b173b8412d3a47c70a915b0cf4>@@V<lambda_41932305e351933ebe8f8be3ed8bb5dc>@@@?$__crt_seh_guarded_call@X@@QEAAX$$QEAV<lambda_72d1df2b273a38828b1ce30cbf4cdab5>@@AEAV<lambda_876a65b173b8412d3a47c70a915b0cf4>@@$$QEAV<lambda_41932305e351933ebe8f8be3ed8bb5dc>@@@Z 0000000180043404     libucrt:per_thread_data.obj
 0004:00001410       $pdata$??$?RV<lambda_fb3a7dec4e47f37f22dae91bb15c9095>@@AEAV<lambda_698284760c8add0bfb0756c19673e34b>@@V<lambda_dfb8eca1e75fef3034a8fb18dd509707>@@@?$__crt_seh_guarded_call@X@@QEAAX$$QEAV<lambda_fb3a7dec4e47f37f22dae91bb15c9095>@@AEAV<lambda_698284760c8add0bfb0756c19673e34b>@@$$QEAV<lambda_dfb8eca1e75fef3034a8fb18dd509707>@@@Z 0000000180043410     libucrt:per_thread_data.obj
 0004:0000141c       $pdata$?construct_ptd_array@@YAXQEAU__acrt_ptd@@@Z 000000018004341c     libucrt:per_thread_data.obj
 0004:00001428       $pdata$?destroy_fls@@YAXPEAX@Z 0000000180043428     libucrt:per_thread_data.obj
 0004:00001434       $pdata$?destroy_ptd_array@@YAXQEAU__acrt_ptd@@@Z 0000000180043434     libucrt:per_thread_data.obj
 0004:00001440       $pdata$?replace_current_thread_locale_nolock@@YAXQEAU__acrt_ptd@@QEAU__crt_locale_data@@@Z 0000000180043440     libucrt:per_thread_data.obj
 0004:0000144c       $pdata$__acrt_freeptd      000000018004344c     libucrt:per_thread_data.obj
 0004:00001458       $pdata$__acrt_getptd       0000000180043458     libucrt:per_thread_data.obj
 0004:00001464       $pdata$__acrt_getptd_noexit 0000000180043464     libucrt:per_thread_data.obj
 0004:00001470       $pdata$__acrt_initialize_ptd 0000000180043470     libucrt:per_thread_data.obj
 0004:0000147c       $pdata$__acrt_uninitialize_ptd 000000018004347c     libucrt:per_thread_data.obj
 0004:00001488       $pdata$?internal_isupper_l@@YA_NHQEAU__crt_locale_pointers@@@Z 0000000180043488     libucrt:tolower_toupper.obj
 0004:00001494       $pdata$_tolower_l          0000000180043494     libucrt:tolower_toupper.obj
 0004:000014a0       $pdata$tolower             00000001800434a0     libucrt:tolower_toupper.obj
 0004:000014ac       $pdata$__acrt_update_locale_info 00000001800434ac     libucrt:locale_update.obj
 0004:000014b8       $pdata$__acrt_update_multibyte_info 00000001800434b8     libucrt:locale_update.obj
 0004:000014c4       $pdata$__acrt_uninitialize_locale 00000001800434c4     libucrt:wsetlocale.obj
 0004:000014d0       $pdata$__acrt_initialize_locks 00000001800434d0     libucrt:locks.obj
 0004:000014dc       $pdata$__acrt_uninitialize_locks 00000001800434dc     libucrt:locks.obj
 0004:000014e8       $pdata$?try_get_function@@YAPEAXW4function_id@?A0x63058377@@QEBDQEBW4module_id@2@2@Z 00000001800434e8     libucrt:winapi_thunks.obj
 0004:000014f4       $pdata$__acrt_FlsAlloc     00000001800434f4     libucrt:winapi_thunks.obj
 0004:00001500       $pdata$__acrt_FlsFree      0000000180043500     libucrt:winapi_thunks.obj
 0004:0000150c       $pdata$__acrt_FlsGetValue  000000018004350c     libucrt:winapi_thunks.obj
 0004:00001518       $pdata$__acrt_FlsSetValue  0000000180043518     libucrt:winapi_thunks.obj
 0004:00001524       $pdata$__acrt_InitializeCriticalSectionEx 0000000180043524     libucrt:winapi_thunks.obj
 0004:00001530       $pdata$__acrt_LCMapStringEx 0000000180043530     libucrt:winapi_thunks.obj
 0004:0000153c       $pdata$__acrt_LocaleNameToLCID 000000018004353c     libucrt:winapi_thunks.obj
 0004:00001548       $pdata$__acrt_MessageBoxW  0000000180043548     libucrt:winapi_thunks.obj
 0004:00001554       $pdata$__acrt_can_show_message_box 0000000180043554     libucrt:winapi_thunks.obj
 0004:00001560       $pdata$__acrt_get_parent_window 0000000180043560     libucrt:winapi_thunks.obj
 0004:0000156c       $pdata$__acrt_initialize_winapi_thunks 000000018004356c     libucrt:winapi_thunks.obj
 0004:00001578       $pdata$__acrt_is_interactive 0000000180043578     libucrt:winapi_thunks.obj
 0004:00001584       $pdata$__acrt_is_packaged_app 0000000180043584     libucrt:winapi_thunks.obj
 0004:00001590       $pdata$__acrt_uninitialize_winapi_thunks 0000000180043590     libucrt:winapi_thunks.obj
 0004:0000159c       $pdata$??$common_expand_argv_wildcards@D@@YAHQEAPEADQEAPEAPEAD@Z 000000018004359c     libucrt:argv_wildcards.obj
 0004:000015a8       $pdata$??$copy_and_add_argument_to_buffer@D@@YAHQEBD0_KAEAV?$argument_list@D@?A0xca0879c4@@@Z 00000001800435a8     libucrt:argv_wildcards.obj
 0004:000015b4       $pdata$??$expand_argument_wildcards@D@@YAHQEAD0AEAV?$argument_list@D@?A0xca0879c4@@@Z 00000001800435b4     libucrt:argv_wildcards.obj
 0004:000015c0       $pdata$?expand_if_necessary@?$argument_list@D@?A0xca0879c4@@AEAAHXZ 00000001800435c0     libucrt:argv_wildcards.obj
 0004:000015cc       $pdata$??$?RV<lambda_99476a1ad63dd22509b5d3e65b0ffc95>@@AEAV<lambda_ad1ced32f4ac17aa236e5ef05d6b3b7c>@@V<lambda_f7424dd8d45958661754dc4f2697e9c3>@@@?$__crt_seh_guarded_call@X@@QEAAX$$QEAV<lambda_99476a1ad63dd22509b5d3e65b0ffc95>@@AEAV<lambda_ad1ced32f4ac17aa236e5ef05d6b3b7c>@@$$QEAV<lambda_f7424dd8d45958661754dc4f2697e9c3>@@@Z 00000001800435cc     libucrt:mbctype.obj
 0004:000015d8       $pdata$??R<lambda_ad1ced32f4ac17aa236e5ef05d6b3b7c>@@QEBAXXZ 00000001800435d8     libucrt:mbctype.obj
 0004:000015e4       $pdata$?getSystemCP@@YAHH@Z 00000001800435e4     libucrt:mbctype.obj
 0004:000015f0       $pdata$?setSBCS@@YAXPEAU__crt_multibyte_data@@@Z 00000001800435f0     libucrt:mbctype.obj
 0004:000015fc       $pdata$?setSBUpLow@@YAXPEAU__crt_multibyte_data@@@Z 00000001800435fc     libucrt:mbctype.obj
 0004:00001608       $pdata$?setmbcp_internal@@YAHH_N@Z 0000000180043608     libucrt:mbctype.obj
 0004:00001614       $pdata$__acrt_initialize_multibyte 0000000180043614     libucrt:mbctype.obj
 0004:00001620       $pdata$__acrt_update_thread_multibyte_data 0000000180043620     libucrt:mbctype.obj
 0004:0000162c       $pdata$_setmbcp_nolock     000000018004362c     libucrt:mbctype.obj
 0004:00001638       $pdata$?x_ismbbtype_l@@YAHPEAU__crt_locale_pointers@@IHH@Z 0000000180043638     libucrt:ismbbyte.obj
 0004:00001644       $pdata$__acrt_initialize_command_line 0000000180043644     libucrt:argv_data.obj
 0004:00001650       $pdata$__dcrt_get_narrow_environment_from_os 0000000180043650     libucrt:get_environment_from_os.obj
 0004:0000165c       $pdata$_recalloc_base      000000018004365c     libucrt:recalloc.obj
 0004:00001668       $pdata$__acrt_initialize_heap 0000000180043668     libucrt:heap_handle.obj
 0004:00001674       $pdata$?initialize_inherited_file_handles_nolock@@YAXXZ 0000000180043674     libucrt:ioinit.obj
 0004:00001680       $pdata$?initialize_stdio_handles_nolock@@YAXXZ 0000000180043680     libucrt:ioinit.obj
 0004:0000168c       $pdata$__acrt_initialize_lowio 000000018004368c     libucrt:ioinit.obj
 0004:00001698       $pdata$__acrt_uninitialize_lowio 0000000180043698     libucrt:ioinit.obj
 0004:000016a4       $pdata$__acrt_execute_initializers 00000001800436a4     libucrt:shared_initialization.obj
 0004:000016b0       $pdata$__acrt_execute_uninitializers 00000001800436b0     libucrt:shared_initialization.obj
 0004:000016bc       $pdata$__acrt_invoke_user_matherr 00000001800436bc     libucrt:matherr.obj
 0004:000016c8       $pdata$__acrt_stdio_begin_temporary_buffering_nolock 00000001800436c8     libucrt:_sftbuf.obj
 0004:000016d4       $pdata$__acrt_stdio_end_temporary_buffering_nolock 00000001800436d4     libucrt:_sftbuf.obj
 0004:000016e0       $pdata$isdigit             00000001800436e0     libucrt:_ctype.obj
 0004:000016ec       $pdata$wcstol              00000001800436ec     libucrt:strtox.obj
 0004:000016f8       $pdata$_mbtowc_l           00000001800436f8     libucrt:mbtowc.obj
 0004:00001704       $pdata$_wctomb_s_l         0000000180043704     libucrt:wctomb.obj
 0004:00001710       $pdata$wctomb_s            0000000180043710     libucrt:wctomb.obj
 0004:0000171c       $pdata$wcsnlen             000000018004371c     libucrt:strnlen.obj
 0004:00001728       $pdata$?fp_format_a@@YAHQEBNPEAD_KQEAD2H_NIQEAU__crt_locale_pointers@@@Z 0000000180043728     libucrt:cvt.obj
 0004:00001734       $pdata$?fp_format_e@@YAHQEBNQEAD_K12H_NIQEAU__crt_locale_pointers@@@Z 0000000180043734     libucrt:cvt.obj
 0004:00001740       $pdata$?fp_format_e_internal@@YAHQEAD_KH_NIQEAU_strflt@@2QEAU__crt_locale_pointers@@@Z 0000000180043740     libucrt:cvt.obj
 0004:0000174c       $pdata$?fp_format_f_internal@@YAHQEAD_KHQEAU_strflt@@_NQEAU__crt_locale_pointers@@@Z 000000018004374c     libucrt:cvt.obj
 0004:00001758       $pdata$?fp_format_g@@YAHQEBNQEAD_K12H_NIQEAU__crt_locale_pointers@@@Z 0000000180043758     libucrt:cvt.obj
 0004:00001764       $pdata$?fp_format_nan_or_infinity@@YAHW4__acrt_fp_class@@_NPEAD_K1@Z 0000000180043764     libucrt:cvt.obj
 0004:00001770       $pdata$__acrt_fp_format    0000000180043770     libucrt:cvt.obj
 0004:0000177c       $pdata$_fputwc_nolock      000000018004377c     libucrt:fputwc.obj
 0004:00001788       $pdata$_fileno             0000000180043788     libucrt:fileno.obj
 0004:00001794       $pdata$__pctype_func       0000000180043794     libucrt:ctype.obj
 0004:000017a0       $pdata$iswctype            00000001800437a0     libucrt:iswctype.obj
 0004:000017ac       $pdata$_isctype_l          00000001800437ac     libucrt:isctype.obj
 0004:000017b8       $pdata$_getfpcontrolword   00000001800437b8     libucrt:_fenvutils.obj
 0004:000017c4       $pdata$_getfpstatusword    00000001800437c4     libucrt:_fenvutils.obj
 0004:000017d0       $pdata$_setfpstatusword    00000001800437d0     libucrt:_fenvutils.obj
 0004:000017dc       $pdata$_fcloseall          00000001800437dc     libucrt:closeall.obj
 0004:000017e8       $pdata$__acrt_stdio_free_buffer_nolock 00000001800437e8     libucrt:_freebuf.obj
 0004:000017f4       $pdata$??$?RV<lambda_b521505b218e5242e90febf6bfebc422>@@AEAV<lambda_6978c1fb23f02e42e1d9e99668cc68aa>@@V<lambda_314360699dd331753a4119843814e9a7>@@@?$__crt_seh_guarded_call@H@@QEAAH$$QEAV<lambda_b521505b218e5242e90febf6bfebc422>@@AEAV<lambda_6978c1fb23f02e42e1d9e99668cc68aa>@@$$QEAV<lambda_314360699dd331753a4119843814e9a7>@@@Z 00000001800437f4     libucrt:commit.obj
 0004:00001800       $pdata$_commit             0000000180043800     libucrt:commit.obj
 0004:0000180c       $pdata$?write_double_translated_ansi_nolock@@YA?AUwrite_result@?A0x9c548279@@HQEBDI@Z 000000018004380c     libucrt:write.obj
 0004:00001818       $pdata$?write_text_ansi_nolock@@YA?AUwrite_result@?A0x9c548279@@HQEBDI@Z 0000000180043818     libucrt:write.obj
 0004:00001824       $pdata$?write_text_utf16le_nolock@@YA?AUwrite_result@?A0x9c548279@@HQEBDI@Z 0000000180043824     libucrt:write.obj
 0004:00001830       $pdata$?write_text_utf8_nolock@@YA?AUwrite_result@?A0x9c548279@@HQEBDI@Z 0000000180043830     libucrt:write.obj
 0004:0000183c       $pdata$_write              000000018004383c     libucrt:write.obj
 0004:00001848       $pdata$_write_nolock       0000000180043848     libucrt:write.obj
 0004:00001854       $pdata$__acrt_free_locale  0000000180043854     libucrt:locale_refcounting.obj
 0004:00001860       $pdata$__acrt_locale_free_lc_time_if_unreferenced 0000000180043860     libucrt:locale_refcounting.obj
 0004:0000186c       $pdata$__acrt_release_locale_ref 000000018004386c     libucrt:locale_refcounting.obj
 0004:00001878       $pdata$__acrt_update_thread_locale_data 0000000180043878     libucrt:locale_refcounting.obj
 0004:00001884       $pdata$_updatetlocinfoEx_nolock 0000000180043884     libucrt:locale_refcounting.obj
 0004:00001890       $pdata$_isleadbyte_l       0000000180043890     libucrt:_wctype.obj
 0004:0000189c       $pdata$?__acrt_LCMapStringA_stat@@YAHPEAU__crt_locale_pointers@@PEB_WKPEBDHPEADHHH@Z 000000018004389c     libucrt:lcmapstringa.obj
 0004:000018a8       $pdata$__acrt_LCMapStringA 00000001800438a8     libucrt:lcmapstringa.obj
 0004:000018b4       $pdata$__acrt_locale_free_monetary 00000001800438b4     libucrt:initmon.obj
 0004:000018c0       $pdata$__acrt_locale_free_numeric 00000001800438c0     libucrt:initnum.obj
 0004:000018cc       $pdata$?free_crt_array_internal@@YAXQEAPEBX_K@Z 00000001800438cc     libucrt:inittime.obj
 0004:000018d8       $pdata$__acrt_locale_free_time 00000001800438d8     libucrt:inittime.obj
 0004:000018e4       $pdata$__acrt_GetStringTypeA 00000001800438e4     libucrt:getstringtypea.obj
 0004:000018f0       $pdata$?GetTableIndexFromLocaleName@@YAHPEB_W@Z 00000001800438f0     libucrt:lcidtoname_downlevel.obj
 0004:000018fc       $pdata$__acrt_DownlevelLocaleNameToLCID 00000001800438fc     libucrt:lcidtoname_downlevel.obj
 0004:00001908       $pdata$?shortsort@@YAXPEAD0_KP6AHPEBX2@Z@Z 0000000180043908     libucrt:qsort.obj
 0004:00001914       $pdata$2$?shortsort@@YAXPEAD0_KP6AHPEBX2@Z@Z 0000000180043914     libucrt:qsort.obj
 0004:00001920       $pdata$3$?shortsort@@YAXPEAD0_KP6AHPEBX2@Z@Z 0000000180043920     libucrt:qsort.obj
 0004:0000192c       $pdata$qsort               000000018004392c     libucrt:qsort.obj
 0004:00001938       $pdata$4$qsort             0000000180043938     libucrt:qsort.obj
 0004:00001944       $pdata$5$qsort             0000000180043944     libucrt:qsort.obj
 0004:00001950       $pdata$strncpy_s           0000000180043950     libucrt:strncpy_s.obj
 0004:0000195c       $pdata$strpbrk             000000018004395c     libucrt:strpbrk.obj
 0004:00001968       $pdata$_mbsdec_l           0000000180043968     libucrt:mbsdec.obj
 0004:00001974       $pdata$?initialize_multibyte@@YAHXZ 0000000180043974     libucrt:multibyte_initializer.obj
 0004:00001980       $pdata$_msize              0000000180043980     libucrt:msize.obj
 0004:0000198c       $pdata$_realloc_base       000000018004398c     libucrt:realloc_base.obj
 0004:00001998       $pdata$__acrt_lowio_create_handle_array 0000000180043998     libucrt:osfinfo.obj
 0004:000019a4       $pdata$__acrt_lowio_destroy_handle_array 00000001800439a4     libucrt:osfinfo.obj
 0004:000019b0       $pdata$__acrt_lowio_ensure_fh_exists 00000001800439b0     libucrt:osfinfo.obj
 0004:000019bc       $pdata$_free_osfhnd        00000001800439bc     libucrt:osfinfo.obj
 0004:000019c8       $pdata$_get_osfhandle      00000001800439c8     libucrt:osfinfo.obj
 0004:000019d4       $pdata$_isatty             00000001800439d4     libucrt:isatty.obj
 0004:000019e0       $pdata$__acrt_fp_strflt_to_string 00000001800439e0     libucrt:_fptostr.obj
 0004:000019ec       $pdata$?divide@__crt_strtox@@YA_KAEAUbig_integer@1@AEBU21@@Z 00000001800439ec     libucrt:cfout.obj
 0004:000019f8       $pdata$5$?divide@__crt_strtox@@YA_KAEAUbig_integer@1@AEBU21@@Z 00000001800439f8     libucrt:cfout.obj
 0004:00001a04       $pdata$6$?divide@__crt_strtox@@YA_KAEAUbig_integer@1@AEBU21@@Z 0000000180043a04     libucrt:cfout.obj
 0004:00001a10       $pdata$__acrt_fltout       0000000180043a10     libucrt:cfout.obj
 0004:00001a1c       $pdata$memcpy_s            0000000180043a1c     libucrt:cfout.obj
 0004:00001a28       $pdata$??$write_buffer_nolock@D@@YA_NDV__crt_stdio_stream@@@Z 0000000180043a28     libucrt:_flsbuf.obj
 0004:00001a34       $pdata$??$write_buffer_nolock@_W@@YA_N_WV__crt_stdio_stream@@@Z 0000000180043a34     libucrt:_flsbuf.obj
 0004:00001a40       $pdata$__acrt_stdio_flush_and_write_narrow_nolock 0000000180043a40     libucrt:_flsbuf.obj
 0004:00001a4c       $pdata$__acrt_stdio_flush_and_write_wide_nolock 0000000180043a4c     libucrt:_flsbuf.obj
 0004:00001a58       $pdata$_clearfp            0000000180043a58     libucrt:ieee.obj
 0004:00001a64       $pdata$common_control87    0000000180043a64     libucrt:ieee.obj
 0004:00001a7c       $pdata$_fclose_nolock      0000000180043a7c     libucrt:fclose.obj
 0004:00001a88       $pdata$fclose              0000000180043a88     libucrt:fclose.obj
 0004:00001a94       $pdata$??$common_lseek@_J@@YA_JH_JH@Z 0000000180043a94     libucrt:lseek.obj
 0004:00001aa0       $pdata$??$common_lseek_nolock@_J@@YA_JH_JH@Z 0000000180043aa0     libucrt:lseek.obj
 0004:00001aac       $pdata$_putwch_nolock      0000000180043aac     libucrt:putwch.obj
 0004:00001ab8       $pdata$fegetenv            0000000180043ab8     libucrt:fegetenv.obj
 0004:00001ac4       $pdata$fesetenv            0000000180043ac4     libucrt:fesetenv.obj
 0004:00001ad0       $pdata$feholdexcept        0000000180043ad0     libucrt:feholdexcept.obj
 0004:00001ae8       $pdata$__acrt_stdio_allocate_buffer_nolock 0000000180043ae8     libucrt:_getbuf.obj
 0004:00001af4       $pdata$??$?RV<lambda_bfedae4ebbf01fab1bb6dcc6a9e276e0>@@AEAV<lambda_2fe9b910cf3cbf4a0ab98a02ba45b3ec>@@V<lambda_237c231691f317818eb88cc1d5d642d6>@@@?$__crt_seh_guarded_call@H@@QEAAH$$QEAV<lambda_bfedae4ebbf01fab1bb6dcc6a9e276e0>@@AEAV<lambda_2fe9b910cf3cbf4a0ab98a02ba45b3ec>@@$$QEAV<lambda_237c231691f317818eb88cc1d5d642d6>@@@Z 0000000180043af4     libucrt:close.obj
 0004:00001b00       $pdata$_close              0000000180043b00     libucrt:close.obj
 0004:00001b0c       $pdata$_close_nolock       0000000180043b0c     libucrt:close.obj
 0004:00001b18       $pdata$__dcrt_lowio_initialize_console_output 0000000180043b18     libucrt:initcon.obj
 0004:00001b24       $pdata$__dcrt_terminate_console_output 0000000180043b24     libucrt:initcon.obj
 0004:00001b30       $pdata$_call_matherr       0000000180043b30     libucrt:libm_error.obj
 0004:00001b3c       $pdata$_exception_enabled  0000000180043b3c     libucrt:libm_error.obj
 0004:00001b48       $pdata$_handle_error       0000000180043b48     libucrt:libm_error.obj
 0004:00001b54       $pdata$__acrt_initialize_fma3 0000000180043b54     libucrt:fma3_available.obj
 0004:00001b60       $pdata$_log10_special      0000000180043b60     libucrt:log_special.obj
 0004:00001b6c       $pdata$_log_special_common 0000000180043b6c     libucrt:log_special.obj
 0004:00001b78       $pdata$_raise_exc          0000000180043b78     libucrt:fpexcept.obj
 0004:00001b84       $pdata$_raise_exc_ex       0000000180043b84     libucrt:fpexcept.obj
 0004:00001b90       $pdata$_set_errno_from_matherr 0000000180043b90     libucrt:fpexcept.obj
 0004:00001b9c       $pdata$_clrfp              0000000180043b9c     libucrt:fpctrl.obj
 0004:00001ba8       $pdata$_ctrlfp             0000000180043ba8     libucrt:fpctrl.obj
 0004:00001bb4       $pdata$_set_statfp         0000000180043bb4     libucrt:fpctrl.obj
 0004:00001bc0       $pdata$_statfp             0000000180043bc0     libucrt:fpctrl.obj
 0004:00001bcc       $pdata$_IsNonwritableInCurrentImage 0000000180043bcc     LIBCMT:pesect.obj
 0004:00001bd8       $pdata$__GSHandlerCheck    0000000180043bd8     LIBCMT:_gshandler_.obj
 0004:00001be4       $pdata$__GSHandlerCheckCommon 0000000180043be4     LIBCMT:_gshandler_.obj
 0004:00001c08       $pdata$strrchr             0000000180043c08     libvcruntime:strrchr.obj
 0004:00001c14       $pdata$__GSHandlerCheck_EH 0000000180043c14     LIBCMT:gshandlereh.obj
 0004:00001c2c       $pdata$?dtor$0@?0??IsTiff@sharp@@YA_NAEBV?$basic_string@DU?$char_traits@D@std@@V?$allocator@D@2@@std@@@Z@4HA 0000000180043c2c     common.obj
 0004:00001c2c       $pdata$?dtor$0@?0??IsDzZip@sharp@@YA_NAEBV?$basic_string@DU?$char_traits@D@std@@V?$allocator@D@2@@std@@@Z@4HA 0000000180043c2c     common.obj
 0004:00001c2c       $pdata$?dtor$0@?0??IsV@sharp@@YA_NAEBV?$basic_string@DU?$char_traits@D@std@@V?$allocator@D@2@@std@@@Z@4HA 0000000180043c2c     common.obj
 0004:00001c2c       $pdata$?dtor$0@?0??IsJpeg@sharp@@YA_NAEBV?$basic_string@DU?$char_traits@D@std@@V?$allocator@D@2@@std@@@Z@4HA 0000000180043c2c     common.obj
 0004:00001c38       $pdata$?dtor$1@?0??IsV@sharp@@YA_NAEBV?$basic_string@DU?$char_traits@D@std@@V?$allocator@D@2@@std@@@Z@4HA 0000000180043c38     common.obj
 0004:00001c38       $pdata$?dtor$1@?0??IsJpeg@sharp@@YA_NAEBV?$basic_string@DU?$char_traits@D@std@@V?$allocator@D@2@@std@@@Z@4HA 0000000180043c38     common.obj
 0004:00001c38       $pdata$?dtor$1@?0??IsTiff@sharp@@YA_NAEBV?$basic_string@DU?$char_traits@D@std@@V?$allocator@D@2@@std@@@Z@4HA 0000000180043c38     common.obj
 0004:00001c38       $pdata$?dtor$1@?0??IsDzZip@sharp@@YA_NAEBV?$basic_string@DU?$char_traits@D@std@@V?$allocator@D@2@@std@@@Z@4HA 0000000180043c38     common.obj
 0004:00001c44       $pdata$?dtor$2@?0??IsV@sharp@@YA_NAEBV?$basic_string@DU?$char_traits@D@std@@V?$allocator@D@2@@std@@@Z@4HA 0000000180043c44     common.obj
 0004:00001c44       $pdata$?dtor$2@?0??IsTiff@sharp@@YA_NAEBV?$basic_string@DU?$char_traits@D@std@@V?$allocator@D@2@@std@@@Z@4HA 0000000180043c44     common.obj
 0004:00001c44       $pdata$?dtor$2@?0??IsDzZip@sharp@@YA_NAEBV?$basic_string@DU?$char_traits@D@std@@V?$allocator@D@2@@std@@@Z@4HA 0000000180043c44     common.obj
 0004:00001c44       $pdata$?dtor$2@?0??IsJpeg@sharp@@YA_NAEBV?$basic_string@DU?$char_traits@D@std@@V?$allocator@D@2@@std@@@Z@4HA 0000000180043c44     common.obj
 0004:00001c50       $pdata$?dtor$3@?0??IsJpeg@sharp@@YA_NAEBV?$basic_string@DU?$char_traits@D@std@@V?$allocator@D@2@@std@@@Z@4HA 0000000180043c50     common.obj
 0004:00001c50       $pdata$?dtor$3@?0??IsV@sharp@@YA_NAEBV?$basic_string@DU?$char_traits@D@std@@V?$allocator@D@2@@std@@@Z@4HA 0000000180043c50     common.obj
 0004:00001c50       $pdata$?dtor$3@?0??IsDzZip@sharp@@YA_NAEBV?$basic_string@DU?$char_traits@D@std@@V?$allocator@D@2@@std@@@Z@4HA 0000000180043c50     common.obj
 0004:00001c50       $pdata$?dtor$3@?0??IsTiff@sharp@@YA_NAEBV?$basic_string@DU?$char_traits@D@std@@V?$allocator@D@2@@std@@@Z@4HA 0000000180043c50     common.obj
 0004:00001c5c       $pdata$?dtor$0@?0??IsPng@sharp@@YA_NAEBV?$basic_string@DU?$char_traits@D@std@@V?$allocator@D@2@@std@@@Z@4HA 0000000180043c5c     common.obj
 0004:00001c5c       $pdata$?dtor$0@?0??IsDz@sharp@@YA_NAEBV?$basic_string@DU?$char_traits@D@std@@V?$allocator@D@2@@std@@@Z@4HA 0000000180043c5c     common.obj
 0004:00001c5c       $pdata$?dtor$0@?0??IsWebp@sharp@@YA_NAEBV?$basic_string@DU?$char_traits@D@std@@V?$allocator@D@2@@std@@@Z@4HA 0000000180043c5c     common.obj
 0004:00001c68       $pdata$?dtor$1@?0??IsPng@sharp@@YA_NAEBV?$basic_string@DU?$char_traits@D@std@@V?$allocator@D@2@@std@@@Z@4HA 0000000180043c68     common.obj
 0004:00001c68       $pdata$?dtor$1@?0??IsWebp@sharp@@YA_NAEBV?$basic_string@DU?$char_traits@D@std@@V?$allocator@D@2@@std@@@Z@4HA 0000000180043c68     common.obj
 0004:00001c68       $pdata$?dtor$1@?0??IsDz@sharp@@YA_NAEBV?$basic_string@DU?$char_traits@D@std@@V?$allocator@D@2@@std@@@Z@4HA 0000000180043c68     common.obj
 0004:00001c74       $pdata$?dtor$0@?0???$?HDU?$char_traits@D@std@@V?$allocator@D@1@@std@@YA?AV?$basic_string@DU?$char_traits@D@std@@V?$allocator@D@2@@0@AEBV10@PEBD@Z@4HA 0000000180043c74     pipeline.obj
 0004:00001c74       $pdata$?dtor$0@?0???$?HDU?$char_traits@D@std@@V?$allocator@D@1@@std@@YA?AV?$basic_string@DU?$char_traits@D@std@@V?$allocator@D@2@@0@PEBDAEBV10@@Z@4HA 0000000180043c74     pipeline.obj
 0004:00001c74       $pdata$?dtor$0@?0??ImageTypeId@sharp@@YA?AV?$basic_string@DU?$char_traits@D@std@@V?$allocator@D@2@@std@@W4ImageType@1@@Z@4HA 0000000180043c74     common.obj
 0004:00001c80       $pdata$?dtor$12@?0??DetermineImageType@sharp@@YA?AW4ImageType@1@PEBD@Z@4HA 0000000180043c80     common.obj
 0004:00001c8c       $pdata$?dtor$13@?0??DetermineImageType@sharp@@YA?AW4ImageType@1@PEBD@Z@4HA 0000000180043c8c     common.obj
 0004:00001c98       $pdata$?catch$13@?0??OpenInput@sharp@@YA?AV?$tuple@VVImage@vips@@W4ImageType@sharp@@@std@@PEAUInputDescriptor@1@W4VipsAccess@@@Z@4HA 0000000180043c98     common.obj
 0004:00001ca4       $pdata$?catch$14@?0??OpenInput@sharp@@YA?AV?$tuple@VVImage@vips@@W4ImageType@sharp@@@std@@PEAUInputDescriptor@1@W4VipsAccess@@@Z@4HA 0000000180043ca4     common.obj
 0004:00001cb0       $pdata$?catch$14@?0??Execute@MetadataWorker@@UEAAXXZ@4HA 0000000180043cb0     metadata.obj
 0004:00001cbc       $pdata$?dtor$4@?0??metadata@@YAXAEBV?$FunctionCallbackInfo@VValue@v8@@@Nan@@@Z@4HA 0000000180043cbc     metadata.obj
 0004:00001cc8       $pdata$?dtor$5@?0??metadata@@YAXAEBV?$FunctionCallbackInfo@VValue@v8@@@Nan@@@Z@4HA 0000000180043cc8     metadata.obj
 0004:00001cd4       $pdata$?catch$191@?0??Execute@PipelineWorker@@UEAAXXZ@4HA 0000000180043cd4     pipeline.obj
 0004:00001ce0       $pdata$?dtor$134@?0??Execute@PipelineWorker@@UEAAXXZ@4HA 0000000180043ce0     pipeline.obj
 0004:00001cec       $pdata$?dtor$145@?0??Execute@PipelineWorker@@UEAAXXZ@4HA 0000000180043cec     pipeline.obj
 0004:00001cf8       $pdata$?dtor$152@?0??Execute@PipelineWorker@@UEAAXXZ@4HA 0000000180043cf8     pipeline.obj
 0004:00001d04       $pdata$?dtor$166@?0??Execute@PipelineWorker@@UEAAXXZ@4HA 0000000180043d04     pipeline.obj
 0004:00001d10       $pdata$?catch$192@?0??Execute@PipelineWorker@@UEAAXXZ@4HA 0000000180043d10     pipeline.obj
 0004:00001d1c       $pdata$?dtor$1@?0??pipeline@@YAXAEBV?$FunctionCallbackInfo@VValue@v8@@@Nan@@@Z@4HA 0000000180043d1c     pipeline.obj
 0004:00001d28       $pdata$?dtor$104@?0??pipeline@@YAXAEBV?$FunctionCallbackInfo@VValue@v8@@@Nan@@@Z@4HA 0000000180043d28     pipeline.obj
 0004:00001d34       $pdata$?dtor$106@?0??pipeline@@YAXAEBV?$FunctionCallbackInfo@VValue@v8@@@Nan@@@Z@4HA 0000000180043d34     pipeline.obj
 0004:00001d40       $pdata$?dtor$107@?0??pipeline@@YAXAEBV?$FunctionCallbackInfo@VValue@v8@@@Nan@@@Z@4HA 0000000180043d40     pipeline.obj
 0004:00001d4c       $pdata$?dtor$0@?0???$_Uninitialized_copy_al_unchecked1@PEBU?$pair@V?$basic_string@DU?$char_traits@D@std@@V?$allocator@D@2@@std@@V12@@std@@PEAU12@V?$allocator@U?$pair@V?$basic_string@DU?$char_traits@D@std@@V?$allocator@D@2@@std@@V12@@std@@@2@@std@@YAPEAU?$pair@V?$basic_string@DU?$char_traits@D@std@@V?$allocator@D@2@@std@@V12@@0@PEBU10@0PEAU10@AEAU?$_Wrap_alloc@V?$allocator@U?$pair@V?$basic_string@DU?$char_traits@D@std@@V?$allocator@D@2@@std@@V12@@std@@@std@@@0@U_General_ptr_iterator_tag@0@U_Any_tag@0@@Z@4HA 0000000180043d4c     pipeline.obj
 0004:00001d58       $pdata$?catch$26@?0??_maxColourDistance@@YAXAEBV?$FunctionCallbackInfo@VValue@v8@@@Nan@@@Z@4HA 0000000180043d58     utilities.obj
 0004:00001d64       $pdata$?catch$25@?0??_maxColourDistance@@YAXAEBV?$FunctionCallbackInfo@VValue@v8@@@Nan@@@Z@4HA 0000000180043d64     utilities.obj
 0004:00001d70       $pdata$?catch$24@?0??_maxColourDistance@@YAXAEBV?$FunctionCallbackInfo@VValue@v8@@@Nan@@@Z@4HA 0000000180043d70     utilities.obj
 0004:00001d7c       $pdata$?fin$0@?0???_M@YAXPEAX_K1P6AX0@Z@Z@4HA 0000000180043d7c     LIBCMT:ehvecdtr.obj
 0004:00001d88       $pdata$?filt$0@?0??__ArrayUnwind@@YAXPEAX_K1P6AX0@Z@Z@4HA 0000000180043d88     LIBCMT:ehvecdtr.obj
 0004:00001d94       $pdata$?fin$0@?0??dllmain_crt_process_attach@@YAHQEAUHINSTANCE__@@QEAX@Z@4HA 0000000180043d94     LIBCMT:dll_dllmain.obj
 0004:00001da0       $pdata$?fin$0@?0??dllmain_crt_process_detach@@YAH_N@Z@4HA 0000000180043da0     LIBCMT:dll_dllmain.obj
 0004:00001dac       $pdata$?filt$0@?0??dllmain_dispatch@@YAHQEAUHINSTANCE__@@KQEAX@Z@4HA 0000000180043dac     LIBCMT:dll_dllmain.obj
 0004:00001db8       $pdata$__scrt_is_nonwritable_in_current_image$filt$0 0000000180043db8     LIBCMT:utility.obj
 0004:00001dc4       $pdata$__CxxCallCatchBlock$filt$0 0000000180043dc4     libvcruntime:frame.obj
 0004:00001dd0       $pdata$__CxxCallCatchBlock$fin$1 0000000180043dd0     libvcruntime:frame.obj
 0004:00001ddc       $pdata$__DestructExceptionObject$filt$0 0000000180043ddc     libvcruntime:frame.obj
 0004:00001de8       $pdata$__FrameUnwindToState$filt$0 0000000180043de8     libvcruntime:frame.obj
 0004:00001df4       $pdata$__FrameUnwindToState$fin$1 0000000180043df4     libvcruntime:frame.obj
 0004:00001e00       $pdata$_CallSETranslator$filt$0 0000000180043e00     libvcruntime:trnsctrl.obj
 0004:00001e0c       $pdata$_query_new_handler$fin$0 0000000180043e0c     libucrt:new_handler.obj
 0004:00001e18       $pdata$?filt$0@?0??common_exit@@YAXHW4_crt_exit_cleanup_mode@@W4_crt_exit_return_mode@@@Z@4HA 0000000180043e18     libucrt:exit.obj
 0004:00001e24       $pdata$?fin$1@?0??common_exit@@YAXHW4_crt_exit_cleanup_mode@@W4_crt_exit_return_mode@@@Z@4HA 0000000180043e24     libucrt:exit.obj
 0004:00001e30       $pdata$?fin$0@?0???$?RV<lambda_e24bbb7b643b32fcea6fa61b31d4c984>@@AEAV<lambda_275893d493268fdec8709772e3fcec0e>@@V<lambda_9d71df4d7cf3f480f8d633942495c3b0>@@@?$__crt_seh_guarded_call@H@@QEAAH$$QEAV<lambda_e24bbb7b643b32fcea6fa61b31d4c984>@@AEAV<lambda_275893d493268fdec8709772e3fcec0e>@@$$QEAV<lambda_9d71df4d7cf3f480f8d633942495c3b0>@@@Z@4HA 0000000180043e30     libucrt:onexit.obj
 0004:00001e3c       $pdata$?fin$0@?0???$?RV<lambda_7b91131dde12e1c3dfc74ff76b3f2eac>@@AEAV<lambda_dd75445284c072d0bd3768540cc698fa>@@V<lambda_16bc4ecb55b4718497c16bceaea2ceaf>@@@?$__crt_seh_guarded_call@H@@QEAAH$$QEAV<lambda_7b91131dde12e1c3dfc74ff76b3f2eac>@@AEAV<lambda_dd75445284c072d0bd3768540cc698fa>@@$$QEAV<lambda_16bc4ecb55b4718497c16bceaea2ceaf>@@@Z@4HA 0000000180043e3c     libucrt:output.obj
 0004:00001e3c       $pdata$?fin$0@?0???$?RV<lambda_7a5ef57ff966f610505f1d28a3d40618>@@AEAV<lambda_b721fa326cdb32351d23dfa67958c160>@@V<lambda_5e0fb27672408a07956fe59e48ccb2aa>@@@?$__crt_seh_guarded_call@H@@QEAAH$$QEAV<lambda_7a5ef57ff966f610505f1d28a3d40618>@@AEAV<lambda_b721fa326cdb32351d23dfa67958c160>@@$$QEAV<lambda_5e0fb27672408a07956fe59e48ccb2aa>@@@Z@4HA 0000000180043e3c     libucrt:setvbuf.obj
 0004:00001e48       $pdata$common_flush_all$fin$0 0000000180043e48     libucrt:fflush.obj
 0004:00001e54       $pdata$common_flush_all$fin$1 0000000180043e54     libucrt:fflush.obj
 0004:00001e60       $pdata$raise$fin$0         0000000180043e60     libucrt:signal.obj
 0004:00001e6c       $pdata$?fin$0@?0???$?RV<lambda_5e887d1dcbef67a5eb4283622ba103bf>@@AEAV<lambda_4466841279450cc726390878d4a41900>@@V<lambda_341c25c0346d94847f1f3c463c57e077>@@@?$__crt_seh_guarded_call@X@@QEAAX$$QEAV<lambda_5e887d1dcbef67a5eb4283622ba103bf>@@AEAV<lambda_4466841279450cc726390878d4a41900>@@$$QEAV<lambda_341c25c0346d94847f1f3c463c57e077>@@@Z@4HA 0000000180043e6c     libucrt:per_thread_data.obj
 0004:00001e6c       $pdata$?fin$0@?0???$?RV<lambda_72d1df2b273a38828b1ce30cbf4cdab5>@@AEAV<lambda_876a65b173b8412d3a47c70a915b0cf4>@@V<lambda_41932305e351933ebe8f8be3ed8bb5dc>@@@?$__crt_seh_guarded_call@X@@QEAAX$$QEAV<lambda_72d1df2b273a38828b1ce30cbf4cdab5>@@AEAV<lambda_876a65b173b8412d3a47c70a915b0cf4>@@$$QEAV<lambda_41932305e351933ebe8f8be3ed8bb5dc>@@@Z@4HA 0000000180043e6c     libucrt:per_thread_data.obj
 0004:00001e6c       $pdata$?fin$0@?0???$?RV<lambda_c36588078e9f5dfd39652860aa6b3aaf>@@AEAV<lambda_ec61778202f4f5fc7e7711acc23c3bca>@@V<lambda_dc9d2797ccde5d239b4a0efae8ebd7db>@@@?$__crt_seh_guarded_call@P6AXH@Z@@QEAAP6AXH@Z$$QEAV<lambda_c36588078e9f5dfd39652860aa6b3aaf>@@AEAV<lambda_ec61778202f4f5fc7e7711acc23c3bca>@@$$QEAV<lambda_dc9d2797ccde5d239b4a0efae8ebd7db>@@@Z@4HA 0000000180043e6c     libucrt:signal.obj
 0004:00001e6c       $pdata$?fin$0@?0???$?RV<lambda_fb3a7dec4e47f37f22dae91bb15c9095>@@AEAV<lambda_698284760c8add0bfb0756c19673e34b>@@V<lambda_dfb8eca1e75fef3034a8fb18dd509707>@@@?$__crt_seh_guarded_call@X@@QEAAX$$QEAV<lambda_fb3a7dec4e47f37f22dae91bb15c9095>@@AEAV<lambda_698284760c8add0bfb0756c19673e34b>@@$$QEAV<lambda_dfb8eca1e75fef3034a8fb18dd509707>@@@Z@4HA 0000000180043e6c     libucrt:per_thread_data.obj
 0004:00001e6c       $pdata$?fin$0@?0???$?RV<lambda_b8c45f8f788dd370798f47cfe8ac3a86>@@AEAV<lambda_4e60a939b0d047cfe11ddc22648dfba9>@@V<lambda_332c3edc96d0294ec56c57d38c1cdfd5>@@@?$__crt_seh_guarded_call@H@@QEAAH$$QEAV<lambda_b8c45f8f788dd370798f47cfe8ac3a86>@@AEAV<lambda_4e60a939b0d047cfe11ddc22648dfba9>@@$$QEAV<lambda_332c3edc96d0294ec56c57d38c1cdfd5>@@@Z@4HA 0000000180043e6c     libucrt:onexit.obj
 0004:00001e6c       $pdata$?fin$0@?0???$?RV<lambda_46352004c1216016012b18bd6f87e700>@@AEAV<lambda_3bd07e1a1191394380780325891bf33f>@@V<lambda_334532d3f185bcaa59b5be82d7d22bff>@@@?$__crt_seh_guarded_call@X@@QEAAX$$QEAV<lambda_46352004c1216016012b18bd6f87e700>@@AEAV<lambda_3bd07e1a1191394380780325891bf33f>@@$$QEAV<lambda_334532d3f185bcaa59b5be82d7d22bff>@@@Z@4HA 0000000180043e6c     libucrt:per_thread_data.obj
 0004:00001e6c       $pdata$?fin$0@?0???$?RV<lambda_99476a1ad63dd22509b5d3e65b0ffc95>@@AEAV<lambda_ad1ced32f4ac17aa236e5ef05d6b3b7c>@@V<lambda_f7424dd8d45958661754dc4f2697e9c3>@@@?$__crt_seh_guarded_call@X@@QEAAX$$QEAV<lambda_99476a1ad63dd22509b5d3e65b0ffc95>@@AEAV<lambda_ad1ced32f4ac17aa236e5ef05d6b3b7c>@@$$QEAV<lambda_f7424dd8d45958661754dc4f2697e9c3>@@@Z@4HA 0000000180043e6c     libucrt:mbctype.obj
 0004:00001e78       $pdata$__acrt_uninitialize_locale$fin$0 0000000180043e78     libucrt:wsetlocale.obj
 0004:00001e78       $pdata$__acrt_update_thread_locale_data$fin$0 0000000180043e78     libucrt:locale_refcounting.obj
 0004:00001e84       $pdata$__acrt_update_thread_multibyte_data$fin$0 0000000180043e84     libucrt:mbctype.obj
 0004:00001e90       $pdata$__acrt_lowio_ensure_fh_exists$fin$0 0000000180043e90     libucrt:osfinfo.obj
 0004:00001e90       $pdata$__acrt_initialize_lowio$fin$0 0000000180043e90     libucrt:ioinit.obj
 0004:00001e9c       $pdata$_fcloseall$fin$0    0000000180043e9c     libucrt:closeall.obj
 0004:00001ea8       $pdata$?fin$0@?0???$?RV<lambda_b521505b218e5242e90febf6bfebc422>@@AEAV<lambda_6978c1fb23f02e42e1d9e99668cc68aa>@@V<lambda_314360699dd331753a4119843814e9a7>@@@?$__crt_seh_guarded_call@H@@QEAAH$$QEAV<lambda_b521505b218e5242e90febf6bfebc422>@@AEAV<lambda_6978c1fb23f02e42e1d9e99668cc68aa>@@$$QEAV<lambda_314360699dd331753a4119843814e9a7>@@@Z@4HA 0000000180043ea8     libucrt:commit.obj
 0004:00001ea8       $pdata$?fin$0@?0???$?RV<lambda_bfedae4ebbf01fab1bb6dcc6a9e276e0>@@AEAV<lambda_2fe9b910cf3cbf4a0ab98a02ba45b3ec>@@V<lambda_237c231691f317818eb88cc1d5d642d6>@@@?$__crt_seh_guarded_call@H@@QEAAH$$QEAV<lambda_bfedae4ebbf01fab1bb6dcc6a9e276e0>@@AEAV<lambda_2fe9b910cf3cbf4a0ab98a02ba45b3ec>@@$$QEAV<lambda_237c231691f317818eb88cc1d5d642d6>@@@Z@4HA 0000000180043ea8     libucrt:close.obj
 0004:00001eb4       $pdata$common_control87$filt$0 0000000180043eb4     libucrt:ieee.obj
 0004:00001eb4       $pdata$_ctrlfp$filt$0      0000000180043eb4     libucrt:fpctrl.obj
 0004:00001ec0       $pdata$fclose$fin$0        0000000180043ec0     libucrt:fclose.obj
 0004:00001ec0       $pdata$fflush$fin$0        0000000180043ec0     libucrt:fflush.obj
 0004:00001ecc       $pdata$?fin$0@?0???$common_lseek@_J@@YA_JH_JH@Z@4HA 0000000180043ecc     libucrt:lseek.obj
 0004:00001ecc       $pdata$_write$fin$0        0000000180043ecc     libucrt:write.obj
 0004:00001ed8       $pdata$_IsNonwritableInCurrentImage$filt$0 0000000180043ed8     LIBCMT:pesect.obj
 0005:00000000       __guard_fids__             0000000180044000     libucrt:initialization.obj
 0005:00000060       __guard_fids___acrt_show_wide_message_box 0000000180044060     libucrt:crtmbox.obj
 0005:00000064       __guard_fids___acrt_initialize_ptd 0000000180044064     libucrt:per_thread_data.obj
 0005:00000068       __guard_fids_??$expand_argument_wildcards@D@@YAHQEAD0AEAV?$argument_list@D@?A0xca0879c4@@@Z 0000000180044068     libucrt:argv_wildcards.obj
 0005:0000006c       __guard_fids__             000000018004406c     libucrt:stdio_initializer.obj
 0005:00000070       __guard_fids__             0000000180044070     libucrt:stdio_initializer.obj
 0005:00000074       __guard_fids__             0000000180044074     libucrt:locale_initializer.obj
 0005:00000078       __guard_fids__             0000000180044078     libucrt:multibyte_initializer.obj
 0005:0000007c       __guard_fids__             000000018004407c     libucrt:console_output_initializer.obj
 0005:00000080       __guard_fids__             0000000180044080     libucrt:fma3_initializer.obj
 0005:00000084       __guard_fids__             0000000180044084     libcpmt:xthrow.obj
 0005:0000008c       __guard_fids__             000000018004408c     libcpmt:xthrow.obj
 0005:00000094       __guard_fids__             0000000180044094     libcpmt:xthrow.obj
 0005:0000009c       __guard_fids__             000000018004409c     libcpmt:xthrow.obj
 0005:000000a4       __guard_fids__             00000001800440a4     libcpmt:xthrow.obj
 0005:000000ac       __guard_fids__             00000001800440ac     libcpmt:xthrow.obj
 0005:000000b4       __guard_fids__             00000001800440b4     LIBCMT:std_type_info_static.obj
 0005:000000b8       __guard_fids_?dllmain_crt_process_attach@@YAHQEAUHINSTANCE__@@QEAX@Z 00000001800440b8     LIBCMT:dll_dllmain.obj
 0005:000000c0       __guard_fids_?dllmain_dispatch@@YAHQEAUHINSTANCE__@@KQEAX@Z 00000001800440c0     LIBCMT:dll_dllmain.obj
 0005:000000c4       __guard_fids__             00000001800440c4     LIBCMT:throw_bad_alloc.obj
 0005:000000cc       __guard_fids__             00000001800440cc     LIBCMT:guard_support.obj
 0005:000000d0       __guard_fids__             00000001800440d0     libvcruntime:frame.obj
 0005:000000d4       __guard_fids__             00000001800440d4     libvcruntime:frame.obj
 0005:000000dc       __guard_fids___vcrt_initialize_ptd 00000001800440dc     libvcruntime:per_thread_data.obj
 0005:000000e0       __guard_fids__UnwindNestedFrames 00000001800440e0     libvcruntime:trnsctrl.obj
 0006:00000060       $R000000                   0000000180045060     * linker generated manifest res *

 Exports

  ordinal    name

        1    _register_sharp_
